
RTES.elf:     file format elf32-littlenios2
RTES.elf
architecture: nios2:r1, flags 0x00000112:
EXEC_P, HAS_SYMS, D_PAGED
start address 0x04020244

Program Header:
    LOAD off    0x00001000 vaddr 0x04020000 paddr 0x04020000 align 2**12
         filesz 0x00000020 memsz 0x00000020 flags r-x
    LOAD off    0x00001020 vaddr 0x04020020 paddr 0x04020020 align 2**12
         filesz 0x000179d0 memsz 0x000179d0 flags r-x
    LOAD off    0x000189f0 vaddr 0x040379f0 paddr 0x040394dc align 2**12
         filesz 0x00001aec memsz 0x00001aec flags rw-
    LOAD off    0x0001afc8 vaddr 0x0403afc8 paddr 0x0403afc8 align 2**12
         filesz 0x00000000 memsz 0x00000164 flags rw-

Sections:
Idx Name          Size      VMA       LMA       File off  Algn
  0 .entry        00000020  04020000  04020000  00001000  2**5
                  CONTENTS, ALLOC, LOAD, READONLY, CODE
  1 .exceptions   00000224  04020020  04020020  00001020  2**2
                  CONTENTS, ALLOC, LOAD, READONLY, CODE
  2 .text         0001708c  04020244  04020244  00001244  2**2
                  CONTENTS, ALLOC, LOAD, READONLY, CODE
  3 .rodata       00000720  040372d0  040372d0  000182d0  2**2
                  CONTENTS, ALLOC, LOAD, READONLY, DATA
  4 .rwdata       00001aec  040379f0  040394dc  000189f0  2**2
                  CONTENTS, ALLOC, LOAD, DATA, SMALL_DATA
  5 .bss          00000164  0403afc8  0403afc8  0001afc8  2**2
                  ALLOC, SMALL_DATA
  6 .SDRAM_Controller 00000000  00000000  00000000  0001a4dc  2**0
                  CONTENTS
  7 .OnChip_Memory 00000000  0403b12c  0403b12c  0001a4dc  2**0
                  CONTENTS
  8 .comment      00000023  00000000  00000000  0001a4dc  2**0
                  CONTENTS, READONLY
  9 .debug_aranges 000012c0  00000000  00000000  0001a500  2**3
                  CONTENTS, READONLY, DEBUGGING
 10 .debug_info   0002f025  00000000  00000000  0001b7c0  2**0
                  CONTENTS, READONLY, DEBUGGING
 11 .debug_abbrev 0000be0a  00000000  00000000  0004a7e5  2**0
                  CONTENTS, READONLY, DEBUGGING
 12 .debug_line   0000f916  00000000  00000000  000565ef  2**0
                  CONTENTS, READONLY, DEBUGGING
 13 .debug_frame  00002dd4  00000000  00000000  00065f08  2**2
                  CONTENTS, READONLY, DEBUGGING
 14 .debug_str    0000428d  00000000  00000000  00068cdc  2**0
                  CONTENTS, READONLY, DEBUGGING
 15 .debug_loc    0001f1d5  00000000  00000000  0006cf69  2**0
                  CONTENTS, READONLY, DEBUGGING
 16 .debug_alt_sim_info 00000060  00000000  00000000  0008c140  2**2
                  CONTENTS, READONLY, DEBUGGING
 17 .debug_ranges 00002008  00000000  00000000  0008c1a0  2**3
                  CONTENTS, READONLY, DEBUGGING
 18 .thread_model 00000003  00000000  00000000  00091f86  2**0
                  CONTENTS, READONLY
 19 .cpu          00000004  00000000  00000000  00091f89  2**0
                  CONTENTS, READONLY
 20 .qsys         00000001  00000000  00000000  00091f8d  2**0
                  CONTENTS, READONLY
 21 .simulation_enabled 00000001  00000000  00000000  00091f8e  2**0
                  CONTENTS, READONLY
 22 .stderr_dev   00000009  00000000  00000000  00091f8f  2**0
                  CONTENTS, READONLY
 23 .stdin_dev    00000009  00000000  00000000  00091f98  2**0
                  CONTENTS, READONLY
 24 .stdout_dev   00000009  00000000  00000000  00091fa1  2**0
                  CONTENTS, READONLY
 25 .sopc_system_name 0000000a  00000000  00000000  00091faa  2**0
                  CONTENTS, READONLY
 26 .quartus_project_dir 00000031  00000000  00000000  00091fb4  2**0
                  CONTENTS, READONLY
 27 .jdi          00004db7  00000000  00000000  00091fe5  2**0
                  CONTENTS, READONLY
 28 .sopcinfo     002b360f  00000000  00000000  00096d9c  2**0
                  CONTENTS, READONLY
SYMBOL TABLE:
04020000 l    d  .entry	00000000 .entry
04020020 l    d  .exceptions	00000000 .exceptions
04020244 l    d  .text	00000000 .text
040372d0 l    d  .rodata	00000000 .rodata
040379f0 l    d  .rwdata	00000000 .rwdata
0403afc8 l    d  .bss	00000000 .bss
00000000 l    d  .SDRAM_Controller	00000000 .SDRAM_Controller
0403b12c l    d  .OnChip_Memory	00000000 .OnChip_Memory
00000000 l    d  .comment	00000000 .comment
00000000 l    d  .debug_aranges	00000000 .debug_aranges
00000000 l    d  .debug_info	00000000 .debug_info
00000000 l    d  .debug_abbrev	00000000 .debug_abbrev
00000000 l    d  .debug_line	00000000 .debug_line
00000000 l    d  .debug_frame	00000000 .debug_frame
00000000 l    d  .debug_str	00000000 .debug_str
00000000 l    d  .debug_loc	00000000 .debug_loc
00000000 l    d  .debug_alt_sim_info	00000000 .debug_alt_sim_info
00000000 l    d  .debug_ranges	00000000 .debug_ranges
00000000 l    df *ABS*	00000000 C:/Users/Guilhem/Desktop/EPFL_CycloneV/sw/nios/RTES/RTES_bsp//obj/HAL/src/crt0.o
0402028c l       .text	00000000 alt_after_alt_main
00000000 l    df *ABS*	00000000 alt_irq_handler.c
00000000 l    df *ABS*	00000000 alt_instruction_exception_entry.c
00000000 l    df *ABS*	00000000 Accelerator_Grayscale.c
00000000 l    df *ABS*	00000000 C_Grayscale.c
00000000 l    df *ABS*	00000000 Camera_function.c
00000000 l    df *ABS*	00000000 Create_Image.c
00000000 l    df *ABS*	00000000 hello_world.c
04021a7c l     F .text	00000154 TRDB_D5M_log2
04021bd0 l     F .text	0000004c TRDB_D5M_shift_amount
04021c1c l     F .text	00000060 TRDB_D5M_READ
04021c7c l     F .text	0000007c TRDB_D5M_WRITE
00000000 l    df *ABS*	00000000 i2c.c
040222a0 l     F .text	00000034 i2c_usleep
040222d4 l     F .text	00000044 wait_end_of_transfer
04022318 l     F .text	00000070 set_data_control
04022388 l     F .text	00000064 get_data_set_control
00000000 l    df *ABS*	00000000 libgcc2.c
00000000 l    df *ABS*	00000000 lib2-divmod.c
00000000 l    df *ABS*	00000000 addsf3.c
00000000 l    df *ABS*	00000000 gesf2.c
00000000 l    df *ABS*	00000000 subsf3.c
00000000 l    df *ABS*	00000000 fixsfsi.c
00000000 l    df *ABS*	00000000 floatsisf.c
00000000 l    df *ABS*	00000000 muldf3.c
00000000 l    df *ABS*	00000000 floatsidf.c
00000000 l    df *ABS*	00000000 truncdfsf2.c
00000000 l    df *ABS*	00000000 libgcc2.c
00000000 l    df *ABS*	00000000 libgcc2.c
00000000 l    df *ABS*	00000000 fclose.c
00000000 l    df *ABS*	00000000 fflush.c
00000000 l    df *ABS*	00000000 findfp.c
04024668 l     F .text	00000008 __fp_unlock
0402467c l     F .text	0000019c __sinit.part.1
04024818 l     F .text	00000008 __fp_lock
00000000 l    df *ABS*	00000000 fopen.c
00000000 l    df *ABS*	00000000 fprintf.c
00000000 l    df *ABS*	00000000 mallocr.c
00000000 l    df *ABS*	00000000 fseek.c
00000000 l    df *ABS*	00000000 fseeko.c
00000000 l    df *ABS*	00000000 fstatr.c
00000000 l    df *ABS*	00000000 fwalk.c
00000000 l    df *ABS*	00000000 fwrite.c
00000000 l    df *ABS*	00000000 impure.c
040379f0 l     O .rwdata	00000424 impure_data
00000000 l    df *ABS*	00000000 int_errno.c
00000000 l    df *ABS*	00000000 makebuf.c
00000000 l    df *ABS*	00000000 mallocr.c
00000000 l    df *ABS*	00000000 memset.c
00000000 l    df *ABS*	00000000 openr.c
00000000 l    df *ABS*	00000000 printf.c
00000000 l    df *ABS*	00000000 puts.c
00000000 l    df *ABS*	00000000 refill.c
04026388 l     F .text	0000001c lflush
00000000 l    df *ABS*	00000000 sbrkr.c
00000000 l    df *ABS*	00000000 sprintf.c
00000000 l    df *ABS*	00000000 stdio.c
00000000 l    df *ABS*	00000000 strlen.c
00000000 l    df *ABS*	00000000 vfprintf.c
04037702 l     O .rodata	00000010 zeroes.4389
04037712 l     O .rodata	00000010 blanks.4388
00000000 l    df *ABS*	00000000 vfprintf.c
04037722 l     O .rodata	00000010 zeroes.4404
0402ac50 l     F .text	000000bc __sbprintf
04037732 l     O .rodata	00000010 blanks.4403
00000000 l    df *ABS*	00000000 writer.c
00000000 l    df *ABS*	00000000 wsetup.c
00000000 l    df *ABS*	00000000 closer.c
00000000 l    df *ABS*	00000000 dtoa.c
0402af14 l     F .text	00000200 quorem
00000000 l    df *ABS*	00000000 flags.c
00000000 l    df *ABS*	00000000 fvwrite.c
00000000 l    df *ABS*	00000000 isattyr.c
00000000 l    df *ABS*	00000000 locale.c
0403823c l     O .rwdata	00000020 lc_ctype_charset
0403821c l     O .rwdata	00000020 lc_message_charset
0403825c l     O .rwdata	00000038 lconv
00000000 l    df *ABS*	00000000 lseekr.c
00000000 l    df *ABS*	00000000 memchr.c
00000000 l    df *ABS*	00000000 memcpy.c
00000000 l    df *ABS*	00000000 memmove.c
00000000 l    df *ABS*	00000000 mprec.c
04037760 l     O .rodata	0000000c p05.2768
00000000 l    df *ABS*	00000000 readr.c
00000000 l    df *ABS*	00000000 mallocr.c
00000000 l    df *ABS*	00000000 s_fpclassify.c
00000000 l    df *ABS*	00000000 strcmp.c
00000000 l    df *ABS*	00000000 vfprintf.c
04037894 l     O .rodata	00000010 blanks.4332
04037884 l     O .rodata	00000010 zeroes.4333
00000000 l    df *ABS*	00000000 vfprintf.c
0402fd38 l     F .text	000000fc __sprint_r.part.0
040378b4 l     O .rodata	00000010 blanks.4348
040378a4 l     O .rodata	00000010 zeroes.4349
040312c4 l     F .text	000000bc __sbprintf
00000000 l    df *ABS*	00000000 mallocr.c
00000000 l    df *ABS*	00000000 fputwc.c
00000000 l    df *ABS*	00000000 wbuf.c
00000000 l    df *ABS*	00000000 wcrtomb.c
00000000 l    df *ABS*	00000000 wctomb_r.c
00000000 l    df *ABS*	00000000 libgcc2.c
00000000 l    df *ABS*	00000000 libgcc2.c
00000000 l    df *ABS*	00000000 adddf3.c
00000000 l    df *ABS*	00000000 divdf3.c
00000000 l    df *ABS*	00000000 eqdf2.c
00000000 l    df *ABS*	00000000 gedf2.c
00000000 l    df *ABS*	00000000 ledf2.c
00000000 l    df *ABS*	00000000 subdf3.c
00000000 l    df *ABS*	00000000 fixdfsi.c
00000000 l    df *ABS*	00000000 floatunsidf.c
00000000 l    df *ABS*	00000000 alt_close.c
0403424c l     F .text	0000003c alt_get_errno
00000000 l    df *ABS*	00000000 alt_dev.c
04034358 l     F .text	0000002c alt_dev_null_write
00000000 l    df *ABS*	00000000 alt_errno.c
00000000 l    df *ABS*	00000000 alt_fstat.c
04034384 l     F .text	0000003c alt_get_errno
00000000 l    df *ABS*	00000000 alt_isatty.c
04034470 l     F .text	0000003c alt_get_errno
00000000 l    df *ABS*	00000000 alt_load.c
04034550 l     F .text	00000068 alt_load_section
00000000 l    df *ABS*	00000000 alt_lseek.c
0403463c l     F .text	0000003c alt_get_errno
00000000 l    df *ABS*	00000000 alt_main.c
00000000 l    df *ABS*	00000000 alt_malloc_lock.c
00000000 l    df *ABS*	00000000 alt_open.c
04034810 l     F .text	0000003c alt_get_errno
0403484c l     F .text	000000c4 alt_file_locked
00000000 l    df *ABS*	00000000 alt_printf.c
00000000 l    df *ABS*	00000000 alt_putchar.c
00000000 l    df *ABS*	00000000 alt_read.c
04034ccc l     F .text	0000003c alt_get_errno
00000000 l    df *ABS*	00000000 alt_release_fd.c
00000000 l    df *ABS*	00000000 alt_sbrk.c
040394cc l     O .rwdata	00000004 heap_end
00000000 l    df *ABS*	00000000 alt_usleep.c
00000000 l    df *ABS*	00000000 alt_write.c
04034f48 l     F .text	0000003c alt_get_errno
00000000 l    df *ABS*	00000000 alt_sys_init.c
0403507c l     F .text	00000034 alt_dev_reg
0403843c l     O .rwdata	00001060 JTAG_UART
00000000 l    df *ABS*	00000000 altera_avalon_jtag_uart_fd.c
00000000 l    df *ABS*	00000000 altera_avalon_jtag_uart_init.c
04035364 l     F .text	0000020c altera_avalon_jtag_uart_irq
04035570 l     F .text	000000a0 altera_avalon_jtag_uart_timeout
00000000 l    df *ABS*	00000000 altera_avalon_jtag_uart_ioctl.c
00000000 l    df *ABS*	00000000 altera_avalon_jtag_uart_read.c
00000000 l    df *ABS*	00000000 altera_avalon_jtag_uart_write.c
00000000 l    df *ABS*	00000000 altera_avalon_performance_counter.c
00000000 l    df *ABS*	00000000 perf_print_formatted_report.c
00000000 l    df *ABS*	00000000 alt_alarm_start.c
00000000 l    df *ABS*	00000000 alt_busy_sleep.c
00000000 l    df *ABS*	00000000 alt_dcache_flush_all.c
00000000 l    df *ABS*	00000000 alt_dev_llist_insert.c
04036280 l     F .text	0000003c alt_get_errno
00000000 l    df *ABS*	00000000 alt_do_ctors.c
00000000 l    df *ABS*	00000000 alt_do_dtors.c
00000000 l    df *ABS*	00000000 alt_find_dev.c
00000000 l    df *ABS*	00000000 alt_find_file.c
00000000 l    df *ABS*	00000000 alt_get_fd.c
00000000 l    df *ABS*	00000000 alt_icache_flush_all.c
00000000 l    df *ABS*	00000000 alt_iic.c
00000000 l    df *ABS*	00000000 alt_iic_isr_register.c
00000000 l    df *ABS*	00000000 alt_io_redirect.c
04036930 l     F .text	000000c4 alt_open_fd
00000000 l    df *ABS*	00000000 alt_irq_vars.c
00000000 l    df *ABS*	00000000 alt_tick.c
00000000 l    df *ABS*	00000000 altera_nios2_gen2_irq.c
00000000 l    df *ABS*	00000000 alt_icache_flush.c
00000000 l    df *ABS*	00000000 atexit.c
00000000 l    df *ABS*	00000000 exit.c
00000000 l    df *ABS*	00000000 memcmp.c
00000000 l    df *ABS*	00000000 putc.c
00000000 l    df *ABS*	00000000 __atexit.c
00000000 l    df *ABS*	00000000 __call_atexit.c
00000000 l    df *ABS*	00000000 libgcc2.c
00000000 l    df *ABS*	00000000 alt_exit.c
0403b000 g     O .bss	00000004 alt_instruction_exception_handler
04020ae4 g     F .text	00000074 Camera_Acquisition_Module_SETUP_Length_Frame
0402e0a0 g     F .text	00000074 _mprec_log10
0402e18c g     F .text	0000008c __any_on
0402cd04 g     F .text	00000054 _isatty_r
0403776c g     O .rodata	00000028 __mprec_tinytens
0403474c g     F .text	0000007c alt_main
040262b4 g     F .text	000000c0 _puts_r
0403b02c g     O .bss	00000100 alt_irq
0402ce34 g     F .text	00000060 _lseek_r
040394dc g       *ABS*	00000000 __flash_rwdata_start
0402c79c g     F .text	000000ac __sflags
040335d0 g     F .text	00000088 .hidden __eqdf2
0403b12c g       *ABS*	00000000 __alt_heap_start
04026278 g     F .text	0000003c printf
040317a4 g     F .text	0000009c _wcrtomb_r
04026768 g     F .text	0000005c __sseek
040249b8 g     F .text	00000010 __sinit
04035d10 g     F .text	00000024 alt_get_cpu_freq
0403164c g     F .text	00000140 __swbuf_r
0402cd58 g     F .text	0000007c _setlocale_r
04024820 g     F .text	00000068 __sfmoreglue
040347ec g     F .text	00000024 __malloc_unlock
0402d0c0 g     F .text	0000015c memmove
04035d34 g     F .text	00000280 perf_print_formatted_report
04020d48 g     F .text	000001cc Capture_Image_Computer
040249a0 g     F .text	00000018 _cleanup
04020420 g     F .text	00000104 Test_Accelerator_Grayscale_Image
0402d21c g     F .text	000000a8 _Balloc
04023728 g     F .text	00000070 .hidden __fixsfsi
04033658 g     F .text	000000dc .hidden __gtdf2
04036c14 g     F .text	00000024 altera_nios2_gen2_irq_init
040224fc g     F .text	0000012c i2c_write
04020000 g     F .entry	0000001c __reset
04020020 g       *ABS*	00000000 __flash_exceptions_start
04025414 g     F .text	0000005c _fstat_r
0403afcc g     O .bss	00000004 errno
040266e4 g     F .text	00000008 __seofread
04022070 g     F .text	00000048 init_I2C
0402eafc g     F .text	0000123c ___svfiprintf_internal_r
04020fcc g     F .text	00000118 Extract_Colors
0403afec g     O .bss	00000004 alt_argv
0404149c g       *ABS*	00000000 _gp
04034f18 g     F .text	00000030 usleep
04023244 g     F .text	000004e4 .hidden __subsf3
04020000 g       *ABS*	00000000 __alt_mem_OnChip_Memory
040382bc g     O .rwdata	00000180 alt_fd_list
04036420 g     F .text	00000090 alt_find_dev
0402cf78 g     F .text	00000148 memcpy
04024670 g     F .text	0000000c _cleanup_r
04022770 g     F .text	00000194 i2c_write_array
04023fd4 g     F .text	000000dc .hidden __floatsidf
040369f4 g     F .text	0000007c alt_io_redirect
04033734 g     F .text	000000f4 .hidden __ltdf2
040372d0 g       *ABS*	00000000 __DTOR_END__
04026374 g     F .text	00000014 puts
04036cc8 g     F .text	0000009c alt_exception_cause_generated_bad_addr
0402e7dc g     F .text	00000074 __fpclassifyd
0402dffc g     F .text	000000a4 __ratio
040312a8 g     F .text	0000001c __vfiprintf_internal
04020290 g     F .text	00000104 Test_Accelerator_Grayscale_Table
04035768 g     F .text	0000021c altera_avalon_jtag_uart_read
04026248 g     F .text	00000030 _printf_r
04022c04 g     F .text	00000064 .hidden __udivsi3
040344ac g     F .text	000000a4 isatty
040377bc g     O .rodata	000000c8 __mprec_tens
04020c08 g     F .text	000000d0 Camera_Acquisition_Module_Display_Registers
0402cdd4 g     F .text	0000000c __locale_charset
04020394 g     F .text	0000008c Accelerator_Grayscale_Table
04036c38 g     F .text	00000090 alt_icache_flush
0403afd8 g     O .bss	00000004 __malloc_top_pad
04035cb0 g     F .text	00000040 perf_get_num_starts
040394ac g     O .rwdata	00000004 __mb_cur_max
04021e08 g     F .text	000001f4 Camera_Configuration
0402ce04 g     F .text	0000000c _localeconv_r
0402d628 g     F .text	0000003c __i2b
0402c848 g     F .text	000004bc __sfvwrite_r
04026578 g     F .text	00000054 _sbrk_r
0402e218 g     F .text	00000060 _read_r
040394c4 g     O .rwdata	00000004 alt_max_fd
04020524 g     F .text	0000008c Accelerator_Grayscale_Image
040242bc g     F .text	000000f0 _fclose_r
04024638 g     F .text	00000030 fflush
0403afd4 g     O .bss	00000004 __malloc_max_sbrked_mem
04021cf8 g     F .text	00000110 Image_Grayscale
0403243c g     F .text	000008ac .hidden __adddf3
0402dda4 g     F .text	0000010c __b2d
04031f04 g     F .text	00000538 .hidden __umoddi3
04034678 g     F .text	000000d4 lseek
0403949c g     O .rwdata	00000004 _global_impure_ptr
0402e278 g     F .text	00000564 _realloc_r
0403b12c g       *ABS*	00000000 __bss_end
04036840 g     F .text	000000f0 alt_iic_isr_register
04036b0c g     F .text	00000108 alt_tick
0403198c g     F .text	00000578 .hidden __udivdi3
040315a8 g     F .text	00000024 _fputwc_r
04037794 g     O .rodata	00000028 __mprec_bigtens
0402d40c g     F .text	00000104 __s2b
040341a4 g     F .text	000000a8 .hidden __floatunsidf
0402dae4 g     F .text	00000060 __mcmp
040249d8 g     F .text	00000018 __fp_lock_all
040367f4 g     F .text	0000004c alt_ic_irq_enabled
04036a70 g     F .text	0000009c alt_alarm_stop
0403aff4 g     O .bss	00000004 alt_irq_active
04024fb4 g     F .text	00000444 _fseeko_r
040200fc g     F .exceptions	000000d4 alt_irq_handler
04038294 g     O .rwdata	00000028 alt_dev_null
04020a88 g     F .text	0000005c Camera_Acquisition_Module_SETUP_Address_Memory
04036238 g     F .text	00000048 alt_dcache_flush_all
0402d510 g     F .text	00000068 __hi0bits
04034124 g     F .text	00000080 .hidden __fixdfsi
040394dc g       *ABS*	00000000 __ram_rwdata_end
040394bc g     O .rwdata	00000008 alt_dev_list
04034f84 g     F .text	000000f8 write
04036e2c g     F .text	000000a0 _putc_r
04023188 g     F .text	000000bc .hidden __gtsf2
040379f0 g       *ABS*	00000000 __ram_rodata_end
040343c0 g     F .text	000000b0 fstat
04024b3c g     F .text	00000024 fprintf
040223ec g     F .text	0000002c i2c_inst
04021194 g     F .text	00000724 Gray_Scale
04033734 g     F .text	000000f4 .hidden __ledf2
0402d85c g     F .text	00000140 __pow5mult
0402fe4c g     F .text	0000145c ___vfiprintf_internal_r
0403afe4 g     O .bss	00000004 __nlocale_changed
04022c68 g     F .text	00000058 .hidden __umodsi3
0403b12c g       *ABS*	00000000 end
040253f8 g     F .text	0000001c fseeko
04024f98 g     F .text	0000001c fseek
040352a4 g     F .text	000000c0 altera_avalon_jtag_uart_init
040201d0 g     F .exceptions	00000074 alt_instruction_exception_entry
040372d0 g       *ABS*	00000000 __CTOR_LIST__
04040000 g       *ABS*	00000000 __alt_stack_pointer
04024258 g     F .text	00000064 .hidden __clzsi2
04035984 g     F .text	00000224 altera_avalon_jtag_uart_write
040249c8 g     F .text	00000004 __sfp_lock_acquire
0402ce94 g     F .text	000000e4 memchr
040210e4 g     F .text	000000b0 Partial_Image
04028a3c g     F .text	000021f8 ___vfprintf_internal_r
040265cc g     F .text	00000058 _sprintf_r
04024c84 g     F .text	00000310 _free_r
04034a64 g     F .text	0000022c alt_printf
0402cde0 g     F .text	00000010 __locale_mb_cur_max
040370ac g     F .text	00000180 __call_exitprocs
0403afe0 g     O .bss	00000004 __mlocale_changed
040394a4 g     O .rwdata	00000004 __malloc_sbrk_base
04020244 g     F .text	0000004c _start
0403aff8 g     O .bss	00000004 _alt_tick_rate
0403722c g     F .text	00000070 .hidden __floatundidf
04020f58 g     F .text	00000074 Convert_Pixels
0402d99c g     F .text	00000148 __lshift
0403affc g     O .bss	00000004 _alt_nticks
04034d08 g     F .text	000000fc read
040350e8 g     F .text	00000058 alt_sys_init
04023798 g     F .text	00000124 .hidden __floatsisf
0402e92c g     F .text	000001d0 __ssprint_r
040261e8 g     F .text	00000060 _open_r
0402247c g     F .text	00000080 i2c_configure
04036f94 g     F .text	00000118 __register_exitproc
0402d664 g     F .text	000001f8 __multiply
04035610 g     F .text	00000068 altera_avalon_jtag_uart_close
040379f0 g       *ABS*	00000000 __ram_rwdata_start
040372d0 g       *ABS*	00000000 __ram_rodata_start
0403b004 g     O .bss	00000028 __malloc_current_mallinfo
0402deb0 g     F .text	0000014c __d2b
040220b8 g     F .text	000000c0 Write_and_Read_I2C
04035140 g     F .text	00000060 altera_avalon_jtag_uart_read_fd
040365b8 g     F .text	000000a4 alt_get_fd
040360e0 g     F .text	00000158 alt_busy_sleep
0403afc8 g     O .bss	00000004 i2c
0402aec0 g     F .text	00000054 _close_r
04035ba8 g     F .text	000000bc perf_get_section_time
04020bb0 g     F .text	00000058 Camera_Acquisition_Module_Stop
04036db0 g     F .text	0000007c memcmp
04035200 g     F .text	00000050 altera_avalon_jtag_uart_close_fd
0403b12c g       *ABS*	00000000 __alt_stack_base
04035250 g     F .text	00000054 altera_avalon_jtag_uart_ioctl_fd
040255f8 g     F .text	000000cc _fwrite_r
0402ad6c g     F .text	00000154 __swsetup_r
04032ce8 g     F .text	000008e8 .hidden __divdf3
04024888 g     F .text	00000118 __sfp
0402e114 g     F .text	00000078 __copybits
04035c64 g     F .text	0000004c perf_get_total_time
04037e14 g     O .rwdata	00000408 __malloc_av_
040249d4 g     F .text	00000004 __sinit_lock_release
040238bc g     F .text	00000718 .hidden __muldf3
04026690 g     F .text	00000054 __sread
040364b0 g     F .text	00000108 alt_find_file
040362bc g     F .text	000000a4 alt_dev_llist_insert
04022178 g     F .text	00000088 trdb_d5m_write
040347c8 g     F .text	00000024 __malloc_lock
04024b14 g     F .text	00000028 _fprintf_r
04034e68 g     F .text	000000b0 sbrk
04026864 g     F .text	000021d8 ___svfprintf_internal_r
040245dc g     F .text	0000005c _fflush_r
04031380 g     F .text	000000c4 _calloc_r
04020cd8 g     F .text	00000070 Test_Camera_Memory
04024afc g     F .text	00000018 fopen
0403afc8 g       *ABS*	00000000 __bss_start
040260c0 g     F .text	00000128 memset
04021ffc g     F .text	00000074 main
0403aff0 g     O .bss	00000004 alt_envp
0403afd0 g     O .bss	00000004 __malloc_max_total_mem
040351a0 g     F .text	00000060 altera_avalon_jtag_uart_write_fd
04022628 g     F .text	00000148 i2c_read
0403178c g     F .text	00000018 __swbuf
040267c4 g     F .text	00000008 __sclose
04040000 g       *ABS*	00000000 __alt_heap_limit
040243ac g     F .text	00000014 fclose
040240b0 g     F .text	000001a8 .hidden __truncdfsf2
0402b114 g     F .text	00001688 _dtoa_r
040258b4 g     F .text	0000080c _malloc_r
04031900 g     F .text	00000030 __ascii_wctomb
040394c8 g     O .rwdata	00000004 alt_errno
04025470 g     F .text	000000c4 _fwalk
04020814 g     F .text	00000274 C_Grayscale_Image
04036ecc g     F .text	000000c8 putc
04022b0c g     F .text	00000084 .hidden __divsi3
04024b60 g     F .text	00000124 _malloc_trim_r
040372d0 g       *ABS*	00000000 __CTOR_END__
0402e850 g     F .text	000000dc strcmp
040372d0 g       *ABS*	00000000 __flash_rodata_start
040372d0 g       *ABS*	00000000 __DTOR_LIST__
04020f14 g     F .text	00000044 delay
040335d0 g     F .text	00000088 .hidden __nedf2
040350b0 g     F .text	00000038 alt_irq_init
04034e04 g     F .text	00000064 alt_release_fd
04026624 g     F .text	0000006c sprintf
040375b6 g     O .rodata	00000100 .hidden __clz_tab
0403afdc g     O .bss	00000004 _PathLocale
04036d64 g     F .text	00000014 atexit
04023188 g     F .text	000000bc .hidden __gesf2
0402ad0c g     F .text	00000060 _write_r
0402ce10 g     F .text	00000018 setlocale
040394a0 g     O .rwdata	00000004 _impure_ptr
0403afe8 g     O .bss	00000004 alt_argc
040243c0 g     F .text	0000021c __sflush_r
040363c0 g     F .text	00000060 _do_dtors
0402cdfc g     F .text	00000008 __locale_cjk_lang
00000000 g       *ABS*	00000000 __alt_mem_SDRAM_Controller
04024f94 g     F .text	00000004 _fseek_r
04022418 g     F .text	00000064 i2c_init
040263a4 g     F .text	000001d4 __srefill_r
04020020 g       .exceptions	00000000 alt_irq_entry
0402dd40 g     F .text	00000064 __ulp
040249f0 g     F .text	00000018 __fp_unlock_all
040394b4 g     O .rwdata	00000008 alt_fs_list
04020020 g       *ABS*	00000000 __ram_exceptions_start
0402ce28 g     F .text	0000000c localeconv
04036690 g     F .text	00000050 alt_ic_isr_register
040256c4 g     F .text	00000034 fwrite
040394dc g       *ABS*	00000000 _edata
0403b12c g       *ABS*	00000000 _end
04031444 g     F .text	00000164 __fputwc
04020244 g       *ABS*	00000000 __ram_exceptions_end
04035678 g     F .text	000000f0 altera_avalon_jtag_uart_ioctl
040218b8 g     F .text	000001c4 RGB_Flag
04022200 g     F .text	000000a0 trdb_d5m_read
04036768 g     F .text	0000008c alt_ic_irq_disable
040266ec g     F .text	0000007c __swrite
040394a8 g     O .rwdata	00000004 __malloc_trim_threshold
04035cf0 g     F .text	00000020 alt_get_performance_counter_base
0402cdf0 g     F .text	0000000c __locale_msgcharset
04036d78 g     F .text	00000038 exit
04025534 g     F .text	000000c4 _fwalk_reent
0402db44 g     F .text	000001fc __mdiff
04022b90 g     F .text	00000074 .hidden __modsi3
04040000 g       *ABS*	00000000 __alt_data_end
04020020 g     F .exceptions	00000000 alt_exception
040249cc g     F .text	00000004 __sfp_lock_release
04022aac g     F .text	00000060 .hidden __fixunssfsi
04024a08 g     F .text	000000f4 _fopen_r
0403729c g     F .text	00000034 _exit
04035fb4 g     F .text	0000012c alt_alarm_start
040256f8 g     F .text	000001bc __smakebuf_r
04022904 g     F .text	000001a8 i2c_read_array
040267cc g     F .text	00000098 strlen
04034910 g     F .text	00000154 open
04033658 g     F .text	000000dc .hidden __gedf2
04034c90 g     F .text	0000003c alt_putchar
040394b0 g     O .rwdata	00000004 __wctomb
0402fe34 g     F .text	00000018 __sprint_r
0403665c g     F .text	00000034 alt_icache_flush_all
040394d0 g     O .rwdata	00000004 alt_priority_mask
040366e0 g     F .text	00000088 alt_ic_irq_enable
0402ac34 g     F .text	0000001c __vfprintf_internal
04031930 g     F .text	0000005c _wctomb_r
04033828 g     F .text	000008fc .hidden __subdf3
0402d578 g     F .text	000000b0 __lo0bits
040394d4 g     O .rwdata	00000008 alt_alarm_list
04036360 g     F .text	00000060 _do_ctors
04031840 g     F .text	000000c0 wcrtomb
040205b0 g     F .text	00000264 C_Grayscale_Table
04020b58 g     F .text	00000058 Camera_Acquisition_Module_Start
04034288 g     F .text	000000d0 close
04022cc0 g     F .text	000004c8 .hidden __addsf3
040345b8 g     F .text	00000084 alt_load
040315cc g     F .text	00000080 fputwc
040249d0 g     F .text	00000004 __sinit_lock_acquire
0402d2ec g     F .text	00000120 __multadd
0402d2c4 g     F .text	00000028 _Bfree



Disassembly of section .entry:

04020000 <__reset>:
#if NIOS2_ICACHE_SIZE > 0 && defined(ALT_ALLOW_CODE_AT_RESET) && (!defined(ALT_SIM_OPTIMIZE) || defined(NIOS2_ECC_PRESENT))
    /* Assume the instruction cache size is always a power of two. */
#if NIOS2_ICACHE_SIZE > 0x8000
    movhi r2, %hi(NIOS2_ICACHE_SIZE)
#else
    movui r2, NIOS2_ICACHE_SIZE
 4020000:	00840014 	movui	r2,4096
#endif

0:
    initi r2
 4020004:	1001483a 	initi	r2
    addi r2, r2, -NIOS2_ICACHE_LINE_SIZE
 4020008:	10bff804 	addi	r2,r2,-32
    bgt r2, zero, 0b
 402000c:	00bffd16 	blt	zero,r2,4020004 <_gp+0xfffdeb68>
 * Jump to the _start entry point in the .text section if reset code
 * is allowed or if optimizing for RTL simulation.
 */
#if defined(ALT_ALLOW_CODE_AT_RESET) || defined(ALT_SIM_OPTIMIZE)
    /* Jump to the _start entry point in the .text section. */
    movhi r1, %hi(_start)
 4020010:	004100b4 	movhi	at,1026
    ori r1, r1, %lo(_start)
 4020014:	08409114 	ori	at,at,580
    jmp r1
 4020018:	0800683a 	jmp	at
 402001c:	00000000 	call	0 <__alt_mem_SDRAM_Controller>

Disassembly of section .exceptions:

04020020 <alt_exception>:

#else /* ALT_EXCEPTION_STACK disabled */
        /* 
         * Reserve space on normal stack for registers about to be pushed.
         */
        addi  sp, sp, -76
 4020020:	deffed04 	addi	sp,sp,-76
         * documentation for details).
         *
         * Leave a gap in the stack frame at 4(sp) for the muldiv handler to
         * store zero into.
         */
        stw   ra,  0(sp)
 4020024:	dfc00015 	stw	ra,0(sp)
        stw   r1,   8(sp)
 4020028:	d8400215 	stw	at,8(sp)
        stw   r2,  12(sp)
 402002c:	d8800315 	stw	r2,12(sp)
        stw   r3,  16(sp)
 4020030:	d8c00415 	stw	r3,16(sp)
        stw   r4,  20(sp)
 4020034:	d9000515 	stw	r4,20(sp)
        stw   r5,  24(sp)
 4020038:	d9400615 	stw	r5,24(sp)
        stw   r6,  28(sp)
 402003c:	d9800715 	stw	r6,28(sp)
        stw   r7,  32(sp)
 4020040:	d9c00815 	stw	r7,32(sp)
        rdctl r5, estatus   /* Read early to avoid usage stall */
 4020044:	000b307a 	rdctl	r5,estatus
        stw   r8,  36(sp)
 4020048:	da000915 	stw	r8,36(sp)
        stw   r9,  40(sp)
 402004c:	da400a15 	stw	r9,40(sp)
        stw   r10, 44(sp)
 4020050:	da800b15 	stw	r10,44(sp)
        stw   r11, 48(sp)
 4020054:	dac00c15 	stw	r11,48(sp)
        stw   r12, 52(sp)
 4020058:	db000d15 	stw	r12,52(sp)
        stw   r13, 56(sp)
 402005c:	db400e15 	stw	r13,56(sp)
        stw   r14, 60(sp)
 4020060:	db800f15 	stw	r14,60(sp)
        stw   r15, 64(sp)
 4020064:	dbc01015 	stw	r15,64(sp)
        /*
         * ea-4 contains the address of the instruction being executed
         * when the exception occured. For interrupt exceptions, we will
         * will be re-issue the isntruction. Store it in 72(sp)
         */
        stw   r5,  68(sp)  /* estatus */
 4020068:	d9401115 	stw	r5,68(sp)
        addi  r15, ea, -4  /* instruction that caused exception */
 402006c:	ebffff04 	addi	r15,ea,-4
        stw   r15,  72(sp)
 4020070:	dbc01215 	stw	r15,72(sp)
#else
        /*
         * Test to see if the exception was a software exception or caused 
         * by an external interrupt, and vector accordingly.
         */
        rdctl r4, ipending
 4020074:	0009313a 	rdctl	r4,ipending
        andi  r2, r5, 1
 4020078:	2880004c 	andi	r2,r5,1
        beq   r2, zero, .Lnot_irq
 402007c:	10000326 	beq	r2,zero,402008c <alt_exception+0x6c>
        beq   r4, zero, .Lnot_irq
 4020080:	20000226 	beq	r4,zero,402008c <alt_exception+0x6c>
        /*
         * Now that all necessary registers have been preserved, call 
         * alt_irq_handler() to process the interrupts.
         */

        call alt_irq_handler
 4020084:	40200fc0 	call	40200fc <alt_irq_handler>

        .section .exceptions.irqreturn, "xa"

        br    .Lexception_exit
 4020088:	00000706 	br	40200a8 <alt_exception+0x88>
         * upon completion, so we write ea (address of instruction *after*
         * the one where the exception occured) into 72(sp). The actual
         * instruction that caused the exception is written in r2, which these
         * handlers will utilize.
         */
        stw ea, 72(sp) /* EA is PC+4 so will skip over instruction causing exception */
 402008c:	df401215 	stw	ea,72(sp)
.Lunknown_16bit:
        addi.n r4, r4, 2 /* Need PC+2 to skip over instruction causing exception */
        stw r4, 72(sp)

#else /* CDX is not Enabled and all instructions are 32bits */
        ldw r2, -4(ea) /* Instruction value that caused exception */
 4020090:	e8bfff17 	ldw	r2,-4(ea)
         * debugger is present) or go into an infinite loop since the
         * handling behavior is undefined; in that case we will not return here.
         */

        /* Load exception-causing address as first argument (r4) */
        addi   r4, ea, -4
 4020094:	e93fff04 	addi	r4,ea,-4

        /* Call the instruction-exception entry */
        call   alt_instruction_exception_entry
 4020098:	40201d00 	call	40201d0 <alt_instruction_exception_entry>
         * instruction
         *
         * Return code was 0: Skip. The instruction after the exception is
         * already stored in 72(sp).
         */
        bne   r2, r0, .Lexception_exit
 402009c:	1000021e 	bne	r2,zero,40200a8 <alt_exception+0x88>

        /*
         * Otherwise, modify 72(sp) to re-issue the instruction that caused the
         * exception.
         */
        addi  r15, ea, -4  /* instruction that caused exception */
 40200a0:	ebffff04 	addi	r15,ea,-4
        stw   r15,  72(sp)
 40200a4:	dbc01215 	stw	r15,72(sp)
        /* 
         * Restore the saved registers, so that all general purpose registers 
         * have been restored to their state at the time the interrupt occured.
         */

        ldw   r5,  68(sp)
 40200a8:	d9401117 	ldw	r5,68(sp)
        ldw   ea,  72(sp)  /* This becomes the PC once eret is executed */
 40200ac:	df401217 	ldw	ea,72(sp)
        ldw   ra,   0(sp)
 40200b0:	dfc00017 	ldw	ra,0(sp)

        wrctl estatus, r5
 40200b4:	2801707a 	wrctl	estatus,r5

        ldw   r1,   8(sp)
 40200b8:	d8400217 	ldw	at,8(sp)
        ldw   r2,  12(sp)
 40200bc:	d8800317 	ldw	r2,12(sp)
        ldw   r3,  16(sp)
 40200c0:	d8c00417 	ldw	r3,16(sp)
        ldw   r4,  20(sp)
 40200c4:	d9000517 	ldw	r4,20(sp)
        ldw   r5,  24(sp)
 40200c8:	d9400617 	ldw	r5,24(sp)
        ldw   r6,  28(sp)
 40200cc:	d9800717 	ldw	r6,28(sp)
        ldw   r7,  32(sp)
 40200d0:	d9c00817 	ldw	r7,32(sp)

#if defined(ALT_EXCEPTION_STACK) && defined(ALT_STACK_CHECK)
        ldw   et, %gprel(alt_exception_old_stack_limit)(gp)
#endif

        ldw   r8,  36(sp)
 40200d4:	da000917 	ldw	r8,36(sp)
        ldw   r9,  40(sp)
 40200d8:	da400a17 	ldw	r9,40(sp)
        ldw   r10, 44(sp)
 40200dc:	da800b17 	ldw	r10,44(sp)
        ldw   r11, 48(sp)
 40200e0:	dac00c17 	ldw	r11,48(sp)
        ldw   r12, 52(sp)
 40200e4:	db000d17 	ldw	r12,52(sp)
        ldw   r13, 56(sp)
 40200e8:	db400e17 	ldw	r13,56(sp)
        ldw   r14, 60(sp)
 40200ec:	db800f17 	ldw	r14,60(sp)
        ldw   r15, 64(sp)
 40200f0:	dbc01017 	ldw	r15,64(sp)
        stw   et, %gprel(alt_stack_limit_value)(gp)
        stw   zero, %gprel(alt_exception_old_stack_limit)(gp)
#endif /* ALT_STACK_CHECK */
        ldw   sp,  76(sp)
#else /* ALT_EXCEPTION_STACK disabled */
        addi  sp, sp, 76
 40200f4:	dec01304 	addi	sp,sp,76

        /*
         * Return to the interrupted instruction.
         */

        eret
 40200f8:	ef80083a 	eret

040200fc <alt_irq_handler>:
 * instruction is present if the macro ALT_CI_INTERRUPT_VECTOR defined.
 */

void alt_irq_handler (void) __attribute__ ((section (".exceptions")));
void alt_irq_handler (void)
{
 40200fc:	defff904 	addi	sp,sp,-28
 4020100:	dfc00615 	stw	ra,24(sp)
 4020104:	df000515 	stw	fp,20(sp)
 4020108:	df000504 	addi	fp,sp,20
  
  /*
   * Notify the operating system that we are at interrupt level.
   */ 
  
  ALT_OS_INT_ENTER();
 402010c:	0001883a 	nop
#ifndef NIOS2_EIC_PRESENT
static ALT_INLINE alt_u32 ALT_ALWAYS_INLINE alt_irq_pending (void)
{
  alt_u32 active;

  NIOS2_READ_IPENDING (active);
 4020110:	0005313a 	rdctl	r2,ipending
 4020114:	e0bffe15 	stw	r2,-8(fp)

  return active;
 4020118:	e0bffe17 	ldw	r2,-8(fp)
   * Consider the case where the high priority interupt is asserted during
   * the interrupt entry sequence for a lower priority interrupt to see why
   * this is the case.
   */

  active = alt_irq_pending ();
 402011c:	e0bffb15 	stw	r2,-20(fp)

  do
  {
    i = 0;
 4020120:	e03ffd15 	stw	zero,-12(fp)
    mask = 1;
 4020124:	00800044 	movi	r2,1
 4020128:	e0bffc15 	stw	r2,-16(fp)
     * called to clear the interrupt condition.
     */

    do
    {
      if (active & mask)
 402012c:	e0fffb17 	ldw	r3,-20(fp)
 4020130:	e0bffc17 	ldw	r2,-16(fp)
 4020134:	1884703a 	and	r2,r3,r2
 4020138:	10001426 	beq	r2,zero,402018c <alt_irq_handler+0x90>
      { 
#ifdef ALT_ENHANCED_INTERRUPT_API_PRESENT
        alt_irq[i].handler(alt_irq[i].context); 
 402013c:	00810134 	movhi	r2,1028
 4020140:	10ac0b04 	addi	r2,r2,-20436
 4020144:	e0fffd17 	ldw	r3,-12(fp)
 4020148:	180690fa 	slli	r3,r3,3
 402014c:	10c5883a 	add	r2,r2,r3
 4020150:	10c00017 	ldw	r3,0(r2)
 4020154:	00810134 	movhi	r2,1028
 4020158:	10ac0b04 	addi	r2,r2,-20436
 402015c:	e13ffd17 	ldw	r4,-12(fp)
 4020160:	200890fa 	slli	r4,r4,3
 4020164:	1105883a 	add	r2,r2,r4
 4020168:	10800104 	addi	r2,r2,4
 402016c:	10800017 	ldw	r2,0(r2)
 4020170:	1009883a 	mov	r4,r2
 4020174:	183ee83a 	callr	r3
#else
        alt_irq[i].handler(alt_irq[i].context, i); 
#endif
        break;
 4020178:	0001883a 	nop
#ifndef NIOS2_EIC_PRESENT
static ALT_INLINE alt_u32 ALT_ALWAYS_INLINE alt_irq_pending (void)
{
  alt_u32 active;

  NIOS2_READ_IPENDING (active);
 402017c:	0005313a 	rdctl	r2,ipending
 4020180:	e0bfff15 	stw	r2,-4(fp)

  return active;
 4020184:	e0bfff17 	ldw	r2,-4(fp)
 4020188:	00000706 	br	40201a8 <alt_irq_handler+0xac>
      }
      mask <<= 1;
 402018c:	e0bffc17 	ldw	r2,-16(fp)
 4020190:	1085883a 	add	r2,r2,r2
 4020194:	e0bffc15 	stw	r2,-16(fp)
      i++;
 4020198:	e0bffd17 	ldw	r2,-12(fp)
 402019c:	10800044 	addi	r2,r2,1
 40201a0:	e0bffd15 	stw	r2,-12(fp)

    } while (1);
 40201a4:	003fe106 	br	402012c <_gp+0xfffdec90>

    active = alt_irq_pending ();
 40201a8:	e0bffb15 	stw	r2,-20(fp)
    
  } while (active);
 40201ac:	e0bffb17 	ldw	r2,-20(fp)
 40201b0:	103fdb1e 	bne	r2,zero,4020120 <_gp+0xfffdec84>

  /*
   * Notify the operating system that interrupt processing is complete.
   */ 

  ALT_OS_INT_EXIT();
 40201b4:	0001883a 	nop
}
 40201b8:	0001883a 	nop
 40201bc:	e037883a 	mov	sp,fp
 40201c0:	dfc00117 	ldw	ra,4(sp)
 40201c4:	df000017 	ldw	fp,0(sp)
 40201c8:	dec00204 	addi	sp,sp,8
 40201cc:	f800283a 	ret

040201d0 <alt_instruction_exception_entry>:
 * that handler if it has been registered. Absent a handler, it will
 * break break or hang as discussed below.
 */
int 
alt_instruction_exception_entry (alt_u32 exception_pc)
{
 40201d0:	defffb04 	addi	sp,sp,-20
 40201d4:	dfc00415 	stw	ra,16(sp)
 40201d8:	df000315 	stw	fp,12(sp)
 40201dc:	df000304 	addi	fp,sp,12
 40201e0:	e13fff15 	stw	r4,-4(fp)
 * NIOS2_EXCEPTION_CAUSE_NOT_PRESENT. Your handling routine should
 * check the validity of the cause argument before proceeding.
 */
#ifdef NIOS2_HAS_EXTRA_EXCEPTION_INFO
  /* Get exception cause & "badaddr" */
  NIOS2_READ_EXCEPTION(cause);
 40201e4:	000531fa 	rdctl	r2,exception
 40201e8:	e0bffd15 	stw	r2,-12(fp)
  cause = ( (cause & NIOS2_EXCEPTION_REG_CAUSE_MASK) >>
 40201ec:	e0bffd17 	ldw	r2,-12(fp)
 40201f0:	10801f0c 	andi	r2,r2,124
 40201f4:	1004d0ba 	srli	r2,r2,2
 40201f8:	e0bffd15 	stw	r2,-12(fp)
              NIOS2_EXCEPTION_REG_CAUSE_OFST );

  NIOS2_READ_BADADDR(badaddr);
 40201fc:	0005333a 	rdctl	r2,badaddr
 4020200:	e0bffe15 	stw	r2,-8(fp)
#else
  cause = NIOS2_EXCEPTION_CAUSE_NOT_PRESENT;
  badaddr = 0;
#endif /* NIOS2_HAS_EXTRA_EXCEPTION_INFO */

  if(alt_instruction_exception_handler) {
 4020204:	d0a6d917 	ldw	r2,-25756(gp)
 4020208:	10000726 	beq	r2,zero,4020228 <alt_instruction_exception_entry+0x58>
     * Call handler. Its return value indicates whether the exception-causing
     * instruction should be re-issued. The code that called us,
     * alt_eceptions_entry.S, will look at this value and adjust the ea
     * register as necessary
     */
    return alt_instruction_exception_handler(cause, exception_pc, badaddr);
 402020c:	d0a6d917 	ldw	r2,-25756(gp)
 4020210:	e0fffd17 	ldw	r3,-12(fp)
 4020214:	e1bffe17 	ldw	r6,-8(fp)
 4020218:	e17fff17 	ldw	r5,-4(fp)
 402021c:	1809883a 	mov	r4,r3
 4020220:	103ee83a 	callr	r2
 4020224:	00000206 	br	4020230 <alt_instruction_exception_entry+0x60>
   *    (a peripheral which negates its interrupt output before its
   *    interrupt handler has been executed will cause spurious interrupts)
   */
  else {
#ifdef NIOS2_HAS_DEBUG_STUB
    NIOS2_BREAK();
 4020228:	003da03a 	break	0
      ;
#endif /* NIOS2_HAS_DEBUG_STUB */
  }

  /* We should not get here. Remove compiler warning. */
  return NIOS2_EXCEPTION_RETURN_REISSUE_INST;
 402022c:	0005883a 	mov	r2,zero
}
 4020230:	e037883a 	mov	sp,fp
 4020234:	dfc00117 	ldw	ra,4(sp)
 4020238:	df000017 	ldw	fp,0(sp)
 402023c:	dec00204 	addi	sp,sp,8
 4020240:	f800283a 	ret

Disassembly of section .text:

04020244 <_start>:

    /* Assume the data cache size is always a power of two. */
#if NIOS2_DCACHE_SIZE > 0x8000
    movhi r2, %hi(NIOS2_DCACHE_SIZE)
#else
    movui r2, NIOS2_DCACHE_SIZE
 4020244:	00820014 	movui	r2,2048
#endif

0:
    initd 0(r2)
 4020248:	10000033 	initd	0(r2)
#ifdef NIOS2_ECC_PRESENT
    addi r2, r2, -4
#else
    addi r2, r2, -NIOS2_DCACHE_LINE_SIZE
 402024c:	10bff804 	addi	r2,r2,-32
#endif
    bgt r2, zero, 0b
 4020250:	00bffd16 	blt	zero,r2,4020248 <_gp+0xfffdedac>

    /*
     * Now that the caches are initialized, set up the stack pointer and global pointer.
     * The values provided by the linker are assumed to be correctly aligned.
     */
    movhi sp, %hi(__alt_stack_pointer)
 4020254:	06c10134 	movhi	sp,1028
    ori sp, sp, %lo(__alt_stack_pointer)
 4020258:	dec00014 	ori	sp,sp,0
    movhi gp, %hi(_gp)
 402025c:	06810134 	movhi	gp,1028
    ori gp, gp, %lo(_gp)
 4020260:	d6852714 	ori	gp,gp,5276
 */
#ifndef ALT_SIM_OPTIMIZE
    /* Log that the BSS is about to be cleared. */
    ALT_LOG_PUTS(alt_log_msg_bss)

    movhi r2, %hi(__bss_start)
 4020264:	008100f4 	movhi	r2,1027
    ori r2, r2, %lo(__bss_start)
 4020268:	10abf214 	ori	r2,r2,45000

    movhi r3, %hi(__bss_end)
 402026c:	00c100f4 	movhi	r3,1027
    ori r3, r3, %lo(__bss_end)
 4020270:	18ec4b14 	ori	r3,r3,45356

    beq r2, r3, 1f
 4020274:	10c00326 	beq	r2,r3,4020284 <_start+0x40>

0:
    stw zero, (r2)
 4020278:	10000015 	stw	zero,0(r2)
    addi r2, r2, 4
 402027c:	10800104 	addi	r2,r2,4
    bltu r2, r3, 0b
 4020280:	10fffd36 	bltu	r2,r3,4020278 <_gp+0xfffdeddc>
     * section aren't defined until alt_load() has been called).
     */
    mov   et, zero
#endif

    call alt_load
 4020284:	40345b80 	call	40345b8 <alt_load>

    /* Log that alt_main is about to be called. */
    ALT_LOG_PUTS(alt_log_msg_alt_main)

    /* Call the C entry point. It should never return. */
    call alt_main
 4020288:	403474c0 	call	403474c <alt_main>

0402028c <alt_after_alt_main>:

    /* Wait in infinite loop in case alt_main does return. */
alt_after_alt_main:
    br alt_after_alt_main
 402028c:	003fff06 	br	402028c <_gp+0xfffdedf0>

04020290 <Test_Accelerator_Grayscale_Table>:
#include "Function_Header.h"

//------------------------------------------------------------------------------------------------

void Test_Accelerator_Grayscale_Table(uint16_t *Address, uint32_t Length_Address)
{
 4020290:	defffb04 	addi	sp,sp,-20
 4020294:	dfc00415 	stw	ra,16(sp)
 4020298:	df000315 	stw	fp,12(sp)
 402029c:	df000304 	addi	fp,sp,12
 40202a0:	e13ffe15 	stw	r4,-8(fp)
 40202a4:	e17fff15 	stw	r5,-4(fp)
	 * uint16_t *Address       : The address of the first pixel data in the memory.
	 * uint32_t Length_Address : The length of the addresses (or (n_pixels-1)*2) in byte.
	 */

	// Initialize the address:
	IOWR_32DIRECT(ACCELERATOR_GRAYSCALE_0_BASE, REGADDRESS, Address);
 40202a8:	e0fffe17 	ldw	r3,-8(fp)
 40202ac:	00810134 	movhi	r2,1028
 40202b0:	10841104 	addi	r2,r2,4164
 40202b4:	10c00035 	stwio	r3,0(r2)
	alt_printf("RegAddress = 0x%x\n", IORD_32DIRECT(ACCELERATOR_GRAYSCALE_0_BASE, REGADDRESS));
 40202b8:	00810134 	movhi	r2,1028
 40202bc:	10841104 	addi	r2,r2,4164
 40202c0:	10800037 	ldwio	r2,0(r2)
 40202c4:	100b883a 	mov	r5,r2
 40202c8:	010100f4 	movhi	r4,1027
 40202cc:	211cb404 	addi	r4,r4,29392
 40202d0:	4034a640 	call	4034a64 <alt_printf>

	// Initialize the length:
	IOWR_32DIRECT(ACCELERATOR_GRAYSCALE_0_BASE, REGLENGTHADDRESS, Length_Address);
 40202d4:	e0ffff17 	ldw	r3,-4(fp)
 40202d8:	00810134 	movhi	r2,1028
 40202dc:	10841204 	addi	r2,r2,4168
 40202e0:	10c00035 	stwio	r3,0(r2)
	alt_printf("RegLength_Address = 0x%x\n", IORD_32DIRECT(ACCELERATOR_GRAYSCALE_0_BASE, REGLENGTHADDRESS));
 40202e4:	00810134 	movhi	r2,1028
 40202e8:	10841204 	addi	r2,r2,4168
 40202ec:	10800037 	ldwio	r2,0(r2)
 40202f0:	100b883a 	mov	r5,r2
 40202f4:	010100f4 	movhi	r4,1027
 40202f8:	211cb904 	addi	r4,r4,29412
 40202fc:	4034a640 	call	4034a64 <alt_printf>

	// Enable:
	IOWR_8DIRECT(ACCELERATOR_GRAYSCALE_0_BASE, REGCOMMAND, ENABLE);
 4020300:	00c00044 	movi	r3,1
 4020304:	00810134 	movhi	r2,1028
 4020308:	10841004 	addi	r2,r2,4160
 402030c:	10c00025 	stbio	r3,0(r2)

	// Wait that the task is done:
	uint8_t Check = IORD_8DIRECT(ACCELERATOR_GRAYSCALE_0_BASE, REGCOMMAND);
 4020310:	00810134 	movhi	r2,1028
 4020314:	10841004 	addi	r2,r2,4160
 4020318:	10800023 	ldbuio	r2,0(r2)
 402031c:	10803fcc 	andi	r2,r2,255
 4020320:	e0bffd05 	stb	r2,-12(fp)
	while(Check != 0)
 4020324:	00000506 	br	402033c <Test_Accelerator_Grayscale_Table+0xac>
	{
		Check = IORD_8DIRECT(ACCELERATOR_GRAYSCALE_0_BASE, REGCOMMAND);
 4020328:	00810134 	movhi	r2,1028
 402032c:	10841004 	addi	r2,r2,4160
 4020330:	10800023 	ldbuio	r2,0(r2)
 4020334:	10803fcc 	andi	r2,r2,255
 4020338:	e0bffd05 	stb	r2,-12(fp)
	// Enable:
	IOWR_8DIRECT(ACCELERATOR_GRAYSCALE_0_BASE, REGCOMMAND, ENABLE);

	// Wait that the task is done:
	uint8_t Check = IORD_8DIRECT(ACCELERATOR_GRAYSCALE_0_BASE, REGCOMMAND);
	while(Check != 0)
 402033c:	e0bffd03 	ldbu	r2,-12(fp)
 4020340:	103ff91e 	bne	r2,zero,4020328 <_gp+0xfffdee8c>
	{
		Check = IORD_8DIRECT(ACCELERATOR_GRAYSCALE_0_BASE, REGCOMMAND);
	}

	// Check DataRead and DataWrite:
	alt_printf("RegData_Read = 0x%x\n", IORD_32DIRECT(ACCELERATOR_GRAYSCALE_0_BASE, REGDATAREAD));
 4020344:	00810134 	movhi	r2,1028
 4020348:	10841304 	addi	r2,r2,4172
 402034c:	10800037 	ldwio	r2,0(r2)
 4020350:	100b883a 	mov	r5,r2
 4020354:	010100f4 	movhi	r4,1027
 4020358:	211cc004 	addi	r4,r4,29440
 402035c:	4034a640 	call	4034a64 <alt_printf>
	alt_printf("RegData_Write = 0x%x\n", IORD_32DIRECT(ACCELERATOR_GRAYSCALE_0_BASE, REGDATAWRITE));
 4020360:	00810134 	movhi	r2,1028
 4020364:	10841404 	addi	r2,r2,4176
 4020368:	10800037 	ldwio	r2,0(r2)
 402036c:	100b883a 	mov	r5,r2
 4020370:	010100f4 	movhi	r4,1027
 4020374:	211cc604 	addi	r4,r4,29464
 4020378:	4034a640 	call	4034a64 <alt_printf>
}
 402037c:	0001883a 	nop
 4020380:	e037883a 	mov	sp,fp
 4020384:	dfc00117 	ldw	ra,4(sp)
 4020388:	df000017 	ldw	fp,0(sp)
 402038c:	dec00204 	addi	sp,sp,8
 4020390:	f800283a 	ret

04020394 <Accelerator_Grayscale_Table>:

//------------------------------------------------------------------------------------------------

void Accelerator_Grayscale_Table(uint16_t *Address, uint32_t Length_Address)
{
 4020394:	defffc04 	addi	sp,sp,-16
 4020398:	df000315 	stw	fp,12(sp)
 402039c:	df000304 	addi	fp,sp,12
 40203a0:	e13ffe15 	stw	r4,-8(fp)
 40203a4:	e17fff15 	stw	r5,-4(fp)
	 * uint32_t *Address       : The address of the first variable in the memory.
	 * uint32_t Length_Address : The length of the addresses (or (n_pixels-1)*2) in byte.
	 */

	// Initialize the address:
	IOWR_32DIRECT(ACCELERATOR_GRAYSCALE_0_BASE, REGADDRESS, Address);
 40203a8:	e0fffe17 	ldw	r3,-8(fp)
 40203ac:	00810134 	movhi	r2,1028
 40203b0:	10841104 	addi	r2,r2,4164
 40203b4:	10c00035 	stwio	r3,0(r2)

	// Initialize the length:
	IOWR_32DIRECT(ACCELERATOR_GRAYSCALE_0_BASE, REGLENGTHADDRESS, Length_Address);
 40203b8:	e0ffff17 	ldw	r3,-4(fp)
 40203bc:	00810134 	movhi	r2,1028
 40203c0:	10841204 	addi	r2,r2,4168
 40203c4:	10c00035 	stwio	r3,0(r2)

	// Enable:
	IOWR_8DIRECT(ACCELERATOR_GRAYSCALE_0_BASE, REGCOMMAND, ENABLE);
 40203c8:	00c00044 	movi	r3,1
 40203cc:	00810134 	movhi	r2,1028
 40203d0:	10841004 	addi	r2,r2,4160
 40203d4:	10c00025 	stbio	r3,0(r2)

	// Wait that the task is done:
	uint8_t Check = IORD_8DIRECT(ACCELERATOR_GRAYSCALE_0_BASE, REGCOMMAND);
 40203d8:	00810134 	movhi	r2,1028
 40203dc:	10841004 	addi	r2,r2,4160
 40203e0:	10800023 	ldbuio	r2,0(r2)
 40203e4:	10803fcc 	andi	r2,r2,255
 40203e8:	e0bffd05 	stb	r2,-12(fp)
	while(Check != 0)
 40203ec:	00000506 	br	4020404 <Accelerator_Grayscale_Table+0x70>
	{
		Check = IORD_8DIRECT(ACCELERATOR_GRAYSCALE_0_BASE, REGCOMMAND);
 40203f0:	00810134 	movhi	r2,1028
 40203f4:	10841004 	addi	r2,r2,4160
 40203f8:	10800023 	ldbuio	r2,0(r2)
 40203fc:	10803fcc 	andi	r2,r2,255
 4020400:	e0bffd05 	stb	r2,-12(fp)
	// Enable:
	IOWR_8DIRECT(ACCELERATOR_GRAYSCALE_0_BASE, REGCOMMAND, ENABLE);

	// Wait that the task is done:
	uint8_t Check = IORD_8DIRECT(ACCELERATOR_GRAYSCALE_0_BASE, REGCOMMAND);
	while(Check != 0)
 4020404:	e0bffd03 	ldbu	r2,-12(fp)
 4020408:	103ff91e 	bne	r2,zero,40203f0 <_gp+0xfffdef54>
	{
		Check = IORD_8DIRECT(ACCELERATOR_GRAYSCALE_0_BASE, REGCOMMAND);
	}
}
 402040c:	0001883a 	nop
 4020410:	e037883a 	mov	sp,fp
 4020414:	df000017 	ldw	fp,0(sp)
 4020418:	dec00104 	addi	sp,sp,4
 402041c:	f800283a 	ret

04020420 <Test_Accelerator_Grayscale_Image>:

//------------------------------------------------------------------------------------------------

void Test_Accelerator_Grayscale_Image(int Address, int Length_Address)
{
 4020420:	defffb04 	addi	sp,sp,-20
 4020424:	dfc00415 	stw	ra,16(sp)
 4020428:	df000315 	stw	fp,12(sp)
 402042c:	df000304 	addi	fp,sp,12
 4020430:	e13ffe15 	stw	r4,-8(fp)
 4020434:	e17fff15 	stw	r5,-4(fp)
	 * int Address        : The address of the first pixel data in the memory.
	 * int Length_Address : The length of the addresses (or (n_pixels-1)*2) in byte.
	 */

	// Initialize the address:
	IOWR_32DIRECT(ACCELERATOR_GRAYSCALE_0_BASE, REGADDRESS, Address);
 4020438:	00810134 	movhi	r2,1028
 402043c:	10841104 	addi	r2,r2,4164
 4020440:	e0fffe17 	ldw	r3,-8(fp)
 4020444:	10c00035 	stwio	r3,0(r2)
	alt_printf("RegAddress = 0x%x\n", IORD_32DIRECT(ACCELERATOR_GRAYSCALE_0_BASE, REGADDRESS));
 4020448:	00810134 	movhi	r2,1028
 402044c:	10841104 	addi	r2,r2,4164
 4020450:	10800037 	ldwio	r2,0(r2)
 4020454:	100b883a 	mov	r5,r2
 4020458:	010100f4 	movhi	r4,1027
 402045c:	211cb404 	addi	r4,r4,29392
 4020460:	4034a640 	call	4034a64 <alt_printf>

	// Initialize the length:
	IOWR_32DIRECT(ACCELERATOR_GRAYSCALE_0_BASE, REGLENGTHADDRESS, Length_Address);
 4020464:	00810134 	movhi	r2,1028
 4020468:	10841204 	addi	r2,r2,4168
 402046c:	e0ffff17 	ldw	r3,-4(fp)
 4020470:	10c00035 	stwio	r3,0(r2)
	alt_printf("RegLength_Address = 0x%x\n", IORD_32DIRECT(ACCELERATOR_GRAYSCALE_0_BASE, REGLENGTHADDRESS));
 4020474:	00810134 	movhi	r2,1028
 4020478:	10841204 	addi	r2,r2,4168
 402047c:	10800037 	ldwio	r2,0(r2)
 4020480:	100b883a 	mov	r5,r2
 4020484:	010100f4 	movhi	r4,1027
 4020488:	211cb904 	addi	r4,r4,29412
 402048c:	4034a640 	call	4034a64 <alt_printf>

	// Enable:
	IOWR_8DIRECT(ACCELERATOR_GRAYSCALE_0_BASE, REGCOMMAND, ENABLE);
 4020490:	00c00044 	movi	r3,1
 4020494:	00810134 	movhi	r2,1028
 4020498:	10841004 	addi	r2,r2,4160
 402049c:	10c00025 	stbio	r3,0(r2)

	// Wait that the task is done:
	uint8_t Check = IORD_8DIRECT(ACCELERATOR_GRAYSCALE_0_BASE, REGCOMMAND);
 40204a0:	00810134 	movhi	r2,1028
 40204a4:	10841004 	addi	r2,r2,4160
 40204a8:	10800023 	ldbuio	r2,0(r2)
 40204ac:	10803fcc 	andi	r2,r2,255
 40204b0:	e0bffd05 	stb	r2,-12(fp)
	while(Check != 0)
 40204b4:	00000506 	br	40204cc <Test_Accelerator_Grayscale_Image+0xac>
	{
		Check = IORD_8DIRECT(ACCELERATOR_GRAYSCALE_0_BASE, REGCOMMAND);
 40204b8:	00810134 	movhi	r2,1028
 40204bc:	10841004 	addi	r2,r2,4160
 40204c0:	10800023 	ldbuio	r2,0(r2)
 40204c4:	10803fcc 	andi	r2,r2,255
 40204c8:	e0bffd05 	stb	r2,-12(fp)
	// Enable:
	IOWR_8DIRECT(ACCELERATOR_GRAYSCALE_0_BASE, REGCOMMAND, ENABLE);

	// Wait that the task is done:
	uint8_t Check = IORD_8DIRECT(ACCELERATOR_GRAYSCALE_0_BASE, REGCOMMAND);
	while(Check != 0)
 40204cc:	e0bffd03 	ldbu	r2,-12(fp)
 40204d0:	103ff91e 	bne	r2,zero,40204b8 <_gp+0xfffdf01c>
	{
		Check = IORD_8DIRECT(ACCELERATOR_GRAYSCALE_0_BASE, REGCOMMAND);
	}

	// Check DataRead and DataWrite:
	alt_printf("RegData_Read = 0x%x\n", IORD_32DIRECT(ACCELERATOR_GRAYSCALE_0_BASE, REGDATAREAD));
 40204d4:	00810134 	movhi	r2,1028
 40204d8:	10841304 	addi	r2,r2,4172
 40204dc:	10800037 	ldwio	r2,0(r2)
 40204e0:	100b883a 	mov	r5,r2
 40204e4:	010100f4 	movhi	r4,1027
 40204e8:	211cc004 	addi	r4,r4,29440
 40204ec:	4034a640 	call	4034a64 <alt_printf>
	alt_printf("RegData_Write = 0x%x\n", IORD_32DIRECT(ACCELERATOR_GRAYSCALE_0_BASE, REGDATAWRITE));
 40204f0:	00810134 	movhi	r2,1028
 40204f4:	10841404 	addi	r2,r2,4176
 40204f8:	10800037 	ldwio	r2,0(r2)
 40204fc:	100b883a 	mov	r5,r2
 4020500:	010100f4 	movhi	r4,1027
 4020504:	211cc604 	addi	r4,r4,29464
 4020508:	4034a640 	call	4034a64 <alt_printf>
}
 402050c:	0001883a 	nop
 4020510:	e037883a 	mov	sp,fp
 4020514:	dfc00117 	ldw	ra,4(sp)
 4020518:	df000017 	ldw	fp,0(sp)
 402051c:	dec00204 	addi	sp,sp,8
 4020520:	f800283a 	ret

04020524 <Accelerator_Grayscale_Image>:

//------------------------------------------------------------------------------------------------

void Accelerator_Grayscale_Image(int Address, int Length_Address)
{
 4020524:	defffc04 	addi	sp,sp,-16
 4020528:	df000315 	stw	fp,12(sp)
 402052c:	df000304 	addi	fp,sp,12
 4020530:	e13ffe15 	stw	r4,-8(fp)
 4020534:	e17fff15 	stw	r5,-4(fp)
	 * int Address        : The address of the first variable in the memory.
	 * int Length_Address : The length of the addresses (or (n_pixels-1)*2) in byte.
	 */

	// Initialize the address:
	IOWR_32DIRECT(ACCELERATOR_GRAYSCALE_0_BASE, REGADDRESS, Address);
 4020538:	00810134 	movhi	r2,1028
 402053c:	10841104 	addi	r2,r2,4164
 4020540:	e0fffe17 	ldw	r3,-8(fp)
 4020544:	10c00035 	stwio	r3,0(r2)

	// Initialize the length:
	IOWR_32DIRECT(ACCELERATOR_GRAYSCALE_0_BASE, REGLENGTHADDRESS, Length_Address);
 4020548:	00810134 	movhi	r2,1028
 402054c:	10841204 	addi	r2,r2,4168
 4020550:	e0ffff17 	ldw	r3,-4(fp)
 4020554:	10c00035 	stwio	r3,0(r2)

	// Enable:
	IOWR_8DIRECT(ACCELERATOR_GRAYSCALE_0_BASE, REGCOMMAND, ENABLE);
 4020558:	00c00044 	movi	r3,1
 402055c:	00810134 	movhi	r2,1028
 4020560:	10841004 	addi	r2,r2,4160
 4020564:	10c00025 	stbio	r3,0(r2)

	// Wait that the task is done:
	uint8_t Check = IORD_8DIRECT(ACCELERATOR_GRAYSCALE_0_BASE, REGCOMMAND);
 4020568:	00810134 	movhi	r2,1028
 402056c:	10841004 	addi	r2,r2,4160
 4020570:	10800023 	ldbuio	r2,0(r2)
 4020574:	10803fcc 	andi	r2,r2,255
 4020578:	e0bffd05 	stb	r2,-12(fp)
	while(Check != 0)
 402057c:	00000506 	br	4020594 <Accelerator_Grayscale_Image+0x70>
	{
		Check = IORD_8DIRECT(ACCELERATOR_GRAYSCALE_0_BASE, REGCOMMAND);
 4020580:	00810134 	movhi	r2,1028
 4020584:	10841004 	addi	r2,r2,4160
 4020588:	10800023 	ldbuio	r2,0(r2)
 402058c:	10803fcc 	andi	r2,r2,255
 4020590:	e0bffd05 	stb	r2,-12(fp)
	// Enable:
	IOWR_8DIRECT(ACCELERATOR_GRAYSCALE_0_BASE, REGCOMMAND, ENABLE);

	// Wait that the task is done:
	uint8_t Check = IORD_8DIRECT(ACCELERATOR_GRAYSCALE_0_BASE, REGCOMMAND);
	while(Check != 0)
 4020594:	e0bffd03 	ldbu	r2,-12(fp)
 4020598:	103ff91e 	bne	r2,zero,4020580 <_gp+0xfffdf0e4>
	{
		Check = IORD_8DIRECT(ACCELERATOR_GRAYSCALE_0_BASE, REGCOMMAND);
	}
}
 402059c:	0001883a 	nop
 40205a0:	e037883a 	mov	sp,fp
 40205a4:	df000017 	ldw	fp,0(sp)
 40205a8:	dec00104 	addi	sp,sp,4
 40205ac:	f800283a 	ret

040205b0 <C_Grayscale_Table>:
#include "Function_Header.h"

//------------------------------------------------------------------------------------------------

void C_Grayscale_Table(uint16_t *Address, uint32_t Length_Address)
{
 40205b0:	defff404 	addi	sp,sp,-48
 40205b4:	dfc00b15 	stw	ra,44(sp)
 40205b8:	df000a15 	stw	fp,40(sp)
 40205bc:	df000a04 	addi	fp,sp,40
 40205c0:	e13ffe15 	stw	r4,-8(fp)
 40205c4:	e17fff15 	stw	r5,-4(fp)
	/* Parameters:
	 * uint16_t *Address       : The address of the first pixel data in the memory.
	 * uint32_t Length_Address : The length of the addresses (or (n_pixels-1)*2) in byte.
	 */

	uint16_t Data_Read  = 0x0000;
 40205c8:	e03ff70d 	sth	zero,-36(fp)
	uint16_t Data_Write = 0x0000;
 40205cc:	e03ff78d 	sth	zero,-34(fp)

	uint16_t R_Mask = 0b1111100000000000;
 40205d0:	00be0004 	movi	r2,-2048
 40205d4:	e0bff80d 	sth	r2,-32(fp)
	float R_Color = 0;
 40205d8:	e03ff915 	stw	zero,-28(fp)

	uint16_t G_Mask = 0b0000011111100000;
 40205dc:	0081f804 	movi	r2,2016
 40205e0:	e0bffa0d 	sth	r2,-24(fp)
	float G_Color = 0;
 40205e4:	e03ffb15 	stw	zero,-20(fp)

	uint16_t B_Mask = 0b0000000000011111;
 40205e8:	008007c4 	movi	r2,31
 40205ec:	e0bffc0d 	sth	r2,-16(fp)
	float B_Color = 0;
 40205f0:	e03ffd15 	stw	zero,-12(fp)

	for (int i = 0; i <= (Length_Address/2); i ++) {
 40205f4:	e03ff615 	stw	zero,-40(fp)
 40205f8:	00007c06 	br	40207ec <C_Grayscale_Table+0x23c>
		Data_Read  = IORD_16DIRECT(Address, i*2);
 40205fc:	e0bff617 	ldw	r2,-40(fp)
 4020600:	1085883a 	add	r2,r2,r2
 4020604:	1007883a 	mov	r3,r2
 4020608:	e0bffe17 	ldw	r2,-8(fp)
 402060c:	10c5883a 	add	r2,r2,r3
 4020610:	1080002b 	ldhuio	r2,0(r2)
 4020614:	10bfffcc 	andi	r2,r2,65535
 4020618:	e0bff70d 	sth	r2,-36(fp)

		// To avoid that the value gets rounded to 0, the order of calculus must be correctly set.
		R_Color = (float) (((255 * ((Data_Read & R_Mask) >> 11)) / 31) * 0.2126);
 402061c:	e0fff70b 	ldhu	r3,-36(fp)
 4020620:	e0bff80b 	ldhu	r2,-32(fp)
 4020624:	1884703a 	and	r2,r3,r2
 4020628:	10bfffcc 	andi	r2,r2,65535
 402062c:	1004d2fa 	srli	r2,r2,11
 4020630:	10bfffcc 	andi	r2,r2,65535
 4020634:	10803fe4 	muli	r2,r2,255
 4020638:	014007c4 	movi	r5,31
 402063c:	1009883a 	mov	r4,r2
 4020640:	4022b0c0 	call	4022b0c <__divsi3>
 4020644:	1009883a 	mov	r4,r2
 4020648:	4023fd40 	call	4023fd4 <__floatsidf>
 402064c:	1011883a 	mov	r8,r2
 4020650:	1813883a 	mov	r9,r3
 4020654:	0183e474 	movhi	r6,3985
 4020658:	31a5af04 	addi	r6,r6,-26948
 402065c:	01cff2f4 	movhi	r7,16331
 4020660:	39cd9e84 	addi	r7,r7,13946
 4020664:	4009883a 	mov	r4,r8
 4020668:	480b883a 	mov	r5,r9
 402066c:	40238bc0 	call	40238bc <__muldf3>
 4020670:	1009883a 	mov	r4,r2
 4020674:	180b883a 	mov	r5,r3
 4020678:	2005883a 	mov	r2,r4
 402067c:	2807883a 	mov	r3,r5
 4020680:	1009883a 	mov	r4,r2
 4020684:	180b883a 	mov	r5,r3
 4020688:	40240b00 	call	40240b0 <__truncdfsf2>
 402068c:	1007883a 	mov	r3,r2
 4020690:	e0fff915 	stw	r3,-28(fp)
		G_Color = (float) (((255 * ((Data_Read & G_Mask) >> 5)) / 63) * 0.7152);
 4020694:	e0fff70b 	ldhu	r3,-36(fp)
 4020698:	e0bffa0b 	ldhu	r2,-24(fp)
 402069c:	1884703a 	and	r2,r3,r2
 40206a0:	10bfffcc 	andi	r2,r2,65535
 40206a4:	1004d17a 	srli	r2,r2,5
 40206a8:	10bfffcc 	andi	r2,r2,65535
 40206ac:	10803fe4 	muli	r2,r2,255
 40206b0:	01400fc4 	movi	r5,63
 40206b4:	1009883a 	mov	r4,r2
 40206b8:	4022b0c0 	call	4022b0c <__divsi3>
 40206bc:	1009883a 	mov	r4,r2
 40206c0:	4023fd40 	call	4023fd4 <__floatsidf>
 40206c4:	1011883a 	mov	r8,r2
 40206c8:	1813883a 	mov	r9,r3
 40206cc:	018710f4 	movhi	r6,7235
 40206d0:	318b2944 	addi	r6,r6,11429
 40206d4:	01cff9f4 	movhi	r7,16359
 40206d8:	39f8bac4 	addi	r7,r7,-7445
 40206dc:	4009883a 	mov	r4,r8
 40206e0:	480b883a 	mov	r5,r9
 40206e4:	40238bc0 	call	40238bc <__muldf3>
 40206e8:	1009883a 	mov	r4,r2
 40206ec:	180b883a 	mov	r5,r3
 40206f0:	2005883a 	mov	r2,r4
 40206f4:	2807883a 	mov	r3,r5
 40206f8:	1009883a 	mov	r4,r2
 40206fc:	180b883a 	mov	r5,r3
 4020700:	40240b00 	call	40240b0 <__truncdfsf2>
 4020704:	1007883a 	mov	r3,r2
 4020708:	e0fffb15 	stw	r3,-20(fp)
		B_Color = (float) (((255 * (Data_Read & B_Mask)) / 31) * 0.0722);
 402070c:	e0fff70b 	ldhu	r3,-36(fp)
 4020710:	e0bffc0b 	ldhu	r2,-16(fp)
 4020714:	1884703a 	and	r2,r3,r2
 4020718:	10bfffcc 	andi	r2,r2,65535
 402071c:	10803fe4 	muli	r2,r2,255
 4020720:	014007c4 	movi	r5,31
 4020724:	1009883a 	mov	r4,r2
 4020728:	4022b0c0 	call	4022b0c <__divsi3>
 402072c:	1009883a 	mov	r4,r2
 4020730:	4023fd40 	call	4023fd4 <__floatsidf>
 4020734:	1011883a 	mov	r8,r2
 4020738:	1813883a 	mov	r9,r3
 402073c:	01bfb174 	movhi	r6,65221
 4020740:	319b5744 	addi	r6,r6,27997
 4020744:	01cfecb4 	movhi	r7,16306
 4020748:	39deec84 	addi	r7,r7,31666
 402074c:	4009883a 	mov	r4,r8
 4020750:	480b883a 	mov	r5,r9
 4020754:	40238bc0 	call	40238bc <__muldf3>
 4020758:	1009883a 	mov	r4,r2
 402075c:	180b883a 	mov	r5,r3
 4020760:	2005883a 	mov	r2,r4
 4020764:	2807883a 	mov	r3,r5
 4020768:	1009883a 	mov	r4,r2
 402076c:	180b883a 	mov	r5,r3
 4020770:	40240b00 	call	40240b0 <__truncdfsf2>
 4020774:	1007883a 	mov	r3,r2
 4020778:	e0fffd15 	stw	r3,-12(fp)

		Data_Write = (int) R_Color + G_Color + B_Color;
 402077c:	e13ff917 	ldw	r4,-28(fp)
 4020780:	40237280 	call	4023728 <__fixsfsi>
 4020784:	1009883a 	mov	r4,r2
 4020788:	40237980 	call	4023798 <__floatsisf>
 402078c:	1007883a 	mov	r3,r2
 4020790:	e17ffb17 	ldw	r5,-20(fp)
 4020794:	1809883a 	mov	r4,r3
 4020798:	4022cc00 	call	4022cc0 <__addsf3>
 402079c:	1007883a 	mov	r3,r2
 40207a0:	1805883a 	mov	r2,r3
 40207a4:	e17ffd17 	ldw	r5,-12(fp)
 40207a8:	1009883a 	mov	r4,r2
 40207ac:	4022cc00 	call	4022cc0 <__addsf3>
 40207b0:	1007883a 	mov	r3,r2
 40207b4:	1805883a 	mov	r2,r3
 40207b8:	1009883a 	mov	r4,r2
 40207bc:	4022aac0 	call	4022aac <__fixunssfsi>
 40207c0:	e0bff78d 	sth	r2,-34(fp)

		IOWR_16DIRECT(Address, i*2, Data_Write);
 40207c4:	e0bff617 	ldw	r2,-40(fp)
 40207c8:	1085883a 	add	r2,r2,r2
 40207cc:	1007883a 	mov	r3,r2
 40207d0:	e0bffe17 	ldw	r2,-8(fp)
 40207d4:	10c5883a 	add	r2,r2,r3
 40207d8:	e0fff78b 	ldhu	r3,-34(fp)
 40207dc:	10c0002d 	sthio	r3,0(r2)
	float G_Color = 0;

	uint16_t B_Mask = 0b0000000000011111;
	float B_Color = 0;

	for (int i = 0; i <= (Length_Address/2); i ++) {
 40207e0:	e0bff617 	ldw	r2,-40(fp)
 40207e4:	10800044 	addi	r2,r2,1
 40207e8:	e0bff615 	stw	r2,-40(fp)
 40207ec:	e0bfff17 	ldw	r2,-4(fp)
 40207f0:	1006d07a 	srli	r3,r2,1
 40207f4:	e0bff617 	ldw	r2,-40(fp)
 40207f8:	18bf802e 	bgeu	r3,r2,40205fc <_gp+0xfffdf160>

		Data_Write = (int) R_Color + G_Color + B_Color;

		IOWR_16DIRECT(Address, i*2, Data_Write);
	}
}
 40207fc:	0001883a 	nop
 4020800:	e037883a 	mov	sp,fp
 4020804:	dfc00117 	ldw	ra,4(sp)
 4020808:	df000017 	ldw	fp,0(sp)
 402080c:	dec00204 	addi	sp,sp,8
 4020810:	f800283a 	ret

04020814 <C_Grayscale_Image>:

//------------------------------------------------------------------------------------------------

void C_Grayscale_Image(int Address, int Length_Address)
{
 4020814:	defff404 	addi	sp,sp,-48
 4020818:	dfc00b15 	stw	ra,44(sp)
 402081c:	df000a15 	stw	fp,40(sp)
 4020820:	df000a04 	addi	fp,sp,40
 4020824:	e13ffe15 	stw	r4,-8(fp)
 4020828:	e17fff15 	stw	r5,-4(fp)
	/* Parameters:
	 * uint16_t *Address       : The address of the first pixel data in the memory.
	 * uint32_t Length_Address : The length of the addresses (or (n_pixels-1)*2) in byte.
	 */

	uint16_t Data_Read  = 0x0000;
 402082c:	e03ff70d 	sth	zero,-36(fp)
	uint16_t Data_Write = 0x0000;
 4020830:	e03ff78d 	sth	zero,-34(fp)

	uint16_t R_Mask = 0b1111100000000000;
 4020834:	00be0004 	movi	r2,-2048
 4020838:	e0bff80d 	sth	r2,-32(fp)
	float R_Color = 0;
 402083c:	e03ff915 	stw	zero,-28(fp)

	uint16_t G_Mask = 0b0000011111100000;
 4020840:	0081f804 	movi	r2,2016
 4020844:	e0bffa0d 	sth	r2,-24(fp)
	float G_Color = 0;
 4020848:	e03ffb15 	stw	zero,-20(fp)

	uint16_t B_Mask = 0b0000000000011111;
 402084c:	008007c4 	movi	r2,31
 4020850:	e0bffc0d 	sth	r2,-16(fp)
	float B_Color = 0;
 4020854:	e03ffd15 	stw	zero,-12(fp)

	for (int i = 0; i <= (Length_Address/2); i ++) {
 4020858:	e03ff615 	stw	zero,-40(fp)
 402085c:	00007d06 	br	4020a54 <C_Grayscale_Image+0x240>
		Data_Read  = IORD_16DIRECT(Address, i*2);
 4020860:	e0bff617 	ldw	r2,-40(fp)
 4020864:	1085883a 	add	r2,r2,r2
 4020868:	1007883a 	mov	r3,r2
 402086c:	e0bffe17 	ldw	r2,-8(fp)
 4020870:	1885883a 	add	r2,r3,r2
 4020874:	1080002b 	ldhuio	r2,0(r2)
 4020878:	10bfffcc 	andi	r2,r2,65535
 402087c:	e0bff70d 	sth	r2,-36(fp)

		// To avoid that the value gets rounded to 0, the order of calculus must be correctly set.
		R_Color = (float) (((255 * ((Data_Read & R_Mask) >> 11)) / 31) * 0.2126);
 4020880:	e0fff70b 	ldhu	r3,-36(fp)
 4020884:	e0bff80b 	ldhu	r2,-32(fp)
 4020888:	1884703a 	and	r2,r3,r2
 402088c:	10bfffcc 	andi	r2,r2,65535
 4020890:	1004d2fa 	srli	r2,r2,11
 4020894:	10bfffcc 	andi	r2,r2,65535
 4020898:	10803fe4 	muli	r2,r2,255
 402089c:	014007c4 	movi	r5,31
 40208a0:	1009883a 	mov	r4,r2
 40208a4:	4022b0c0 	call	4022b0c <__divsi3>
 40208a8:	1009883a 	mov	r4,r2
 40208ac:	4023fd40 	call	4023fd4 <__floatsidf>
 40208b0:	1011883a 	mov	r8,r2
 40208b4:	1813883a 	mov	r9,r3
 40208b8:	0183e474 	movhi	r6,3985
 40208bc:	31a5af04 	addi	r6,r6,-26948
 40208c0:	01cff2f4 	movhi	r7,16331
 40208c4:	39cd9e84 	addi	r7,r7,13946
 40208c8:	4009883a 	mov	r4,r8
 40208cc:	480b883a 	mov	r5,r9
 40208d0:	40238bc0 	call	40238bc <__muldf3>
 40208d4:	1009883a 	mov	r4,r2
 40208d8:	180b883a 	mov	r5,r3
 40208dc:	2005883a 	mov	r2,r4
 40208e0:	2807883a 	mov	r3,r5
 40208e4:	1009883a 	mov	r4,r2
 40208e8:	180b883a 	mov	r5,r3
 40208ec:	40240b00 	call	40240b0 <__truncdfsf2>
 40208f0:	1007883a 	mov	r3,r2
 40208f4:	e0fff915 	stw	r3,-28(fp)
		G_Color = (float) (((255 * ((Data_Read & G_Mask) >> 5)) / 63) * 0.7152);
 40208f8:	e0fff70b 	ldhu	r3,-36(fp)
 40208fc:	e0bffa0b 	ldhu	r2,-24(fp)
 4020900:	1884703a 	and	r2,r3,r2
 4020904:	10bfffcc 	andi	r2,r2,65535
 4020908:	1004d17a 	srli	r2,r2,5
 402090c:	10bfffcc 	andi	r2,r2,65535
 4020910:	10803fe4 	muli	r2,r2,255
 4020914:	01400fc4 	movi	r5,63
 4020918:	1009883a 	mov	r4,r2
 402091c:	4022b0c0 	call	4022b0c <__divsi3>
 4020920:	1009883a 	mov	r4,r2
 4020924:	4023fd40 	call	4023fd4 <__floatsidf>
 4020928:	1011883a 	mov	r8,r2
 402092c:	1813883a 	mov	r9,r3
 4020930:	018710f4 	movhi	r6,7235
 4020934:	318b2944 	addi	r6,r6,11429
 4020938:	01cff9f4 	movhi	r7,16359
 402093c:	39f8bac4 	addi	r7,r7,-7445
 4020940:	4009883a 	mov	r4,r8
 4020944:	480b883a 	mov	r5,r9
 4020948:	40238bc0 	call	40238bc <__muldf3>
 402094c:	1009883a 	mov	r4,r2
 4020950:	180b883a 	mov	r5,r3
 4020954:	2005883a 	mov	r2,r4
 4020958:	2807883a 	mov	r3,r5
 402095c:	1009883a 	mov	r4,r2
 4020960:	180b883a 	mov	r5,r3
 4020964:	40240b00 	call	40240b0 <__truncdfsf2>
 4020968:	1007883a 	mov	r3,r2
 402096c:	e0fffb15 	stw	r3,-20(fp)
		B_Color = (float) (((255 * (Data_Read & B_Mask)) / 31) * 0.0722);
 4020970:	e0fff70b 	ldhu	r3,-36(fp)
 4020974:	e0bffc0b 	ldhu	r2,-16(fp)
 4020978:	1884703a 	and	r2,r3,r2
 402097c:	10bfffcc 	andi	r2,r2,65535
 4020980:	10803fe4 	muli	r2,r2,255
 4020984:	014007c4 	movi	r5,31
 4020988:	1009883a 	mov	r4,r2
 402098c:	4022b0c0 	call	4022b0c <__divsi3>
 4020990:	1009883a 	mov	r4,r2
 4020994:	4023fd40 	call	4023fd4 <__floatsidf>
 4020998:	1011883a 	mov	r8,r2
 402099c:	1813883a 	mov	r9,r3
 40209a0:	01bfb174 	movhi	r6,65221
 40209a4:	319b5744 	addi	r6,r6,27997
 40209a8:	01cfecb4 	movhi	r7,16306
 40209ac:	39deec84 	addi	r7,r7,31666
 40209b0:	4009883a 	mov	r4,r8
 40209b4:	480b883a 	mov	r5,r9
 40209b8:	40238bc0 	call	40238bc <__muldf3>
 40209bc:	1009883a 	mov	r4,r2
 40209c0:	180b883a 	mov	r5,r3
 40209c4:	2005883a 	mov	r2,r4
 40209c8:	2807883a 	mov	r3,r5
 40209cc:	1009883a 	mov	r4,r2
 40209d0:	180b883a 	mov	r5,r3
 40209d4:	40240b00 	call	40240b0 <__truncdfsf2>
 40209d8:	1007883a 	mov	r3,r2
 40209dc:	e0fffd15 	stw	r3,-12(fp)

		Data_Write = (int) R_Color + G_Color + B_Color;
 40209e0:	e13ff917 	ldw	r4,-28(fp)
 40209e4:	40237280 	call	4023728 <__fixsfsi>
 40209e8:	1009883a 	mov	r4,r2
 40209ec:	40237980 	call	4023798 <__floatsisf>
 40209f0:	1007883a 	mov	r3,r2
 40209f4:	e17ffb17 	ldw	r5,-20(fp)
 40209f8:	1809883a 	mov	r4,r3
 40209fc:	4022cc00 	call	4022cc0 <__addsf3>
 4020a00:	1007883a 	mov	r3,r2
 4020a04:	1805883a 	mov	r2,r3
 4020a08:	e17ffd17 	ldw	r5,-12(fp)
 4020a0c:	1009883a 	mov	r4,r2
 4020a10:	4022cc00 	call	4022cc0 <__addsf3>
 4020a14:	1007883a 	mov	r3,r2
 4020a18:	1805883a 	mov	r2,r3
 4020a1c:	1009883a 	mov	r4,r2
 4020a20:	4022aac0 	call	4022aac <__fixunssfsi>
 4020a24:	e0bff78d 	sth	r2,-34(fp)

		IOWR_16DIRECT(Address, i*2, Data_Write);
 4020a28:	e0bff617 	ldw	r2,-40(fp)
 4020a2c:	1085883a 	add	r2,r2,r2
 4020a30:	1007883a 	mov	r3,r2
 4020a34:	e0bffe17 	ldw	r2,-8(fp)
 4020a38:	1885883a 	add	r2,r3,r2
 4020a3c:	1007883a 	mov	r3,r2
 4020a40:	e0bff78b 	ldhu	r2,-34(fp)
 4020a44:	1880002d 	sthio	r2,0(r3)
	float G_Color = 0;

	uint16_t B_Mask = 0b0000000000011111;
	float B_Color = 0;

	for (int i = 0; i <= (Length_Address/2); i ++) {
 4020a48:	e0bff617 	ldw	r2,-40(fp)
 4020a4c:	10800044 	addi	r2,r2,1
 4020a50:	e0bff615 	stw	r2,-40(fp)
 4020a54:	e0bfff17 	ldw	r2,-4(fp)
 4020a58:	1006d7fa 	srli	r3,r2,31
 4020a5c:	1885883a 	add	r2,r3,r2
 4020a60:	1005d07a 	srai	r2,r2,1
 4020a64:	1007883a 	mov	r3,r2
 4020a68:	e0bff617 	ldw	r2,-40(fp)
 4020a6c:	18bf7c0e 	bge	r3,r2,4020860 <_gp+0xfffdf3c4>

		Data_Write = (int) R_Color + G_Color + B_Color;

		IOWR_16DIRECT(Address, i*2, Data_Write);
	}
}
 4020a70:	0001883a 	nop
 4020a74:	e037883a 	mov	sp,fp
 4020a78:	dfc00117 	ldw	ra,4(sp)
 4020a7c:	df000017 	ldw	fp,0(sp)
 4020a80:	dec00204 	addi	sp,sp,8
 4020a84:	f800283a 	ret

04020a88 <Camera_Acquisition_Module_SETUP_Address_Memory>:
#define CAMERA_MODULE_REGISTER_START          (2 * 4) /* RW */
#define CAMERA_MODULE_REGISTER_STOP            (3 * 4) /* RW */
#define CAMERA_MODULE_REGISTER_SNAPSHOT             (4 * 4) /* RW */
#define CAMERA_MODULE_REGISTER_FLAG            (5 * 4) /* RW */
int Camera_Acquisition_Module_SETUP_Address_Memory(int Address)
{
 4020a88:	defffd04 	addi	sp,sp,-12
 4020a8c:	df000215 	stw	fp,8(sp)
 4020a90:	df000204 	addi	fp,sp,8
 4020a94:	e13fff15 	stw	r4,-4(fp)
	IOWR_32DIRECT(CAMERA_MODULE_0_BASE, CAMERA_MODULE_REGISTER_ADDRESS, Address);
 4020a98:	00810134 	movhi	r2,1028
 4020a9c:	10841804 	addi	r2,r2,4192
 4020aa0:	e0ffff17 	ldw	r3,-4(fp)
 4020aa4:	10c00035 	stwio	r3,0(r2)
	for (int i=0;i<10;i++);
 4020aa8:	e03ffe15 	stw	zero,-8(fp)
 4020aac:	00000306 	br	4020abc <Camera_Acquisition_Module_SETUP_Address_Memory+0x34>
 4020ab0:	e0bffe17 	ldw	r2,-8(fp)
 4020ab4:	10800044 	addi	r2,r2,1
 4020ab8:	e0bffe15 	stw	r2,-8(fp)
 4020abc:	e0bffe17 	ldw	r2,-8(fp)
 4020ac0:	10800290 	cmplti	r2,r2,10
 4020ac4:	103ffa1e 	bne	r2,zero,4020ab0 <_gp+0xfffdf614>
	return IORD_32DIRECT(CAMERA_MODULE_0_BASE,CAMERA_MODULE_REGISTER_ADDRESS);
 4020ac8:	00810134 	movhi	r2,1028
 4020acc:	10841804 	addi	r2,r2,4192
 4020ad0:	10800037 	ldwio	r2,0(r2)
}
 4020ad4:	e037883a 	mov	sp,fp
 4020ad8:	df000017 	ldw	fp,0(sp)
 4020adc:	dec00104 	addi	sp,sp,4
 4020ae0:	f800283a 	ret

04020ae4 <Camera_Acquisition_Module_SETUP_Length_Frame>:
// Length : Number of pixel to store. reminder : 1 Memory slot =2 pixels and 1 memory slot = 4 bytes
int Camera_Acquisition_Module_SETUP_Length_Frame(int Pixel_Number)
{
 4020ae4:	defffd04 	addi	sp,sp,-12
 4020ae8:	df000215 	stw	fp,8(sp)
 4020aec:	df000204 	addi	fp,sp,8
 4020af0:	e13fff15 	stw	r4,-4(fp)
	IOWR_32DIRECT(CAMERA_MODULE_0_BASE, CAMERA_MODULE_REGISTER_LENGTH, Pixel_Number/2*4);//*4 because 32bits;
 4020af4:	e0bfff17 	ldw	r2,-4(fp)
 4020af8:	1006d7fa 	srli	r3,r2,31
 4020afc:	1885883a 	add	r2,r3,r2
 4020b00:	1005d07a 	srai	r2,r2,1
 4020b04:	1085883a 	add	r2,r2,r2
 4020b08:	1085883a 	add	r2,r2,r2
 4020b0c:	1007883a 	mov	r3,r2
 4020b10:	00810134 	movhi	r2,1028
 4020b14:	10841904 	addi	r2,r2,4196
 4020b18:	10c00035 	stwio	r3,0(r2)
	for (int i=0;i<10;i++);
 4020b1c:	e03ffe15 	stw	zero,-8(fp)
 4020b20:	00000306 	br	4020b30 <Camera_Acquisition_Module_SETUP_Length_Frame+0x4c>
 4020b24:	e0bffe17 	ldw	r2,-8(fp)
 4020b28:	10800044 	addi	r2,r2,1
 4020b2c:	e0bffe15 	stw	r2,-8(fp)
 4020b30:	e0bffe17 	ldw	r2,-8(fp)
 4020b34:	10800290 	cmplti	r2,r2,10
 4020b38:	103ffa1e 	bne	r2,zero,4020b24 <_gp+0xfffdf688>
	return IORD_32DIRECT(CAMERA_MODULE_0_BASE,CAMERA_MODULE_REGISTER_LENGTH);
 4020b3c:	00810134 	movhi	r2,1028
 4020b40:	10841904 	addi	r2,r2,4196
 4020b44:	10800037 	ldwio	r2,0(r2)
}
 4020b48:	e037883a 	mov	sp,fp
 4020b4c:	df000017 	ldw	fp,0(sp)
 4020b50:	dec00104 	addi	sp,sp,4
 4020b54:	f800283a 	ret

04020b58 <Camera_Acquisition_Module_Start>:
int Camera_Acquisition_Module_Start()
{
 4020b58:	defffe04 	addi	sp,sp,-8
 4020b5c:	df000115 	stw	fp,4(sp)
 4020b60:	df000104 	addi	fp,sp,4
	IOWR_32DIRECT(CAMERA_MODULE_0_BASE, CAMERA_MODULE_REGISTER_START, 1);//*4 because 32bits;
 4020b64:	00c00044 	movi	r3,1
 4020b68:	00810134 	movhi	r2,1028
 4020b6c:	10841a04 	addi	r2,r2,4200
 4020b70:	10c00035 	stwio	r3,0(r2)
	for (int i=0;i<10;i++);
 4020b74:	e03fff15 	stw	zero,-4(fp)
 4020b78:	00000306 	br	4020b88 <Camera_Acquisition_Module_Start+0x30>
 4020b7c:	e0bfff17 	ldw	r2,-4(fp)
 4020b80:	10800044 	addi	r2,r2,1
 4020b84:	e0bfff15 	stw	r2,-4(fp)
 4020b88:	e0bfff17 	ldw	r2,-4(fp)
 4020b8c:	10800290 	cmplti	r2,r2,10
 4020b90:	103ffa1e 	bne	r2,zero,4020b7c <_gp+0xfffdf6e0>
	return IORD_32DIRECT(CAMERA_MODULE_0_BASE,CAMERA_MODULE_REGISTER_START);
 4020b94:	00810134 	movhi	r2,1028
 4020b98:	10841a04 	addi	r2,r2,4200
 4020b9c:	10800037 	ldwio	r2,0(r2)
}
 4020ba0:	e037883a 	mov	sp,fp
 4020ba4:	df000017 	ldw	fp,0(sp)
 4020ba8:	dec00104 	addi	sp,sp,4
 4020bac:	f800283a 	ret

04020bb0 <Camera_Acquisition_Module_Stop>:
int Camera_Acquisition_Module_Stop()
{
 4020bb0:	defffe04 	addi	sp,sp,-8
 4020bb4:	df000115 	stw	fp,4(sp)
 4020bb8:	df000104 	addi	fp,sp,4
	IOWR_32DIRECT(CAMERA_MODULE_0_BASE, CAMERA_MODULE_REGISTER_STOP, 1);//*4 because 32bits;
 4020bbc:	00c00044 	movi	r3,1
 4020bc0:	00810134 	movhi	r2,1028
 4020bc4:	10841b04 	addi	r2,r2,4204
 4020bc8:	10c00035 	stwio	r3,0(r2)
	for (int i=0;i<10;i++);
 4020bcc:	e03fff15 	stw	zero,-4(fp)
 4020bd0:	00000306 	br	4020be0 <Camera_Acquisition_Module_Stop+0x30>
 4020bd4:	e0bfff17 	ldw	r2,-4(fp)
 4020bd8:	10800044 	addi	r2,r2,1
 4020bdc:	e0bfff15 	stw	r2,-4(fp)
 4020be0:	e0bfff17 	ldw	r2,-4(fp)
 4020be4:	10800290 	cmplti	r2,r2,10
 4020be8:	103ffa1e 	bne	r2,zero,4020bd4 <_gp+0xfffdf738>
	return IORD_32DIRECT(CAMERA_MODULE_0_BASE,CAMERA_MODULE_REGISTER_STOP);
 4020bec:	00810134 	movhi	r2,1028
 4020bf0:	10841b04 	addi	r2,r2,4204
 4020bf4:	10800037 	ldwio	r2,0(r2)
}
 4020bf8:	e037883a 	mov	sp,fp
 4020bfc:	df000017 	ldw	fp,0(sp)
 4020c00:	dec00104 	addi	sp,sp,4
 4020c04:	f800283a 	ret

04020c08 <Camera_Acquisition_Module_Display_Registers>:
void Camera_Acquisition_Module_Display_Registers()
{
 4020c08:	defffe04 	addi	sp,sp,-8
 4020c0c:	dfc00115 	stw	ra,4(sp)
 4020c10:	df000015 	stw	fp,0(sp)
 4020c14:	d839883a 	mov	fp,sp
	printf("CAMERA_MODULE_REGISTER_ADDRESS=0x%x\r\n",IORD_32DIRECT(CAMERA_MODULE_0_BASE,CAMERA_MODULE_REGISTER_ADDRESS));
 4020c18:	00810134 	movhi	r2,1028
 4020c1c:	10841804 	addi	r2,r2,4192
 4020c20:	10800037 	ldwio	r2,0(r2)
 4020c24:	100b883a 	mov	r5,r2
 4020c28:	010100f4 	movhi	r4,1027
 4020c2c:	211ccc04 	addi	r4,r4,29488
 4020c30:	40262780 	call	4026278 <printf>
	printf("CAMERA_MODULE_REGISTER_LENGTH=%d\r\n",IORD_32DIRECT(CAMERA_MODULE_0_BASE,CAMERA_MODULE_REGISTER_LENGTH));
 4020c34:	00810134 	movhi	r2,1028
 4020c38:	10841904 	addi	r2,r2,4196
 4020c3c:	10800037 	ldwio	r2,0(r2)
 4020c40:	100b883a 	mov	r5,r2
 4020c44:	010100f4 	movhi	r4,1027
 4020c48:	211cd604 	addi	r4,r4,29528
 4020c4c:	40262780 	call	4026278 <printf>
	printf("CAMERA_MODULE_REGISTER_START=%d\r\n",IORD_32DIRECT(CAMERA_MODULE_0_BASE,CAMERA_MODULE_REGISTER_START));
 4020c50:	00810134 	movhi	r2,1028
 4020c54:	10841a04 	addi	r2,r2,4200
 4020c58:	10800037 	ldwio	r2,0(r2)
 4020c5c:	100b883a 	mov	r5,r2
 4020c60:	010100f4 	movhi	r4,1027
 4020c64:	211cdf04 	addi	r4,r4,29564
 4020c68:	40262780 	call	4026278 <printf>
	printf("CAMERA_MODULE_REGISTER_STOP=%d\r\n",IORD_32DIRECT(CAMERA_MODULE_0_BASE,CAMERA_MODULE_REGISTER_STOP));
 4020c6c:	00810134 	movhi	r2,1028
 4020c70:	10841b04 	addi	r2,r2,4204
 4020c74:	10800037 	ldwio	r2,0(r2)
 4020c78:	100b883a 	mov	r5,r2
 4020c7c:	010100f4 	movhi	r4,1027
 4020c80:	211ce804 	addi	r4,r4,29600
 4020c84:	40262780 	call	4026278 <printf>
	printf("CAMERA_MODULE_REGISTER_SNAPSHOT=%d\r\n",IORD_32DIRECT(CAMERA_MODULE_0_BASE,CAMERA_MODULE_REGISTER_SNAPSHOT));
 4020c88:	00810134 	movhi	r2,1028
 4020c8c:	10841c04 	addi	r2,r2,4208
 4020c90:	10800037 	ldwio	r2,0(r2)
 4020c94:	100b883a 	mov	r5,r2
 4020c98:	010100f4 	movhi	r4,1027
 4020c9c:	211cf104 	addi	r4,r4,29636
 4020ca0:	40262780 	call	4026278 <printf>
	printf("CAMERA_MODULE_REGISTER_FLAG=%d\r\n",IORD_32DIRECT(CAMERA_MODULE_0_BASE,CAMERA_MODULE_REGISTER_FLAG));
 4020ca4:	00810134 	movhi	r2,1028
 4020ca8:	10841d04 	addi	r2,r2,4212
 4020cac:	10800037 	ldwio	r2,0(r2)
 4020cb0:	100b883a 	mov	r5,r2
 4020cb4:	010100f4 	movhi	r4,1027
 4020cb8:	211cfb04 	addi	r4,r4,29676
 4020cbc:	40262780 	call	4026278 <printf>
}
 4020cc0:	0001883a 	nop
 4020cc4:	e037883a 	mov	sp,fp
 4020cc8:	dfc00117 	ldw	ra,4(sp)
 4020ccc:	df000017 	ldw	fp,0(sp)
 4020cd0:	dec00204 	addi	sp,sp,8
 4020cd4:	f800283a 	ret

04020cd8 <Test_Camera_Memory>:
/* Pixels Generator Part */

 void Test_Camera_Memory()
 {
 4020cd8:	defffe04 	addi	sp,sp,-8
 4020cdc:	dfc00115 	stw	ra,4(sp)
 4020ce0:	df000015 	stw	fp,0(sp)
 4020ce4:	d839883a 	mov	fp,sp
 	Camera_Acquisition_Module_Stop();
 4020ce8:	4020bb00 	call	4020bb0 <Camera_Acquisition_Module_Stop>
 	delay(5000);
 4020cec:	0104e204 	movi	r4,5000
 4020cf0:	4020f140 	call	4020f14 <delay>
 	Camera_Acquisition_Module_SETUP_Address_Memory(SDRAM_CONTROLLER_BASE);//Address of the HPC, 256 MB Available from it
 4020cf4:	0009883a 	mov	r4,zero
 4020cf8:	4020a880 	call	4020a88 <Camera_Acquisition_Module_SETUP_Address_Memory>
 	Camera_Acquisition_Module_SETUP_Length_Frame(76800);//320*240
 4020cfc:	01000074 	movhi	r4,1
 4020d00:	210b0004 	addi	r4,r4,11264
 4020d04:	4020ae40 	call	4020ae4 <Camera_Acquisition_Module_SETUP_Length_Frame>
 	Camera_Acquisition_Module_Start();//Set a one in the start register
 4020d08:	4020b580 	call	4020b58 <Camera_Acquisition_Module_Start>


 			Capture_Image_Computer(SDRAM_CONTROLLER_BASE,2);
 4020d0c:	01400084 	movi	r5,2
 4020d10:	0009883a 	mov	r4,zero
 4020d14:	4020d480 	call	4020d48 <Capture_Image_Computer>
 			Capture_Image_Computer(SDRAM_CONTROLLER_BASE,1);
 4020d18:	01400044 	movi	r5,1
 4020d1c:	0009883a 	mov	r4,zero
 4020d20:	4020d480 	call	4020d48 <Capture_Image_Computer>
 			Capture_Image_Computer(SDRAM_CONTROLLER_BASE,0);
 4020d24:	000b883a 	mov	r5,zero
 4020d28:	0009883a 	mov	r4,zero
 4020d2c:	4020d480 	call	4020d48 <Capture_Image_Computer>


 }
 4020d30:	0001883a 	nop
 4020d34:	e037883a 	mov	sp,fp
 4020d38:	dfc00117 	ldw	ra,4(sp)
 4020d3c:	df000017 	ldw	fp,0(sp)
 4020d40:	dec00204 	addi	sp,sp,8
 4020d44:	f800283a 	ret

04020d48 <Capture_Image_Computer>:
 void Capture_Image_Computer(int Address, int Frame)
 {
 4020d48:	deffda04 	addi	sp,sp,-152
 4020d4c:	dfc02515 	stw	ra,148(sp)
 4020d50:	df002415 	stw	fp,144(sp)
 4020d54:	df002404 	addi	fp,sp,144
 4020d58:	e13ffe15 	stw	r4,-8(fp)
 4020d5c:	e17fff15 	stw	r5,-4(fp)
 	char filename[80];
 	sprintf(filename, "/mnt/host/image%d.ppm",Frame);
 4020d60:	e0bfe404 	addi	r2,fp,-112
 4020d64:	e1bfff17 	ldw	r6,-4(fp)
 4020d68:	014100f4 	movhi	r5,1027
 4020d6c:	295d0404 	addi	r5,r5,29712
 4020d70:	1009883a 	mov	r4,r2
 4020d74:	40266240 	call	4026624 <sprintf>
 		FILE *foutput = fopen(filename, "w");
 4020d78:	e0bfe404 	addi	r2,fp,-112
 4020d7c:	014100f4 	movhi	r5,1027
 4020d80:	295d0a04 	addi	r5,r5,29736
 4020d84:	1009883a 	mov	r4,r2
 4020d88:	4024afc0 	call	4024afc <fopen>
 4020d8c:	e0bfe215 	stw	r2,-120(fp)
 		if (foutput) {
 4020d90:	e0bfe217 	ldw	r2,-120(fp)
 4020d94:	10005426 	beq	r2,zero,4020ee8 <Capture_Image_Computer+0x1a0>
 			/* Use fprintf function to write to file through file pointer */
 			fprintf(foutput, "P3\n320 240\n32\n");
 4020d98:	e1ffe217 	ldw	r7,-120(fp)
 4020d9c:	01800384 	movi	r6,14
 4020da0:	01400044 	movi	r5,1
 4020da4:	010100f4 	movhi	r4,1027
 4020da8:	211d0b04 	addi	r4,r4,29740
 4020dac:	40256c40 	call	40256c4 <fwrite>
 			printf("Good: open \"%s\" for writing\n", filename);
 4020db0:	e0bfe404 	addi	r2,fp,-112
 4020db4:	100b883a 	mov	r5,r2
 4020db8:	010100f4 	movhi	r4,1027
 4020dbc:	211d0f04 	addi	r4,r4,29756
 4020dc0:	40262780 	call	4026278 <printf>
 			//
 			delay(5000000);
 4020dc4:	01001334 	movhi	r4,76
 4020dc8:	2112d004 	addi	r4,r4,19264
 4020dcc:	4020f140 	call	4020f14 <delay>
 			int Pixels[6];

 			for (int i=0;i<240;i++)
 4020dd0:	e03fe015 	stw	zero,-128(fp)
 4020dd4:	00003e06 	br	4020ed0 <Capture_Image_Computer+0x188>
 			{
 				for(int j=0;j<160;j++)
 4020dd8:	e03fe115 	stw	zero,-124(fp)
 4020ddc:	00002406 	br	4020e70 <Capture_Image_Computer+0x128>
 				{
 					int32_t Data_Memory_Case=IORD_32DIRECT(Address, i*160*4+j*4+160*240*4*Frame);
 4020de0:	e0bfe017 	ldw	r2,-128(fp)
 4020de4:	10c02824 	muli	r3,r2,160
 4020de8:	e0bfe117 	ldw	r2,-124(fp)
 4020dec:	1887883a 	add	r3,r3,r2
 4020df0:	e13fff17 	ldw	r4,-4(fp)
 4020df4:	00a58014 	movui	r2,38400
 4020df8:	2085383a 	mul	r2,r4,r2
 4020dfc:	1885883a 	add	r2,r3,r2
 4020e00:	1085883a 	add	r2,r2,r2
 4020e04:	1085883a 	add	r2,r2,r2
 4020e08:	1007883a 	mov	r3,r2
 4020e0c:	e0bffe17 	ldw	r2,-8(fp)
 4020e10:	1885883a 	add	r2,r3,r2
 4020e14:	10800037 	ldwio	r2,0(r2)
 4020e18:	e0bfe315 	stw	r2,-116(fp)
 					Convert_Pixels(Data_Memory_Case,Pixels);
 4020e1c:	e0bff804 	addi	r2,fp,-32
 4020e20:	100b883a 	mov	r5,r2
 4020e24:	e13fe317 	ldw	r4,-116(fp)
 4020e28:	4020f580 	call	4020f58 <Convert_Pixels>
 					//printf( "%3d %3d %3d %3d %3d %3d ",Pixels[0,Pixels[1],Pixels[2],Pixels[3],Pixels[4],Pixels[5]);

 					fprintf(foutput, "%3d %3d %3d %3d %3d %3d ",Pixels[0],Pixels[1],Pixels[2],Pixels[3],Pixels[4],Pixels[5]);
 4020e2c:	e1bff817 	ldw	r6,-32(fp)
 4020e30:	e1fff917 	ldw	r7,-28(fp)
 4020e34:	e0bffa17 	ldw	r2,-24(fp)
 4020e38:	e0fffb17 	ldw	r3,-20(fp)
 4020e3c:	e13ffc17 	ldw	r4,-16(fp)
 4020e40:	e17ffd17 	ldw	r5,-12(fp)
 4020e44:	d9400315 	stw	r5,12(sp)
 4020e48:	d9000215 	stw	r4,8(sp)
 4020e4c:	d8c00115 	stw	r3,4(sp)
 4020e50:	d8800015 	stw	r2,0(sp)
 4020e54:	014100f4 	movhi	r5,1027
 4020e58:	295d1704 	addi	r5,r5,29788
 4020e5c:	e13fe217 	ldw	r4,-120(fp)
 4020e60:	4024b3c0 	call	4024b3c <fprintf>
 			delay(5000000);
 			int Pixels[6];

 			for (int i=0;i<240;i++)
 			{
 				for(int j=0;j<160;j++)
 4020e64:	e0bfe117 	ldw	r2,-124(fp)
 4020e68:	10800044 	addi	r2,r2,1
 4020e6c:	e0bfe115 	stw	r2,-124(fp)
 4020e70:	e0bfe117 	ldw	r2,-124(fp)
 4020e74:	10802810 	cmplti	r2,r2,160
 4020e78:	103fd91e 	bne	r2,zero,4020de0 <_gp+0xfffdf944>

 					fprintf(foutput, "%3d %3d %3d %3d %3d %3d ",Pixels[0],Pixels[1],Pixels[2],Pixels[3],Pixels[4],Pixels[5]);

 				}
 				//printf( "\n");
 				printf( "%3d %3d %3d %3d %3d %3d ",Pixels[0],Pixels[1],Pixels[2],Pixels[3],Pixels[4],Pixels[5]);
 4020e7c:	e17ff817 	ldw	r5,-32(fp)
 4020e80:	e1bff917 	ldw	r6,-28(fp)
 4020e84:	e1fffa17 	ldw	r7,-24(fp)
 4020e88:	e0bffb17 	ldw	r2,-20(fp)
 4020e8c:	e0fffc17 	ldw	r3,-16(fp)
 4020e90:	e13ffd17 	ldw	r4,-12(fp)
 4020e94:	d9000215 	stw	r4,8(sp)
 4020e98:	d8c00115 	stw	r3,4(sp)
 4020e9c:	d8800015 	stw	r2,0(sp)
 4020ea0:	010100f4 	movhi	r4,1027
 4020ea4:	211d1704 	addi	r4,r4,29788
 4020ea8:	40262780 	call	4026278 <printf>

 				fprintf(foutput, "\r\n");
 4020eac:	e1ffe217 	ldw	r7,-120(fp)
 4020eb0:	01800084 	movi	r6,2
 4020eb4:	01400044 	movi	r5,1
 4020eb8:	010100f4 	movhi	r4,1027
 4020ebc:	211d1e04 	addi	r4,r4,29816
 4020ec0:	40256c40 	call	40256c4 <fwrite>
 			printf("Good: open \"%s\" for writing\n", filename);
 			//
 			delay(5000000);
 			int Pixels[6];

 			for (int i=0;i<240;i++)
 4020ec4:	e0bfe017 	ldw	r2,-128(fp)
 4020ec8:	10800044 	addi	r2,r2,1
 4020ecc:	e0bfe015 	stw	r2,-128(fp)
 4020ed0:	e0bfe017 	ldw	r2,-128(fp)
 4020ed4:	10803c10 	cmplti	r2,r2,240
 4020ed8:	103fbf1e 	bne	r2,zero,4020dd8 <_gp+0xfffdf93c>
 				printf( "%3d %3d %3d %3d %3d %3d ",Pixels[0],Pixels[1],Pixels[2],Pixels[3],Pixels[4],Pixels[5]);

 				fprintf(foutput, "\r\n");

 			}
 			fclose(foutput);
 4020edc:	e13fe217 	ldw	r4,-120(fp)
 4020ee0:	40243ac0 	call	40243ac <fclose>
 		else
 		{
 			printf("Error: could not open \"%s\" for writing\n", filename);

 		}
 }
 4020ee4:	00000506 	br	4020efc <Capture_Image_Computer+0x1b4>
 			}
 			fclose(foutput);
 		}
 		else
 		{
 			printf("Error: could not open \"%s\" for writing\n", filename);
 4020ee8:	e0bfe404 	addi	r2,fp,-112
 4020eec:	100b883a 	mov	r5,r2
 4020ef0:	010100f4 	movhi	r4,1027
 4020ef4:	211d1f04 	addi	r4,r4,29820
 4020ef8:	40262780 	call	4026278 <printf>

 		}
 }
 4020efc:	0001883a 	nop
 4020f00:	e037883a 	mov	sp,fp
 4020f04:	dfc00117 	ldw	ra,4(sp)
 4020f08:	df000017 	ldw	fp,0(sp)
 4020f0c:	dec00204 	addi	sp,sp,8
 4020f10:	f800283a 	ret

04020f14 <delay>:

 void delay(int duration )
 {
 4020f14:	defffd04 	addi	sp,sp,-12
 4020f18:	df000215 	stw	fp,8(sp)
 4020f1c:	df000204 	addi	fp,sp,8
 4020f20:	e13fff15 	stw	r4,-4(fp)
 	int i;
 	for (i=0;i<duration;i++);
 4020f24:	e03ffe15 	stw	zero,-8(fp)
 4020f28:	00000306 	br	4020f38 <delay+0x24>
 4020f2c:	e0bffe17 	ldw	r2,-8(fp)
 4020f30:	10800044 	addi	r2,r2,1
 4020f34:	e0bffe15 	stw	r2,-8(fp)
 4020f38:	e0fffe17 	ldw	r3,-8(fp)
 4020f3c:	e0bfff17 	ldw	r2,-4(fp)
 4020f40:	18bffa16 	blt	r3,r2,4020f2c <_gp+0xfffdfa90>
 }
 4020f44:	0001883a 	nop
 4020f48:	e037883a 	mov	sp,fp
 4020f4c:	df000017 	ldw	fp,0(sp)
 4020f50:	dec00104 	addi	sp,sp,4
 4020f54:	f800283a 	ret

04020f58 <Convert_Pixels>:
 void Convert_Pixels(int32_t Data,int* Storage)
 {
 4020f58:	defffc04 	addi	sp,sp,-16
 4020f5c:	dfc00315 	stw	ra,12(sp)
 4020f60:	df000215 	stw	fp,8(sp)
 4020f64:	df000204 	addi	fp,sp,8
 4020f68:	e13ffe15 	stw	r4,-8(fp)
 4020f6c:	e17fff15 	stw	r5,-4(fp)
 	Extract_Colors(Data&0xFFFF,Storage);
 4020f70:	e0bffe17 	ldw	r2,-8(fp)
 4020f74:	10bfffcc 	andi	r2,r2,65535
 4020f78:	10a0001c 	xori	r2,r2,32768
 4020f7c:	10a00004 	addi	r2,r2,-32768
 4020f80:	e17fff17 	ldw	r5,-4(fp)
 4020f84:	1009883a 	mov	r4,r2
 4020f88:	4020fcc0 	call	4020fcc <Extract_Colors>
 	Extract_Colors((Data&0xFFFF0000)>>16,Storage+3);
 4020f8c:	e0bffe17 	ldw	r2,-8(fp)
 4020f90:	1004d43a 	srli	r2,r2,16
 4020f94:	10ffffcc 	andi	r3,r2,65535
 4020f98:	18e0001c 	xori	r3,r3,32768
 4020f9c:	18e00004 	addi	r3,r3,-32768
 4020fa0:	e0bfff17 	ldw	r2,-4(fp)
 4020fa4:	10800304 	addi	r2,r2,12
 4020fa8:	100b883a 	mov	r5,r2
 4020fac:	1809883a 	mov	r4,r3
 4020fb0:	4020fcc0 	call	4020fcc <Extract_Colors>

 }
 4020fb4:	0001883a 	nop
 4020fb8:	e037883a 	mov	sp,fp
 4020fbc:	dfc00117 	ldw	ra,4(sp)
 4020fc0:	df000017 	ldw	fp,0(sp)
 4020fc4:	dec00204 	addi	sp,sp,8
 4020fc8:	f800283a 	ret

04020fcc <Extract_Colors>:
 void Extract_Colors(int16_t Data,int* Storage)
 {
 4020fcc:	defff904 	addi	sp,sp,-28
 4020fd0:	df000615 	stw	fp,24(sp)
 4020fd4:	df000604 	addi	fp,sp,24
 4020fd8:	2005883a 	mov	r2,r4
 4020fdc:	e17fff15 	stw	r5,-4(fp)
 4020fe0:	e0bffe0d 	sth	r2,-8(fp)
 	int Red=0, Blue=0, Green=0;
 4020fe4:	e03ffa15 	stw	zero,-24(fp)
 4020fe8:	e03ffb15 	stw	zero,-20(fp)
 4020fec:	e03ffc15 	stw	zero,-16(fp)
 	Red=(Data & 0xF800)>>11;
 4020ff0:	e0bffe0f 	ldh	r2,-8(fp)
 4020ff4:	10be000c 	andi	r2,r2,63488
 4020ff8:	1005d2fa 	srai	r2,r2,11
 4020ffc:	e0bffa15 	stw	r2,-24(fp)
 	Blue=(Data & 0x001F);
 4021000:	e0bffe0b 	ldhu	r2,-8(fp)
 4021004:	10bfffcc 	andi	r2,r2,65535
 4021008:	108007cc 	andi	r2,r2,31
 402100c:	e0bffb15 	stw	r2,-20(fp)
 	Green=(Data & 0x07E0)>>5;
 4021010:	e0bffe0b 	ldhu	r2,-8(fp)
 4021014:	10bfffcc 	andi	r2,r2,65535
 4021018:	1081f80c 	andi	r2,r2,2016
 402101c:	1005d17a 	srai	r2,r2,5
 4021020:	e0bffc15 	stw	r2,-16(fp)
 	int Color=Red;
 4021024:	e0bffa17 	ldw	r2,-24(fp)
 4021028:	e0bffd15 	stw	r2,-12(fp)
 	if(Color>32)
 402102c:	e0bffd17 	ldw	r2,-12(fp)
 4021030:	10800850 	cmplti	r2,r2,33
 4021034:	1000041e 	bne	r2,zero,4021048 <Extract_Colors+0x7c>
 		Storage[0]=32;
 4021038:	e0bfff17 	ldw	r2,-4(fp)
 402103c:	00c00804 	movi	r3,32
 4021040:	10c00015 	stw	r3,0(r2)
 4021044:	00000306 	br	4021054 <Extract_Colors+0x88>
 	else
 		Storage[0]=Color;
 4021048:	e0bfff17 	ldw	r2,-4(fp)
 402104c:	e0fffd17 	ldw	r3,-12(fp)
 4021050:	10c00015 	stw	r3,0(r2)
 	Color=Green/2;
 4021054:	e0bffc17 	ldw	r2,-16(fp)
 4021058:	1006d7fa 	srli	r3,r2,31
 402105c:	1885883a 	add	r2,r3,r2
 4021060:	1005d07a 	srai	r2,r2,1
 4021064:	e0bffd15 	stw	r2,-12(fp)
 	if(Color>32)
 4021068:	e0bffd17 	ldw	r2,-12(fp)
 402106c:	10800850 	cmplti	r2,r2,33
 4021070:	1000051e 	bne	r2,zero,4021088 <Extract_Colors+0xbc>
 		Storage[1]=32;
 4021074:	e0bfff17 	ldw	r2,-4(fp)
 4021078:	10800104 	addi	r2,r2,4
 402107c:	00c00804 	movi	r3,32
 4021080:	10c00015 	stw	r3,0(r2)
 4021084:	00000406 	br	4021098 <Extract_Colors+0xcc>
 	else
 		Storage[1]=Color;
 4021088:	e0bfff17 	ldw	r2,-4(fp)
 402108c:	10800104 	addi	r2,r2,4
 4021090:	e0fffd17 	ldw	r3,-12(fp)
 4021094:	10c00015 	stw	r3,0(r2)
 	Color=Blue;
 4021098:	e0bffb17 	ldw	r2,-20(fp)
 402109c:	e0bffd15 	stw	r2,-12(fp)
 	if(Color>32)
 40210a0:	e0bffd17 	ldw	r2,-12(fp)
 40210a4:	10800850 	cmplti	r2,r2,33
 40210a8:	1000051e 	bne	r2,zero,40210c0 <Extract_Colors+0xf4>
 		Storage[2]=32;
 40210ac:	e0bfff17 	ldw	r2,-4(fp)
 40210b0:	10800204 	addi	r2,r2,8
 40210b4:	00c00804 	movi	r3,32
 40210b8:	10c00015 	stw	r3,0(r2)
 	else
 		Storage[2]=Color;
 	return ;
 40210bc:	00000506 	br	40210d4 <Extract_Colors+0x108>
 		Storage[1]=Color;
 	Color=Blue;
 	if(Color>32)
 		Storage[2]=32;
 	else
 		Storage[2]=Color;
 40210c0:	e0bfff17 	ldw	r2,-4(fp)
 40210c4:	10800204 	addi	r2,r2,8
 40210c8:	e0fffd17 	ldw	r3,-12(fp)
 40210cc:	10c00015 	stw	r3,0(r2)
 	return ;
 40210d0:	0001883a 	nop
 }
 40210d4:	e037883a 	mov	sp,fp
 40210d8:	df000017 	ldw	fp,0(sp)
 40210dc:	dec00104 	addi	sp,sp,4
 40210e0:	f800283a 	ret

040210e4 <Partial_Image>:
#include "Function_Header.h"

//------------------------------------------------------------------------------------------------

void Partial_Image(int Start_Address, int Length, int Color) // Function to display in the desired area the desired color.
{
 40210e4:	defff904 	addi	sp,sp,-28
 40210e8:	dfc00615 	stw	ra,24(sp)
 40210ec:	df000515 	stw	fp,20(sp)
 40210f0:	df000504 	addi	fp,sp,20
 40210f4:	e13ffd15 	stw	r4,-12(fp)
 40210f8:	e17ffe15 	stw	r5,-8(fp)
 40210fc:	e1bfff15 	stw	r6,-4(fp)
	volatile int i;
	volatile int Verif;

	for (i = 0; i <= Length; i += 2) {
 4021100:	e03ffb15 	stw	zero,-20(fp)
 4021104:	00001706 	br	4021164 <Partial_Image+0x80>
		IOWR_16DIRECT(Start_Address, i, Color);
 4021108:	e0bffb17 	ldw	r2,-20(fp)
 402110c:	1007883a 	mov	r3,r2
 4021110:	e0bffd17 	ldw	r2,-12(fp)
 4021114:	1885883a 	add	r2,r3,r2
 4021118:	1007883a 	mov	r3,r2
 402111c:	e0bfff0b 	ldhu	r2,-4(fp)
 4021120:	1880002d 	sthio	r2,0(r3)
		Verif = IORD_16DIRECT(Start_Address, i);
 4021124:	e0bffb17 	ldw	r2,-20(fp)
 4021128:	1007883a 	mov	r3,r2
 402112c:	e0bffd17 	ldw	r2,-12(fp)
 4021130:	1885883a 	add	r2,r3,r2
 4021134:	1080002b 	ldhuio	r2,0(r2)
 4021138:	10bfffcc 	andi	r2,r2,65535
 402113c:	e0bffc15 	stw	r2,-16(fp)
		if (Verif != Color) {
 4021140:	e0fffc17 	ldw	r3,-16(fp)
 4021144:	e0bfff17 	ldw	r2,-4(fp)
 4021148:	18800326 	beq	r3,r2,4021158 <Partial_Image+0x74>
			printf("Error: Data read does not corresponds to data written !\n");
 402114c:	010100f4 	movhi	r4,1027
 4021150:	211d2904 	addi	r4,r4,29860
 4021154:	40263740 	call	4026374 <puts>
void Partial_Image(int Start_Address, int Length, int Color) // Function to display in the desired area the desired color.
{
	volatile int i;
	volatile int Verif;

	for (i = 0; i <= Length; i += 2) {
 4021158:	e0bffb17 	ldw	r2,-20(fp)
 402115c:	10800084 	addi	r2,r2,2
 4021160:	e0bffb15 	stw	r2,-20(fp)
 4021164:	e0bffb17 	ldw	r2,-20(fp)
 4021168:	e0fffe17 	ldw	r3,-8(fp)
 402116c:	18bfe60e 	bge	r3,r2,4021108 <_gp+0xfffdfc6c>
		if (Verif != Color) {
			printf("Error: Data read does not corresponds to data written !\n");
		}
	}

	printf("Memory filled !\n");
 4021170:	010100f4 	movhi	r4,1027
 4021174:	211d3704 	addi	r4,r4,29916
 4021178:	40263740 	call	4026374 <puts>
}
 402117c:	0001883a 	nop
 4021180:	e037883a 	mov	sp,fp
 4021184:	dfc00117 	ldw	ra,4(sp)
 4021188:	df000017 	ldw	fp,0(sp)
 402118c:	dec00204 	addi	sp,sp,8
 4021190:	f800283a 	ret

04021194 <Gray_Scale>:

//------------------------------------------------------------------------------------------------
void Gray_Scale(int Start_Address) // Function to create a scale of gray.
{
 4021194:	defffc04 	addi	sp,sp,-16
 4021198:	df000315 	stw	fp,12(sp)
 402119c:	df000304 	addi	fp,sp,12
 40211a0:	e13fff15 	stw	r4,-4(fp)
	volatile int i;
	volatile int j;

	for (i = 0; i < 240; i ++) {
 40211a4:	e03ffd15 	stw	zero,-12(fp)
 40211a8:	0001bb06 	br	4021898 <Gray_Scale+0x704>
		if ((i >= 0) & (i < 15)) {
 40211ac:	e0bffd17 	ldw	r2,-12(fp)
 40211b0:	0084303a 	nor	r2,zero,r2
 40211b4:	1004d7fa 	srli	r2,r2,31
 40211b8:	1007883a 	mov	r3,r2
 40211bc:	e0bffd17 	ldw	r2,-12(fp)
 40211c0:	108003d0 	cmplti	r2,r2,15
 40211c4:	1884703a 	and	r2,r3,r2
 40211c8:	10803fcc 	andi	r2,r2,255
 40211cc:	10001426 	beq	r2,zero,4021220 <Gray_Scale+0x8c>
			for (j = 0; j < 320; j ++) {
 40211d0:	e03ffe15 	stw	zero,-8(fp)
 40211d4:	00000e06 	br	4021210 <Gray_Scale+0x7c>
				IOWR_16DIRECT(Start_Address, 640*i + 2*j, 0b0000000000100000);
 40211d8:	e0bffd17 	ldw	r2,-12(fp)
 40211dc:	10c05024 	muli	r3,r2,320
 40211e0:	e0bffe17 	ldw	r2,-8(fp)
 40211e4:	1885883a 	add	r2,r3,r2
 40211e8:	1085883a 	add	r2,r2,r2
 40211ec:	1007883a 	mov	r3,r2
 40211f0:	e0bfff17 	ldw	r2,-4(fp)
 40211f4:	1885883a 	add	r2,r3,r2
 40211f8:	1007883a 	mov	r3,r2
 40211fc:	00800804 	movi	r2,32
 4021200:	1880002d 	sthio	r2,0(r3)
	volatile int i;
	volatile int j;

	for (i = 0; i < 240; i ++) {
		if ((i >= 0) & (i < 15)) {
			for (j = 0; j < 320; j ++) {
 4021204:	e0bffe17 	ldw	r2,-8(fp)
 4021208:	10800044 	addi	r2,r2,1
 402120c:	e0bffe15 	stw	r2,-8(fp)
 4021210:	e0bffe17 	ldw	r2,-8(fp)
 4021214:	10805010 	cmplti	r2,r2,320
 4021218:	103fef1e 	bne	r2,zero,40211d8 <_gp+0xfffdfd3c>
 402121c:	00019b06 	br	402188c <Gray_Scale+0x6f8>
				IOWR_16DIRECT(Start_Address, 640*i + 2*j, 0b0000000000100000);
			}
		}
		else if ((i >= 15) & (i < 30)) {
 4021220:	e0bffd17 	ldw	r2,-12(fp)
 4021224:	108003c8 	cmpgei	r2,r2,15
 4021228:	1007883a 	mov	r3,r2
 402122c:	e0bffd17 	ldw	r2,-12(fp)
 4021230:	10800790 	cmplti	r2,r2,30
 4021234:	1884703a 	and	r2,r3,r2
 4021238:	10803fcc 	andi	r2,r2,255
 402123c:	10001426 	beq	r2,zero,4021290 <Gray_Scale+0xfc>
			for (j = 0; j < 320; j ++) {
 4021240:	e03ffe15 	stw	zero,-8(fp)
 4021244:	00000e06 	br	4021280 <Gray_Scale+0xec>
				IOWR_16DIRECT(Start_Address, 640*i + 2*j, 0b0000000001100000);
 4021248:	e0bffd17 	ldw	r2,-12(fp)
 402124c:	10c05024 	muli	r3,r2,320
 4021250:	e0bffe17 	ldw	r2,-8(fp)
 4021254:	1885883a 	add	r2,r3,r2
 4021258:	1085883a 	add	r2,r2,r2
 402125c:	1007883a 	mov	r3,r2
 4021260:	e0bfff17 	ldw	r2,-4(fp)
 4021264:	1885883a 	add	r2,r3,r2
 4021268:	1007883a 	mov	r3,r2
 402126c:	00801804 	movi	r2,96
 4021270:	1880002d 	sthio	r2,0(r3)
			for (j = 0; j < 320; j ++) {
				IOWR_16DIRECT(Start_Address, 640*i + 2*j, 0b0000000000100000);
			}
		}
		else if ((i >= 15) & (i < 30)) {
			for (j = 0; j < 320; j ++) {
 4021274:	e0bffe17 	ldw	r2,-8(fp)
 4021278:	10800044 	addi	r2,r2,1
 402127c:	e0bffe15 	stw	r2,-8(fp)
 4021280:	e0bffe17 	ldw	r2,-8(fp)
 4021284:	10805010 	cmplti	r2,r2,320
 4021288:	103fef1e 	bne	r2,zero,4021248 <_gp+0xfffdfdac>
 402128c:	00017f06 	br	402188c <Gray_Scale+0x6f8>
				IOWR_16DIRECT(Start_Address, 640*i + 2*j, 0b0000000001100000);
			}
		}
		else if ((i >= 30) & (i < 45)) {
 4021290:	e0bffd17 	ldw	r2,-12(fp)
 4021294:	10800788 	cmpgei	r2,r2,30
 4021298:	1007883a 	mov	r3,r2
 402129c:	e0bffd17 	ldw	r2,-12(fp)
 40212a0:	10800b50 	cmplti	r2,r2,45
 40212a4:	1884703a 	and	r2,r3,r2
 40212a8:	10803fcc 	andi	r2,r2,255
 40212ac:	10001426 	beq	r2,zero,4021300 <Gray_Scale+0x16c>
			for (j = 0; j < 320; j ++) {
 40212b0:	e03ffe15 	stw	zero,-8(fp)
 40212b4:	00000e06 	br	40212f0 <Gray_Scale+0x15c>
				IOWR_16DIRECT(Start_Address, 640*i + 2*j, 0b0000000011100000);
 40212b8:	e0bffd17 	ldw	r2,-12(fp)
 40212bc:	10c05024 	muli	r3,r2,320
 40212c0:	e0bffe17 	ldw	r2,-8(fp)
 40212c4:	1885883a 	add	r2,r3,r2
 40212c8:	1085883a 	add	r2,r2,r2
 40212cc:	1007883a 	mov	r3,r2
 40212d0:	e0bfff17 	ldw	r2,-4(fp)
 40212d4:	1885883a 	add	r2,r3,r2
 40212d8:	1007883a 	mov	r3,r2
 40212dc:	00803804 	movi	r2,224
 40212e0:	1880002d 	sthio	r2,0(r3)
			for (j = 0; j < 320; j ++) {
				IOWR_16DIRECT(Start_Address, 640*i + 2*j, 0b0000000001100000);
			}
		}
		else if ((i >= 30) & (i < 45)) {
			for (j = 0; j < 320; j ++) {
 40212e4:	e0bffe17 	ldw	r2,-8(fp)
 40212e8:	10800044 	addi	r2,r2,1
 40212ec:	e0bffe15 	stw	r2,-8(fp)
 40212f0:	e0bffe17 	ldw	r2,-8(fp)
 40212f4:	10805010 	cmplti	r2,r2,320
 40212f8:	103fef1e 	bne	r2,zero,40212b8 <_gp+0xfffdfe1c>
 40212fc:	00016306 	br	402188c <Gray_Scale+0x6f8>
				IOWR_16DIRECT(Start_Address, 640*i + 2*j, 0b0000000011100000);
			}
		}
		else if ((i >= 45) & (i < 60)) {
 4021300:	e0bffd17 	ldw	r2,-12(fp)
 4021304:	10800b48 	cmpgei	r2,r2,45
 4021308:	1007883a 	mov	r3,r2
 402130c:	e0bffd17 	ldw	r2,-12(fp)
 4021310:	10800f10 	cmplti	r2,r2,60
 4021314:	1884703a 	and	r2,r3,r2
 4021318:	10803fcc 	andi	r2,r2,255
 402131c:	10001426 	beq	r2,zero,4021370 <Gray_Scale+0x1dc>
			for (j = 0; j < 320; j ++) {
 4021320:	e03ffe15 	stw	zero,-8(fp)
 4021324:	00000e06 	br	4021360 <Gray_Scale+0x1cc>
				IOWR_16DIRECT(Start_Address, 640*i + 2*j, 0b0000000111100000);
 4021328:	e0bffd17 	ldw	r2,-12(fp)
 402132c:	10c05024 	muli	r3,r2,320
 4021330:	e0bffe17 	ldw	r2,-8(fp)
 4021334:	1885883a 	add	r2,r3,r2
 4021338:	1085883a 	add	r2,r2,r2
 402133c:	1007883a 	mov	r3,r2
 4021340:	e0bfff17 	ldw	r2,-4(fp)
 4021344:	1885883a 	add	r2,r3,r2
 4021348:	1007883a 	mov	r3,r2
 402134c:	00807804 	movi	r2,480
 4021350:	1880002d 	sthio	r2,0(r3)
			for (j = 0; j < 320; j ++) {
				IOWR_16DIRECT(Start_Address, 640*i + 2*j, 0b0000000011100000);
			}
		}
		else if ((i >= 45) & (i < 60)) {
			for (j = 0; j < 320; j ++) {
 4021354:	e0bffe17 	ldw	r2,-8(fp)
 4021358:	10800044 	addi	r2,r2,1
 402135c:	e0bffe15 	stw	r2,-8(fp)
 4021360:	e0bffe17 	ldw	r2,-8(fp)
 4021364:	10805010 	cmplti	r2,r2,320
 4021368:	103fef1e 	bne	r2,zero,4021328 <_gp+0xfffdfe8c>
 402136c:	00014706 	br	402188c <Gray_Scale+0x6f8>
				IOWR_16DIRECT(Start_Address, 640*i + 2*j, 0b0000000111100000);
			}
		}
		else if ((i >= 60) & (i < 75)) {
 4021370:	e0bffd17 	ldw	r2,-12(fp)
 4021374:	10800f08 	cmpgei	r2,r2,60
 4021378:	1007883a 	mov	r3,r2
 402137c:	e0bffd17 	ldw	r2,-12(fp)
 4021380:	108012d0 	cmplti	r2,r2,75
 4021384:	1884703a 	and	r2,r3,r2
 4021388:	10803fcc 	andi	r2,r2,255
 402138c:	10001426 	beq	r2,zero,40213e0 <Gray_Scale+0x24c>
			for (j = 0; j < 320; j ++) {
 4021390:	e03ffe15 	stw	zero,-8(fp)
 4021394:	00000e06 	br	40213d0 <Gray_Scale+0x23c>
				IOWR_16DIRECT(Start_Address, 640*i + 2*j, 0b0000001111100000);
 4021398:	e0bffd17 	ldw	r2,-12(fp)
 402139c:	10c05024 	muli	r3,r2,320
 40213a0:	e0bffe17 	ldw	r2,-8(fp)
 40213a4:	1885883a 	add	r2,r3,r2
 40213a8:	1085883a 	add	r2,r2,r2
 40213ac:	1007883a 	mov	r3,r2
 40213b0:	e0bfff17 	ldw	r2,-4(fp)
 40213b4:	1885883a 	add	r2,r3,r2
 40213b8:	1007883a 	mov	r3,r2
 40213bc:	0080f804 	movi	r2,992
 40213c0:	1880002d 	sthio	r2,0(r3)
			for (j = 0; j < 320; j ++) {
				IOWR_16DIRECT(Start_Address, 640*i + 2*j, 0b0000000111100000);
			}
		}
		else if ((i >= 60) & (i < 75)) {
			for (j = 0; j < 320; j ++) {
 40213c4:	e0bffe17 	ldw	r2,-8(fp)
 40213c8:	10800044 	addi	r2,r2,1
 40213cc:	e0bffe15 	stw	r2,-8(fp)
 40213d0:	e0bffe17 	ldw	r2,-8(fp)
 40213d4:	10805010 	cmplti	r2,r2,320
 40213d8:	103fef1e 	bne	r2,zero,4021398 <_gp+0xfffdfefc>
 40213dc:	00012b06 	br	402188c <Gray_Scale+0x6f8>
				IOWR_16DIRECT(Start_Address, 640*i + 2*j, 0b0000001111100000);
			}
		}
		else if ((i >= 75) & (i < 90)) {
 40213e0:	e0bffd17 	ldw	r2,-12(fp)
 40213e4:	108012c8 	cmpgei	r2,r2,75
 40213e8:	1007883a 	mov	r3,r2
 40213ec:	e0bffd17 	ldw	r2,-12(fp)
 40213f0:	10801690 	cmplti	r2,r2,90
 40213f4:	1884703a 	and	r2,r3,r2
 40213f8:	10803fcc 	andi	r2,r2,255
 40213fc:	10001426 	beq	r2,zero,4021450 <Gray_Scale+0x2bc>
			for (j = 0; j < 320; j ++) {
 4021400:	e03ffe15 	stw	zero,-8(fp)
 4021404:	00000e06 	br	4021440 <Gray_Scale+0x2ac>
				IOWR_16DIRECT(Start_Address, 640*i + 2*j, 0b0000011111100000);
 4021408:	e0bffd17 	ldw	r2,-12(fp)
 402140c:	10c05024 	muli	r3,r2,320
 4021410:	e0bffe17 	ldw	r2,-8(fp)
 4021414:	1885883a 	add	r2,r3,r2
 4021418:	1085883a 	add	r2,r2,r2
 402141c:	1007883a 	mov	r3,r2
 4021420:	e0bfff17 	ldw	r2,-4(fp)
 4021424:	1885883a 	add	r2,r3,r2
 4021428:	1007883a 	mov	r3,r2
 402142c:	0081f804 	movi	r2,2016
 4021430:	1880002d 	sthio	r2,0(r3)
			for (j = 0; j < 320; j ++) {
				IOWR_16DIRECT(Start_Address, 640*i + 2*j, 0b0000001111100000);
			}
		}
		else if ((i >= 75) & (i < 90)) {
			for (j = 0; j < 320; j ++) {
 4021434:	e0bffe17 	ldw	r2,-8(fp)
 4021438:	10800044 	addi	r2,r2,1
 402143c:	e0bffe15 	stw	r2,-8(fp)
 4021440:	e0bffe17 	ldw	r2,-8(fp)
 4021444:	10805010 	cmplti	r2,r2,320
 4021448:	103fef1e 	bne	r2,zero,4021408 <_gp+0xfffdff6c>
 402144c:	00010f06 	br	402188c <Gray_Scale+0x6f8>
				IOWR_16DIRECT(Start_Address, 640*i + 2*j, 0b0000011111100000);
			}
		}
		else if ((i >= 90) & (i < 105)) {
 4021450:	e0bffd17 	ldw	r2,-12(fp)
 4021454:	10801688 	cmpgei	r2,r2,90
 4021458:	1007883a 	mov	r3,r2
 402145c:	e0bffd17 	ldw	r2,-12(fp)
 4021460:	10801a50 	cmplti	r2,r2,105
 4021464:	1884703a 	and	r2,r3,r2
 4021468:	10803fcc 	andi	r2,r2,255
 402146c:	10001426 	beq	r2,zero,40214c0 <Gray_Scale+0x32c>
			for (j = 0; j < 320; j ++) {
 4021470:	e03ffe15 	stw	zero,-8(fp)
 4021474:	00000e06 	br	40214b0 <Gray_Scale+0x31c>
				IOWR_16DIRECT(Start_Address, 640*i + 2*j, 0b0000111111100000);
 4021478:	e0bffd17 	ldw	r2,-12(fp)
 402147c:	10c05024 	muli	r3,r2,320
 4021480:	e0bffe17 	ldw	r2,-8(fp)
 4021484:	1885883a 	add	r2,r3,r2
 4021488:	1085883a 	add	r2,r2,r2
 402148c:	1007883a 	mov	r3,r2
 4021490:	e0bfff17 	ldw	r2,-4(fp)
 4021494:	1885883a 	add	r2,r3,r2
 4021498:	1007883a 	mov	r3,r2
 402149c:	0083f804 	movi	r2,4064
 40214a0:	1880002d 	sthio	r2,0(r3)
			for (j = 0; j < 320; j ++) {
				IOWR_16DIRECT(Start_Address, 640*i + 2*j, 0b0000011111100000);
			}
		}
		else if ((i >= 90) & (i < 105)) {
			for (j = 0; j < 320; j ++) {
 40214a4:	e0bffe17 	ldw	r2,-8(fp)
 40214a8:	10800044 	addi	r2,r2,1
 40214ac:	e0bffe15 	stw	r2,-8(fp)
 40214b0:	e0bffe17 	ldw	r2,-8(fp)
 40214b4:	10805010 	cmplti	r2,r2,320
 40214b8:	103fef1e 	bne	r2,zero,4021478 <_gp+0xfffdffdc>
 40214bc:	0000f306 	br	402188c <Gray_Scale+0x6f8>
				IOWR_16DIRECT(Start_Address, 640*i + 2*j, 0b0000111111100000);
			}
		}
		else if ((i >= 105) & (i < 120)) {
 40214c0:	e0bffd17 	ldw	r2,-12(fp)
 40214c4:	10801a48 	cmpgei	r2,r2,105
 40214c8:	1007883a 	mov	r3,r2
 40214cc:	e0bffd17 	ldw	r2,-12(fp)
 40214d0:	10801e10 	cmplti	r2,r2,120
 40214d4:	1884703a 	and	r2,r3,r2
 40214d8:	10803fcc 	andi	r2,r2,255
 40214dc:	10001426 	beq	r2,zero,4021530 <Gray_Scale+0x39c>
			for (j = 0; j < 320; j ++) {
 40214e0:	e03ffe15 	stw	zero,-8(fp)
 40214e4:	00000e06 	br	4021520 <Gray_Scale+0x38c>
				IOWR_16DIRECT(Start_Address, 640*i + 2*j, 0b0001111111100000);
 40214e8:	e0bffd17 	ldw	r2,-12(fp)
 40214ec:	10c05024 	muli	r3,r2,320
 40214f0:	e0bffe17 	ldw	r2,-8(fp)
 40214f4:	1885883a 	add	r2,r3,r2
 40214f8:	1085883a 	add	r2,r2,r2
 40214fc:	1007883a 	mov	r3,r2
 4021500:	e0bfff17 	ldw	r2,-4(fp)
 4021504:	1885883a 	add	r2,r3,r2
 4021508:	1007883a 	mov	r3,r2
 402150c:	0087f804 	movi	r2,8160
 4021510:	1880002d 	sthio	r2,0(r3)
			for (j = 0; j < 320; j ++) {
				IOWR_16DIRECT(Start_Address, 640*i + 2*j, 0b0000111111100000);
			}
		}
		else if ((i >= 105) & (i < 120)) {
			for (j = 0; j < 320; j ++) {
 4021514:	e0bffe17 	ldw	r2,-8(fp)
 4021518:	10800044 	addi	r2,r2,1
 402151c:	e0bffe15 	stw	r2,-8(fp)
 4021520:	e0bffe17 	ldw	r2,-8(fp)
 4021524:	10805010 	cmplti	r2,r2,320
 4021528:	103fef1e 	bne	r2,zero,40214e8 <_gp+0xfffe004c>
 402152c:	0000d706 	br	402188c <Gray_Scale+0x6f8>
				IOWR_16DIRECT(Start_Address, 640*i + 2*j, 0b0001111111100000);
			}
		}
		else if ((i >= 120) & (i < 135)) {
 4021530:	e0bffd17 	ldw	r2,-12(fp)
 4021534:	10801e08 	cmpgei	r2,r2,120
 4021538:	1007883a 	mov	r3,r2
 402153c:	e0bffd17 	ldw	r2,-12(fp)
 4021540:	108021d0 	cmplti	r2,r2,135
 4021544:	1884703a 	and	r2,r3,r2
 4021548:	10803fcc 	andi	r2,r2,255
 402154c:	10001426 	beq	r2,zero,40215a0 <Gray_Scale+0x40c>
			for (j = 0; j < 320; j ++) {
 4021550:	e03ffe15 	stw	zero,-8(fp)
 4021554:	00000e06 	br	4021590 <Gray_Scale+0x3fc>
				IOWR_16DIRECT(Start_Address, 640*i + 2*j, 0b0011111111100000);
 4021558:	e0bffd17 	ldw	r2,-12(fp)
 402155c:	10c05024 	muli	r3,r2,320
 4021560:	e0bffe17 	ldw	r2,-8(fp)
 4021564:	1885883a 	add	r2,r3,r2
 4021568:	1085883a 	add	r2,r2,r2
 402156c:	1007883a 	mov	r3,r2
 4021570:	e0bfff17 	ldw	r2,-4(fp)
 4021574:	1885883a 	add	r2,r3,r2
 4021578:	1007883a 	mov	r3,r2
 402157c:	008ff804 	movi	r2,16352
 4021580:	1880002d 	sthio	r2,0(r3)
			for (j = 0; j < 320; j ++) {
				IOWR_16DIRECT(Start_Address, 640*i + 2*j, 0b0001111111100000);
			}
		}
		else if ((i >= 120) & (i < 135)) {
			for (j = 0; j < 320; j ++) {
 4021584:	e0bffe17 	ldw	r2,-8(fp)
 4021588:	10800044 	addi	r2,r2,1
 402158c:	e0bffe15 	stw	r2,-8(fp)
 4021590:	e0bffe17 	ldw	r2,-8(fp)
 4021594:	10805010 	cmplti	r2,r2,320
 4021598:	103fef1e 	bne	r2,zero,4021558 <_gp+0xfffe00bc>
 402159c:	0000bb06 	br	402188c <Gray_Scale+0x6f8>
				IOWR_16DIRECT(Start_Address, 640*i + 2*j, 0b0011111111100000);
			}
		}
		else if ((i >= 135) & (i < 150)) {
 40215a0:	e0bffd17 	ldw	r2,-12(fp)
 40215a4:	108021c8 	cmpgei	r2,r2,135
 40215a8:	1007883a 	mov	r3,r2
 40215ac:	e0bffd17 	ldw	r2,-12(fp)
 40215b0:	10802590 	cmplti	r2,r2,150
 40215b4:	1884703a 	and	r2,r3,r2
 40215b8:	10803fcc 	andi	r2,r2,255
 40215bc:	10001426 	beq	r2,zero,4021610 <Gray_Scale+0x47c>
			for (j = 0; j < 320; j ++) {
 40215c0:	e03ffe15 	stw	zero,-8(fp)
 40215c4:	00000e06 	br	4021600 <Gray_Scale+0x46c>
				IOWR_16DIRECT(Start_Address, 640*i + 2*j, 0b0111111111100000);
 40215c8:	e0bffd17 	ldw	r2,-12(fp)
 40215cc:	10c05024 	muli	r3,r2,320
 40215d0:	e0bffe17 	ldw	r2,-8(fp)
 40215d4:	1885883a 	add	r2,r3,r2
 40215d8:	1085883a 	add	r2,r2,r2
 40215dc:	1007883a 	mov	r3,r2
 40215e0:	e0bfff17 	ldw	r2,-4(fp)
 40215e4:	1885883a 	add	r2,r3,r2
 40215e8:	1007883a 	mov	r3,r2
 40215ec:	009ff804 	movi	r2,32736
 40215f0:	1880002d 	sthio	r2,0(r3)
			for (j = 0; j < 320; j ++) {
				IOWR_16DIRECT(Start_Address, 640*i + 2*j, 0b0011111111100000);
			}
		}
		else if ((i >= 135) & (i < 150)) {
			for (j = 0; j < 320; j ++) {
 40215f4:	e0bffe17 	ldw	r2,-8(fp)
 40215f8:	10800044 	addi	r2,r2,1
 40215fc:	e0bffe15 	stw	r2,-8(fp)
 4021600:	e0bffe17 	ldw	r2,-8(fp)
 4021604:	10805010 	cmplti	r2,r2,320
 4021608:	103fef1e 	bne	r2,zero,40215c8 <_gp+0xfffe012c>
 402160c:	00009f06 	br	402188c <Gray_Scale+0x6f8>
				IOWR_16DIRECT(Start_Address, 640*i + 2*j, 0b0111111111100000);
			}
		}
		else if ((i >= 150) & (i < 165)) {
 4021610:	e0bffd17 	ldw	r2,-12(fp)
 4021614:	10802588 	cmpgei	r2,r2,150
 4021618:	1007883a 	mov	r3,r2
 402161c:	e0bffd17 	ldw	r2,-12(fp)
 4021620:	10802950 	cmplti	r2,r2,165
 4021624:	1884703a 	and	r2,r3,r2
 4021628:	10803fcc 	andi	r2,r2,255
 402162c:	10001426 	beq	r2,zero,4021680 <Gray_Scale+0x4ec>
			for (j = 0; j < 320; j ++) {
 4021630:	e03ffe15 	stw	zero,-8(fp)
 4021634:	00000e06 	br	4021670 <Gray_Scale+0x4dc>
				IOWR_16DIRECT(Start_Address, 640*i + 2*j, 0b1111111111100000);
 4021638:	e0bffd17 	ldw	r2,-12(fp)
 402163c:	10c05024 	muli	r3,r2,320
 4021640:	e0bffe17 	ldw	r2,-8(fp)
 4021644:	1885883a 	add	r2,r3,r2
 4021648:	1085883a 	add	r2,r2,r2
 402164c:	1007883a 	mov	r3,r2
 4021650:	e0bfff17 	ldw	r2,-4(fp)
 4021654:	1885883a 	add	r2,r3,r2
 4021658:	1007883a 	mov	r3,r2
 402165c:	00bff804 	movi	r2,-32
 4021660:	1880002d 	sthio	r2,0(r3)
			for (j = 0; j < 320; j ++) {
				IOWR_16DIRECT(Start_Address, 640*i + 2*j, 0b0111111111100000);
			}
		}
		else if ((i >= 150) & (i < 165)) {
			for (j = 0; j < 320; j ++) {
 4021664:	e0bffe17 	ldw	r2,-8(fp)
 4021668:	10800044 	addi	r2,r2,1
 402166c:	e0bffe15 	stw	r2,-8(fp)
 4021670:	e0bffe17 	ldw	r2,-8(fp)
 4021674:	10805010 	cmplti	r2,r2,320
 4021678:	103fef1e 	bne	r2,zero,4021638 <_gp+0xfffe019c>
 402167c:	00008306 	br	402188c <Gray_Scale+0x6f8>
				IOWR_16DIRECT(Start_Address, 640*i + 2*j, 0b1111111111100000);
			}
		}
		else if ((i >= 165) & (i < 180)) {
 4021680:	e0bffd17 	ldw	r2,-12(fp)
 4021684:	10802948 	cmpgei	r2,r2,165
 4021688:	1007883a 	mov	r3,r2
 402168c:	e0bffd17 	ldw	r2,-12(fp)
 4021690:	10802d10 	cmplti	r2,r2,180
 4021694:	1884703a 	and	r2,r3,r2
 4021698:	10803fcc 	andi	r2,r2,255
 402169c:	10001426 	beq	r2,zero,40216f0 <Gray_Scale+0x55c>
			for (j = 0; j < 320; j ++) {
 40216a0:	e03ffe15 	stw	zero,-8(fp)
 40216a4:	00000e06 	br	40216e0 <Gray_Scale+0x54c>
				IOWR_16DIRECT(Start_Address, 640*i + 2*j, 0b1111111111100001);
 40216a8:	e0bffd17 	ldw	r2,-12(fp)
 40216ac:	10c05024 	muli	r3,r2,320
 40216b0:	e0bffe17 	ldw	r2,-8(fp)
 40216b4:	1885883a 	add	r2,r3,r2
 40216b8:	1085883a 	add	r2,r2,r2
 40216bc:	1007883a 	mov	r3,r2
 40216c0:	e0bfff17 	ldw	r2,-4(fp)
 40216c4:	1885883a 	add	r2,r3,r2
 40216c8:	1007883a 	mov	r3,r2
 40216cc:	00bff844 	movi	r2,-31
 40216d0:	1880002d 	sthio	r2,0(r3)
			for (j = 0; j < 320; j ++) {
				IOWR_16DIRECT(Start_Address, 640*i + 2*j, 0b1111111111100000);
			}
		}
		else if ((i >= 165) & (i < 180)) {
			for (j = 0; j < 320; j ++) {
 40216d4:	e0bffe17 	ldw	r2,-8(fp)
 40216d8:	10800044 	addi	r2,r2,1
 40216dc:	e0bffe15 	stw	r2,-8(fp)
 40216e0:	e0bffe17 	ldw	r2,-8(fp)
 40216e4:	10805010 	cmplti	r2,r2,320
 40216e8:	103fef1e 	bne	r2,zero,40216a8 <_gp+0xfffe020c>
 40216ec:	00006706 	br	402188c <Gray_Scale+0x6f8>
				IOWR_16DIRECT(Start_Address, 640*i + 2*j, 0b1111111111100001);
			}
		}
		else if ((i >= 180) & (i < 195)) {
 40216f0:	e0bffd17 	ldw	r2,-12(fp)
 40216f4:	10802d08 	cmpgei	r2,r2,180
 40216f8:	1007883a 	mov	r3,r2
 40216fc:	e0bffd17 	ldw	r2,-12(fp)
 4021700:	108030d0 	cmplti	r2,r2,195
 4021704:	1884703a 	and	r2,r3,r2
 4021708:	10803fcc 	andi	r2,r2,255
 402170c:	10001426 	beq	r2,zero,4021760 <Gray_Scale+0x5cc>
			for (j = 0; j < 320; j ++) {
 4021710:	e03ffe15 	stw	zero,-8(fp)
 4021714:	00000e06 	br	4021750 <Gray_Scale+0x5bc>
				IOWR_16DIRECT(Start_Address, 640*i + 2*j, 0b1111111111100011);
 4021718:	e0bffd17 	ldw	r2,-12(fp)
 402171c:	10c05024 	muli	r3,r2,320
 4021720:	e0bffe17 	ldw	r2,-8(fp)
 4021724:	1885883a 	add	r2,r3,r2
 4021728:	1085883a 	add	r2,r2,r2
 402172c:	1007883a 	mov	r3,r2
 4021730:	e0bfff17 	ldw	r2,-4(fp)
 4021734:	1885883a 	add	r2,r3,r2
 4021738:	1007883a 	mov	r3,r2
 402173c:	00bff8c4 	movi	r2,-29
 4021740:	1880002d 	sthio	r2,0(r3)
			for (j = 0; j < 320; j ++) {
				IOWR_16DIRECT(Start_Address, 640*i + 2*j, 0b1111111111100001);
			}
		}
		else if ((i >= 180) & (i < 195)) {
			for (j = 0; j < 320; j ++) {
 4021744:	e0bffe17 	ldw	r2,-8(fp)
 4021748:	10800044 	addi	r2,r2,1
 402174c:	e0bffe15 	stw	r2,-8(fp)
 4021750:	e0bffe17 	ldw	r2,-8(fp)
 4021754:	10805010 	cmplti	r2,r2,320
 4021758:	103fef1e 	bne	r2,zero,4021718 <_gp+0xfffe027c>
 402175c:	00004b06 	br	402188c <Gray_Scale+0x6f8>
				IOWR_16DIRECT(Start_Address, 640*i + 2*j, 0b1111111111100011);
			}
		}
		else if ((i >= 195) & (i < 210)) {
 4021760:	e0bffd17 	ldw	r2,-12(fp)
 4021764:	108030c8 	cmpgei	r2,r2,195
 4021768:	1007883a 	mov	r3,r2
 402176c:	e0bffd17 	ldw	r2,-12(fp)
 4021770:	10803490 	cmplti	r2,r2,210
 4021774:	1884703a 	and	r2,r3,r2
 4021778:	10803fcc 	andi	r2,r2,255
 402177c:	10001426 	beq	r2,zero,40217d0 <Gray_Scale+0x63c>
			for (j = 0; j < 320; j ++) {
 4021780:	e03ffe15 	stw	zero,-8(fp)
 4021784:	00000e06 	br	40217c0 <Gray_Scale+0x62c>
				IOWR_16DIRECT(Start_Address, 640*i + 2*j, 0b1111111111100111);
 4021788:	e0bffd17 	ldw	r2,-12(fp)
 402178c:	10c05024 	muli	r3,r2,320
 4021790:	e0bffe17 	ldw	r2,-8(fp)
 4021794:	1885883a 	add	r2,r3,r2
 4021798:	1085883a 	add	r2,r2,r2
 402179c:	1007883a 	mov	r3,r2
 40217a0:	e0bfff17 	ldw	r2,-4(fp)
 40217a4:	1885883a 	add	r2,r3,r2
 40217a8:	1007883a 	mov	r3,r2
 40217ac:	00bff9c4 	movi	r2,-25
 40217b0:	1880002d 	sthio	r2,0(r3)
			for (j = 0; j < 320; j ++) {
				IOWR_16DIRECT(Start_Address, 640*i + 2*j, 0b1111111111100011);
			}
		}
		else if ((i >= 195) & (i < 210)) {
			for (j = 0; j < 320; j ++) {
 40217b4:	e0bffe17 	ldw	r2,-8(fp)
 40217b8:	10800044 	addi	r2,r2,1
 40217bc:	e0bffe15 	stw	r2,-8(fp)
 40217c0:	e0bffe17 	ldw	r2,-8(fp)
 40217c4:	10805010 	cmplti	r2,r2,320
 40217c8:	103fef1e 	bne	r2,zero,4021788 <_gp+0xfffe02ec>
 40217cc:	00002f06 	br	402188c <Gray_Scale+0x6f8>
				IOWR_16DIRECT(Start_Address, 640*i + 2*j, 0b1111111111100111);
			}
		}
		else if ((i >= 210) & (i < 225)) {
 40217d0:	e0bffd17 	ldw	r2,-12(fp)
 40217d4:	10803488 	cmpgei	r2,r2,210
 40217d8:	1007883a 	mov	r3,r2
 40217dc:	e0bffd17 	ldw	r2,-12(fp)
 40217e0:	10803850 	cmplti	r2,r2,225
 40217e4:	1884703a 	and	r2,r3,r2
 40217e8:	10803fcc 	andi	r2,r2,255
 40217ec:	10001426 	beq	r2,zero,4021840 <Gray_Scale+0x6ac>
			for (j = 0; j < 320; j ++) {
 40217f0:	e03ffe15 	stw	zero,-8(fp)
 40217f4:	00000e06 	br	4021830 <Gray_Scale+0x69c>
				IOWR_16DIRECT(Start_Address, 640*i + 2*j, 0b1111111111101111);
 40217f8:	e0bffd17 	ldw	r2,-12(fp)
 40217fc:	10c05024 	muli	r3,r2,320
 4021800:	e0bffe17 	ldw	r2,-8(fp)
 4021804:	1885883a 	add	r2,r3,r2
 4021808:	1085883a 	add	r2,r2,r2
 402180c:	1007883a 	mov	r3,r2
 4021810:	e0bfff17 	ldw	r2,-4(fp)
 4021814:	1885883a 	add	r2,r3,r2
 4021818:	1007883a 	mov	r3,r2
 402181c:	00bffbc4 	movi	r2,-17
 4021820:	1880002d 	sthio	r2,0(r3)
			for (j = 0; j < 320; j ++) {
				IOWR_16DIRECT(Start_Address, 640*i + 2*j, 0b1111111111100111);
			}
		}
		else if ((i >= 210) & (i < 225)) {
			for (j = 0; j < 320; j ++) {
 4021824:	e0bffe17 	ldw	r2,-8(fp)
 4021828:	10800044 	addi	r2,r2,1
 402182c:	e0bffe15 	stw	r2,-8(fp)
 4021830:	e0bffe17 	ldw	r2,-8(fp)
 4021834:	10805010 	cmplti	r2,r2,320
 4021838:	103fef1e 	bne	r2,zero,40217f8 <_gp+0xfffe035c>
 402183c:	00001306 	br	402188c <Gray_Scale+0x6f8>
				IOWR_16DIRECT(Start_Address, 640*i + 2*j, 0b1111111111101111);
			}
		}
		else {
			for (j = 0; j < 320; j ++) {
 4021840:	e03ffe15 	stw	zero,-8(fp)
 4021844:	00000e06 	br	4021880 <Gray_Scale+0x6ec>
				IOWR_16DIRECT(Start_Address, 640*i + 2*j, 0b1111111111111111);
 4021848:	e0bffd17 	ldw	r2,-12(fp)
 402184c:	10c05024 	muli	r3,r2,320
 4021850:	e0bffe17 	ldw	r2,-8(fp)
 4021854:	1885883a 	add	r2,r3,r2
 4021858:	1085883a 	add	r2,r2,r2
 402185c:	1007883a 	mov	r3,r2
 4021860:	e0bfff17 	ldw	r2,-4(fp)
 4021864:	1885883a 	add	r2,r3,r2
 4021868:	1007883a 	mov	r3,r2
 402186c:	00bfffc4 	movi	r2,-1
 4021870:	1880002d 	sthio	r2,0(r3)
			for (j = 0; j < 320; j ++) {
				IOWR_16DIRECT(Start_Address, 640*i + 2*j, 0b1111111111101111);
			}
		}
		else {
			for (j = 0; j < 320; j ++) {
 4021874:	e0bffe17 	ldw	r2,-8(fp)
 4021878:	10800044 	addi	r2,r2,1
 402187c:	e0bffe15 	stw	r2,-8(fp)
 4021880:	e0bffe17 	ldw	r2,-8(fp)
 4021884:	10805010 	cmplti	r2,r2,320
 4021888:	103fef1e 	bne	r2,zero,4021848 <_gp+0xfffe03ac>
void Gray_Scale(int Start_Address) // Function to create a scale of gray.
{
	volatile int i;
	volatile int j;

	for (i = 0; i < 240; i ++) {
 402188c:	e0bffd17 	ldw	r2,-12(fp)
 4021890:	10800044 	addi	r2,r2,1
 4021894:	e0bffd15 	stw	r2,-12(fp)
 4021898:	e0bffd17 	ldw	r2,-12(fp)
 402189c:	10803c10 	cmplti	r2,r2,240
 40218a0:	103e421e 	bne	r2,zero,40211ac <_gp+0xfffdfd10>
			for (j = 0; j < 320; j ++) {
				IOWR_16DIRECT(Start_Address, 640*i + 2*j, 0b1111111111111111);
			}
		}
	}
}
 40218a4:	0001883a 	nop
 40218a8:	e037883a 	mov	sp,fp
 40218ac:	df000017 	ldw	fp,0(sp)
 40218b0:	dec00104 	addi	sp,sp,4
 40218b4:	f800283a 	ret

040218b8 <RGB_Flag>:
void RGB_Flag(int Start_Address, int Length) // Function to display RGB colors.
{
 40218b8:	defff904 	addi	sp,sp,-28
 40218bc:	dfc00615 	stw	ra,24(sp)
 40218c0:	df000515 	stw	fp,20(sp)
 40218c4:	dc000415 	stw	r16,16(sp)
 40218c8:	df000504 	addi	fp,sp,20
 40218cc:	e13ffd15 	stw	r4,-12(fp)
 40218d0:	e17ffe15 	stw	r5,-8(fp)
	volatile int i;

	volatile int Verif;

	for (i = 0; i <= Length; i += 2) {
 40218d4:	e03ffb15 	stw	zero,-20(fp)
 40218d8:	00005b06 	br	4021a48 <RGB_Flag+0x190>
		if ( i <= Length/3) {
 40218dc:	e0bffe17 	ldw	r2,-8(fp)
 40218e0:	014000c4 	movi	r5,3
 40218e4:	1009883a 	mov	r4,r2
 40218e8:	4022b0c0 	call	4022b0c <__divsi3>
 40218ec:	1007883a 	mov	r3,r2
 40218f0:	e0bffb17 	ldw	r2,-20(fp)
 40218f4:	18801516 	blt	r3,r2,402194c <RGB_Flag+0x94>
			IOWR_16DIRECT(Start_Address, i, RED);
 40218f8:	e0bffb17 	ldw	r2,-20(fp)
 40218fc:	1007883a 	mov	r3,r2
 4021900:	e0bffd17 	ldw	r2,-12(fp)
 4021904:	1885883a 	add	r2,r3,r2
 4021908:	1007883a 	mov	r3,r2
 402190c:	00be0004 	movi	r2,-2048
 4021910:	1880002d 	sthio	r2,0(r3)
			Verif = IORD_16DIRECT(Start_Address, i);
 4021914:	e0bffb17 	ldw	r2,-20(fp)
 4021918:	1007883a 	mov	r3,r2
 402191c:	e0bffd17 	ldw	r2,-12(fp)
 4021920:	1885883a 	add	r2,r3,r2
 4021924:	1080002b 	ldhuio	r2,0(r2)
 4021928:	10bfffcc 	andi	r2,r2,65535
 402192c:	e0bffc15 	stw	r2,-16(fp)
			if (Verif != RED) {
 4021930:	e0fffc17 	ldw	r3,-16(fp)
 4021934:	00be0014 	movui	r2,63488
 4021938:	18804026 	beq	r3,r2,4021a3c <RGB_Flag+0x184>
				printf("Error: Data read does not corresponds to data written !\n");
 402193c:	010100f4 	movhi	r4,1027
 4021940:	211d2904 	addi	r4,r4,29860
 4021944:	40263740 	call	4026374 <puts>
 4021948:	00003c06 	br	4021a3c <RGB_Flag+0x184>
			}
		}
		else if ( (i > Length/3) & (i < (2*Length)/3)) {
 402194c:	e0bffe17 	ldw	r2,-8(fp)
 4021950:	014000c4 	movi	r5,3
 4021954:	1009883a 	mov	r4,r2
 4021958:	4022b0c0 	call	4022b0c <__divsi3>
 402195c:	1007883a 	mov	r3,r2
 4021960:	e0bffb17 	ldw	r2,-20(fp)
 4021964:	1884803a 	cmplt	r2,r3,r2
 4021968:	1021883a 	mov	r16,r2
 402196c:	e0bffe17 	ldw	r2,-8(fp)
 4021970:	1085883a 	add	r2,r2,r2
 4021974:	014000c4 	movi	r5,3
 4021978:	1009883a 	mov	r4,r2
 402197c:	4022b0c0 	call	4022b0c <__divsi3>
 4021980:	1007883a 	mov	r3,r2
 4021984:	e0bffb17 	ldw	r2,-20(fp)
 4021988:	10c4803a 	cmplt	r2,r2,r3
 402198c:	8084703a 	and	r2,r16,r2
 4021990:	10803fcc 	andi	r2,r2,255
 4021994:	10001526 	beq	r2,zero,40219ec <RGB_Flag+0x134>
			IOWR_16DIRECT(Start_Address,i,GREEN);
 4021998:	e0bffb17 	ldw	r2,-20(fp)
 402199c:	1007883a 	mov	r3,r2
 40219a0:	e0bffd17 	ldw	r2,-12(fp)
 40219a4:	1885883a 	add	r2,r3,r2
 40219a8:	1007883a 	mov	r3,r2
 40219ac:	0081f804 	movi	r2,2016
 40219b0:	1880002d 	sthio	r2,0(r3)
			Verif = IORD_16DIRECT(Start_Address,i);
 40219b4:	e0bffb17 	ldw	r2,-20(fp)
 40219b8:	1007883a 	mov	r3,r2
 40219bc:	e0bffd17 	ldw	r2,-12(fp)
 40219c0:	1885883a 	add	r2,r3,r2
 40219c4:	1080002b 	ldhuio	r2,0(r2)
 40219c8:	10bfffcc 	andi	r2,r2,65535
 40219cc:	e0bffc15 	stw	r2,-16(fp)
			if (Verif != GREEN) {
 40219d0:	e0bffc17 	ldw	r2,-16(fp)
 40219d4:	1081f820 	cmpeqi	r2,r2,2016
 40219d8:	1000181e 	bne	r2,zero,4021a3c <RGB_Flag+0x184>
				printf("Error !\n");
 40219dc:	010100f4 	movhi	r4,1027
 40219e0:	211d3b04 	addi	r4,r4,29932
 40219e4:	40263740 	call	4026374 <puts>
 40219e8:	00001406 	br	4021a3c <RGB_Flag+0x184>
			}
		}
		else {
			IOWR_16DIRECT(Start_Address,i,BLUE);
 40219ec:	e0bffb17 	ldw	r2,-20(fp)
 40219f0:	1007883a 	mov	r3,r2
 40219f4:	e0bffd17 	ldw	r2,-12(fp)
 40219f8:	1885883a 	add	r2,r3,r2
 40219fc:	1007883a 	mov	r3,r2
 4021a00:	008007c4 	movi	r2,31
 4021a04:	1880002d 	sthio	r2,0(r3)
			Verif = IORD_16DIRECT(Start_Address,i);
 4021a08:	e0bffb17 	ldw	r2,-20(fp)
 4021a0c:	1007883a 	mov	r3,r2
 4021a10:	e0bffd17 	ldw	r2,-12(fp)
 4021a14:	1885883a 	add	r2,r3,r2
 4021a18:	1080002b 	ldhuio	r2,0(r2)
 4021a1c:	10bfffcc 	andi	r2,r2,65535
 4021a20:	e0bffc15 	stw	r2,-16(fp)
			if (Verif != BLUE) {
 4021a24:	e0bffc17 	ldw	r2,-16(fp)
 4021a28:	108007e0 	cmpeqi	r2,r2,31
 4021a2c:	1000031e 	bne	r2,zero,4021a3c <RGB_Flag+0x184>
				printf("Error !\n");
 4021a30:	010100f4 	movhi	r4,1027
 4021a34:	211d3b04 	addi	r4,r4,29932
 4021a38:	40263740 	call	4026374 <puts>
{
	volatile int i;

	volatile int Verif;

	for (i = 0; i <= Length; i += 2) {
 4021a3c:	e0bffb17 	ldw	r2,-20(fp)
 4021a40:	10800084 	addi	r2,r2,2
 4021a44:	e0bffb15 	stw	r2,-20(fp)
 4021a48:	e0bffb17 	ldw	r2,-20(fp)
 4021a4c:	e0fffe17 	ldw	r3,-8(fp)
 4021a50:	18bfa20e 	bge	r3,r2,40218dc <_gp+0xfffe0440>
				printf("Error !\n");
			}
		}
	}

	printf("Memory filled !\n");
 4021a54:	010100f4 	movhi	r4,1027
 4021a58:	211d3704 	addi	r4,r4,29916
 4021a5c:	40263740 	call	4026374 <puts>
}
 4021a60:	0001883a 	nop
 4021a64:	e6ffff04 	addi	sp,fp,-4
 4021a68:	dfc00217 	ldw	ra,8(sp)
 4021a6c:	df000117 	ldw	fp,4(sp)
 4021a70:	dc000017 	ldw	r16,0(sp)
 4021a74:	dec00304 	addi	sp,sp,12
 4021a78:	f800283a 	ret

04021a7c <TRDB_D5M_log2>:
///////////////////////
// GENERAL FUNCTIONS //
///////////////////////

// Calculates log2 of a number. Attention: the number must be a power of 2
static uint16_t TRDB_D5M_log2(uint16_t power_of_2) {
 4021a7c:	defffe04 	addi	sp,sp,-8
 4021a80:	df000115 	stw	fp,4(sp)
 4021a84:	df000104 	addi	fp,sp,4
 4021a88:	2005883a 	mov	r2,r4
 4021a8c:	e0bfff0d 	sth	r2,-4(fp)
    if      (power_of_2 == 0x0001) return 0;
 4021a90:	e0bfff0b 	ldhu	r2,-4(fp)
 4021a94:	10800058 	cmpnei	r2,r2,1
 4021a98:	1000021e 	bne	r2,zero,4021aa4 <TRDB_D5M_log2+0x28>
 4021a9c:	0005883a 	mov	r2,zero
 4021aa0:	00004706 	br	4021bc0 <TRDB_D5M_log2+0x144>
    else if (power_of_2 == 0x0002) return 1;
 4021aa4:	e0bfff0b 	ldhu	r2,-4(fp)
 4021aa8:	10800098 	cmpnei	r2,r2,2
 4021aac:	1000021e 	bne	r2,zero,4021ab8 <TRDB_D5M_log2+0x3c>
 4021ab0:	00800044 	movi	r2,1
 4021ab4:	00004206 	br	4021bc0 <TRDB_D5M_log2+0x144>
    else if (power_of_2 == 0x0004) return 2;
 4021ab8:	e0bfff0b 	ldhu	r2,-4(fp)
 4021abc:	10800118 	cmpnei	r2,r2,4
 4021ac0:	1000021e 	bne	r2,zero,4021acc <TRDB_D5M_log2+0x50>
 4021ac4:	00800084 	movi	r2,2
 4021ac8:	00003d06 	br	4021bc0 <TRDB_D5M_log2+0x144>
    else if (power_of_2 == 0x0008) return 3;
 4021acc:	e0bfff0b 	ldhu	r2,-4(fp)
 4021ad0:	10800218 	cmpnei	r2,r2,8
 4021ad4:	1000021e 	bne	r2,zero,4021ae0 <TRDB_D5M_log2+0x64>
 4021ad8:	008000c4 	movi	r2,3
 4021adc:	00003806 	br	4021bc0 <TRDB_D5M_log2+0x144>
    else if (power_of_2 == 0x0010) return 4;
 4021ae0:	e0bfff0b 	ldhu	r2,-4(fp)
 4021ae4:	10800418 	cmpnei	r2,r2,16
 4021ae8:	1000021e 	bne	r2,zero,4021af4 <TRDB_D5M_log2+0x78>
 4021aec:	00800104 	movi	r2,4
 4021af0:	00003306 	br	4021bc0 <TRDB_D5M_log2+0x144>
    else if (power_of_2 == 0x0020) return 5;
 4021af4:	e0bfff0b 	ldhu	r2,-4(fp)
 4021af8:	10800818 	cmpnei	r2,r2,32
 4021afc:	1000021e 	bne	r2,zero,4021b08 <TRDB_D5M_log2+0x8c>
 4021b00:	00800144 	movi	r2,5
 4021b04:	00002e06 	br	4021bc0 <TRDB_D5M_log2+0x144>
    else if (power_of_2 == 0x0040) return 6;
 4021b08:	e0bfff0b 	ldhu	r2,-4(fp)
 4021b0c:	10801018 	cmpnei	r2,r2,64
 4021b10:	1000021e 	bne	r2,zero,4021b1c <TRDB_D5M_log2+0xa0>
 4021b14:	00800184 	movi	r2,6
 4021b18:	00002906 	br	4021bc0 <TRDB_D5M_log2+0x144>
    else if (power_of_2 == 0x0080) return 7;
 4021b1c:	e0bfff0b 	ldhu	r2,-4(fp)
 4021b20:	10802018 	cmpnei	r2,r2,128
 4021b24:	1000021e 	bne	r2,zero,4021b30 <TRDB_D5M_log2+0xb4>
 4021b28:	008001c4 	movi	r2,7
 4021b2c:	00002406 	br	4021bc0 <TRDB_D5M_log2+0x144>
    else if (power_of_2 == 0x0100) return 8;
 4021b30:	e0bfff0b 	ldhu	r2,-4(fp)
 4021b34:	10804018 	cmpnei	r2,r2,256
 4021b38:	1000021e 	bne	r2,zero,4021b44 <TRDB_D5M_log2+0xc8>
 4021b3c:	00800204 	movi	r2,8
 4021b40:	00001f06 	br	4021bc0 <TRDB_D5M_log2+0x144>
    else if (power_of_2 == 0x0200) return 9;
 4021b44:	e0bfff0b 	ldhu	r2,-4(fp)
 4021b48:	10808018 	cmpnei	r2,r2,512
 4021b4c:	1000021e 	bne	r2,zero,4021b58 <TRDB_D5M_log2+0xdc>
 4021b50:	00800244 	movi	r2,9
 4021b54:	00001a06 	br	4021bc0 <TRDB_D5M_log2+0x144>
    else if (power_of_2 == 0x0400) return 10;
 4021b58:	e0bfff0b 	ldhu	r2,-4(fp)
 4021b5c:	10810018 	cmpnei	r2,r2,1024
 4021b60:	1000021e 	bne	r2,zero,4021b6c <TRDB_D5M_log2+0xf0>
 4021b64:	00800284 	movi	r2,10
 4021b68:	00001506 	br	4021bc0 <TRDB_D5M_log2+0x144>
    else if (power_of_2 == 0x0800) return 11;
 4021b6c:	e0bfff0b 	ldhu	r2,-4(fp)
 4021b70:	10820018 	cmpnei	r2,r2,2048
 4021b74:	1000021e 	bne	r2,zero,4021b80 <TRDB_D5M_log2+0x104>
 4021b78:	008002c4 	movi	r2,11
 4021b7c:	00001006 	br	4021bc0 <TRDB_D5M_log2+0x144>
    else if (power_of_2 == 0x1000) return 12;
 4021b80:	e0bfff0b 	ldhu	r2,-4(fp)
 4021b84:	10840018 	cmpnei	r2,r2,4096
 4021b88:	1000021e 	bne	r2,zero,4021b94 <TRDB_D5M_log2+0x118>
 4021b8c:	00800304 	movi	r2,12
 4021b90:	00000b06 	br	4021bc0 <TRDB_D5M_log2+0x144>
    else if (power_of_2 == 0x2000) return 13;
 4021b94:	e0bfff0b 	ldhu	r2,-4(fp)
 4021b98:	10880018 	cmpnei	r2,r2,8192
 4021b9c:	1000021e 	bne	r2,zero,4021ba8 <TRDB_D5M_log2+0x12c>
 4021ba0:	00800344 	movi	r2,13
 4021ba4:	00000606 	br	4021bc0 <TRDB_D5M_log2+0x144>
    else if (power_of_2 == 0x4000) return 14;
 4021ba8:	e0bfff0b 	ldhu	r2,-4(fp)
 4021bac:	10900018 	cmpnei	r2,r2,16384
 4021bb0:	1000021e 	bne	r2,zero,4021bbc <TRDB_D5M_log2+0x140>
 4021bb4:	00800384 	movi	r2,14
 4021bb8:	00000106 	br	4021bc0 <TRDB_D5M_log2+0x144>
    else                           return 15;
 4021bbc:	008003c4 	movi	r2,15
}
 4021bc0:	e037883a 	mov	sp,fp
 4021bc4:	df000017 	ldw	fp,0(sp)
 4021bc8:	dec00104 	addi	sp,sp,4
 4021bcc:	f800283a 	ret

04021bd0 <TRDB_D5M_shift_amount>:

static uint16_t TRDB_D5M_shift_amount(uint16_t mask) {
 4021bd0:	defffd04 	addi	sp,sp,-12
 4021bd4:	dfc00215 	stw	ra,8(sp)
 4021bd8:	df000115 	stw	fp,4(sp)
 4021bdc:	df000104 	addi	fp,sp,4
 4021be0:	2005883a 	mov	r2,r4
 4021be4:	e0bfff0d 	sth	r2,-4(fp)
    // (mask & -mask) clears all but the lowest bit of x
    return TRDB_D5M_log2(mask & (~mask + 1));
 4021be8:	e0bfff0b 	ldhu	r2,-4(fp)
 4021bec:	0085c83a 	sub	r2,zero,r2
 4021bf0:	1007883a 	mov	r3,r2
 4021bf4:	e0bfff0b 	ldhu	r2,-4(fp)
 4021bf8:	1884703a 	and	r2,r3,r2
 4021bfc:	10bfffcc 	andi	r2,r2,65535
 4021c00:	1009883a 	mov	r4,r2
 4021c04:	4021a7c0 	call	4021a7c <TRDB_D5M_log2>
}
 4021c08:	e037883a 	mov	sp,fp
 4021c0c:	dfc00117 	ldw	ra,4(sp)
 4021c10:	df000017 	ldw	fp,0(sp)
 4021c14:	dec00204 	addi	sp,sp,8
 4021c18:	f800283a 	ret

04021c1c <TRDB_D5M_READ>:

static uint16_t TRDB_D5M_READ(uint16_t full_reg_value, uint16_t mask) {
 4021c1c:	defffb04 	addi	sp,sp,-20
 4021c20:	dfc00415 	stw	ra,16(sp)
 4021c24:	df000315 	stw	fp,12(sp)
 4021c28:	dc000215 	stw	r16,8(sp)
 4021c2c:	df000304 	addi	fp,sp,12
 4021c30:	2007883a 	mov	r3,r4
 4021c34:	2805883a 	mov	r2,r5
 4021c38:	e0fffd0d 	sth	r3,-12(fp)
 4021c3c:	e0bffe0d 	sth	r2,-8(fp)
    return (full_reg_value & mask) >> TRDB_D5M_shift_amount(mask);
 4021c40:	e0fffd0b 	ldhu	r3,-12(fp)
 4021c44:	e0bffe0b 	ldhu	r2,-8(fp)
 4021c48:	1884703a 	and	r2,r3,r2
 4021c4c:	143fffcc 	andi	r16,r2,65535
 4021c50:	e0bffe0b 	ldhu	r2,-8(fp)
 4021c54:	1009883a 	mov	r4,r2
 4021c58:	4021bd00 	call	4021bd0 <TRDB_D5M_shift_amount>
 4021c5c:	10bfffcc 	andi	r2,r2,65535
 4021c60:	8085d83a 	sra	r2,r16,r2
}
 4021c64:	e6ffff04 	addi	sp,fp,-4
 4021c68:	dfc00217 	ldw	ra,8(sp)
 4021c6c:	df000117 	ldw	fp,4(sp)
 4021c70:	dc000017 	ldw	r16,0(sp)
 4021c74:	dec00304 	addi	sp,sp,12
 4021c78:	f800283a 	ret

04021c7c <TRDB_D5M_WRITE>:

static uint16_t TRDB_D5M_WRITE(uint16_t full_reg_value, uint16_t mask, uint16_t write_value) {
 4021c7c:	defffa04 	addi	sp,sp,-24
 4021c80:	dfc00515 	stw	ra,20(sp)
 4021c84:	df000415 	stw	fp,16(sp)
 4021c88:	dc000315 	stw	r16,12(sp)
 4021c8c:	df000404 	addi	fp,sp,16
 4021c90:	2807883a 	mov	r3,r5
 4021c94:	3005883a 	mov	r2,r6
 4021c98:	e13ffc0d 	sth	r4,-16(fp)
 4021c9c:	e0fffd0d 	sth	r3,-12(fp)
 4021ca0:	e0bffe0d 	sth	r2,-8(fp)
    return (full_reg_value & (~mask)) | ((write_value << TRDB_D5M_shift_amount(mask)) & mask);
 4021ca4:	e43ffe0b 	ldhu	r16,-8(fp)
 4021ca8:	e0bffd0b 	ldhu	r2,-12(fp)
 4021cac:	1009883a 	mov	r4,r2
 4021cb0:	4021bd00 	call	4021bd0 <TRDB_D5M_shift_amount>
 4021cb4:	10bfffcc 	andi	r2,r2,65535
 4021cb8:	8084983a 	sll	r2,r16,r2
 4021cbc:	1007883a 	mov	r3,r2
 4021cc0:	e0bffc0b 	ldhu	r2,-16(fp)
 4021cc4:	1884f03a 	xor	r2,r3,r2
 4021cc8:	1007883a 	mov	r3,r2
 4021ccc:	e0bffd0b 	ldhu	r2,-12(fp)
 4021cd0:	1884703a 	and	r2,r3,r2
 4021cd4:	1007883a 	mov	r3,r2
 4021cd8:	e0bffc0b 	ldhu	r2,-16(fp)
 4021cdc:	1884f03a 	xor	r2,r3,r2
}
 4021ce0:	e6ffff04 	addi	sp,fp,-4
 4021ce4:	dfc00217 	ldw	ra,8(sp)
 4021ce8:	df000117 	ldw	fp,4(sp)
 4021cec:	dc000017 	ldw	r16,0(sp)
 4021cf0:	dec00304 	addi	sp,sp,12
 4021cf4:	f800283a 	ret

04021cf8 <Image_Grayscale>:
#include "Function_Header.h"

//------------------------------------------------------------------------------------------------

void Image_Grayscale(int Address, int Length_Address)
{
 4021cf8:	defffb04 	addi	sp,sp,-20
 4021cfc:	dfc00415 	stw	ra,16(sp)
 4021d00:	df000315 	stw	fp,12(sp)
 4021d04:	df000304 	addi	fp,sp,12
 4021d08:	e13ffe15 	stw	r4,-8(fp)
 4021d0c:	e17fff15 	stw	r5,-4(fp)
	// If the code is to be used on an image:


	// Performance counter initialization:
	PERF_RESET(PERFORMANCE_COUNTER_BASE);
 4021d10:	00c00044 	movi	r3,1
 4021d14:	00810134 	movhi	r2,1028
 4021d18:	10840004 	addi	r2,r2,4096
 4021d1c:	10c00035 	stwio	r3,0(r2)
	PERF_START_MEASURING(PERFORMANCE_COUNTER_BASE);
 4021d20:	0007883a 	mov	r3,zero
 4021d24:	00810134 	movhi	r2,1028
 4021d28:	10840104 	addi	r2,r2,4100
 4021d2c:	10c00035 	stwio	r3,0(r2)

	// Section 1: C_Grayscale
	Partial_Image(Address, Length_Address, GREEN);
 4021d30:	0181f804 	movi	r6,2016
 4021d34:	e17fff17 	ldw	r5,-4(fp)
 4021d38:	e13ffe17 	ldw	r4,-8(fp)
 4021d3c:	40210e40 	call	40210e4 <Partial_Image>
	PERF_BEGIN(PERFORMANCE_COUNTER_BASE, 1);
 4021d40:	0007883a 	mov	r3,zero
 4021d44:	00810134 	movhi	r2,1028
 4021d48:	10840504 	addi	r2,r2,4116
 4021d4c:	10c00035 	stwio	r3,0(r2)
	C_Grayscale_Image(Address, Length_Address);
 4021d50:	e17fff17 	ldw	r5,-4(fp)
 4021d54:	e13ffe17 	ldw	r4,-8(fp)
 4021d58:	40208140 	call	4020814 <C_Grayscale_Image>
	PERF_END(PERFORMANCE_COUNTER_BASE, 1);
 4021d5c:	0007883a 	mov	r3,zero
 4021d60:	00810134 	movhi	r2,1028
 4021d64:	10840404 	addi	r2,r2,4112
 4021d68:	10c00035 	stwio	r3,0(r2)

	// Section 2: Accelerator_Grayscale
	Partial_Image(Address, Length_Address, RED);
 4021d6c:	01be0014 	movui	r6,63488
 4021d70:	e17fff17 	ldw	r5,-4(fp)
 4021d74:	e13ffe17 	ldw	r4,-8(fp)
 4021d78:	40210e40 	call	40210e4 <Partial_Image>
	PERF_BEGIN(PERFORMANCE_COUNTER_BASE, 2);
 4021d7c:	0007883a 	mov	r3,zero
 4021d80:	00810134 	movhi	r2,1028
 4021d84:	10840904 	addi	r2,r2,4132
 4021d88:	10c00035 	stwio	r3,0(r2)
	Accelerator_Grayscale_Image(Address, Length_Address);
 4021d8c:	e17fff17 	ldw	r5,-4(fp)
 4021d90:	e13ffe17 	ldw	r4,-8(fp)
 4021d94:	40205240 	call	4020524 <Accelerator_Grayscale_Image>
	PERF_END(PERFORMANCE_COUNTER_BASE, 2);
 4021d98:	0007883a 	mov	r3,zero
 4021d9c:	00810134 	movhi	r2,1028
 4021da0:	10840804 	addi	r2,r2,4128
 4021da4:	10c00035 	stwio	r3,0(r2)

	// Report of the two section:
	perf_print_formatted_report((void *)PERFORMANCE_COUNTER_BASE,
 4021da8:	4035d100 	call	4035d10 <alt_get_cpu_freq>
 4021dac:	1007883a 	mov	r3,r2
 4021db0:	008100f4 	movhi	r2,1027
 4021db4:	109d4004 	addi	r2,r2,29952
 4021db8:	d8800015 	stw	r2,0(sp)
 4021dbc:	01c100f4 	movhi	r7,1027
 4021dc0:	39dd3d04 	addi	r7,r7,29940
 4021dc4:	01800084 	movi	r6,2
 4021dc8:	180b883a 	mov	r5,r3
 4021dcc:	01010134 	movhi	r4,1028
 4021dd0:	21040004 	addi	r4,r4,4096
 4021dd4:	4035d340 	call	4035d34 <perf_print_formatted_report>
								alt_get_cpu_freq(),
								2,
								"C   - Image",
								"DMA - Image");

	printf("    \n");
 4021dd8:	010100f4 	movhi	r4,1027
 4021ddc:	211d4304 	addi	r4,r4,29964
 4021de0:	40263740 	call	4026374 <puts>
	printf("Image_Grayscale(): Done !\n");
 4021de4:	010100f4 	movhi	r4,1027
 4021de8:	211d4504 	addi	r4,r4,29972
 4021dec:	40263740 	call	4026374 <puts>
}
 4021df0:	0001883a 	nop
 4021df4:	e037883a 	mov	sp,fp
 4021df8:	dfc00117 	ldw	ra,4(sp)
 4021dfc:	df000017 	ldw	fp,0(sp)
 4021e00:	dec00204 	addi	sp,sp,8
 4021e04:	f800283a 	ret

04021e08 <Camera_Configuration>:




bool Camera_Configuration()
{
 4021e08:	defffd04 	addi	sp,sp,-12
 4021e0c:	dfc00215 	stw	ra,8(sp)
 4021e10:	df000115 	stw	fp,4(sp)
 4021e14:	df000104 	addi	fp,sp,4
	init_I2C();
 4021e18:	40220700 	call	4022070 <init_I2C>
    bool success = true;
 4021e1c:	00800044 	movi	r2,1
 4021e20:	e0bfff05 	stb	r2,-4(fp)
    uint16_t data=0;
 4021e24:	e03fff8d 	sth	zero,-2(fp)
    trdb_d5m_read(&i2c, 0, &data);
 4021e28:	e0bfff84 	addi	r2,fp,-2
 4021e2c:	100d883a 	mov	r6,r2
 4021e30:	000b883a 	mov	r5,zero
 4021e34:	d126cb04 	addi	r4,gp,-25812
 4021e38:	40222000 	call	4022200 <trdb_d5m_read>
    printf("Camera version :  %d\r\n",data);
 4021e3c:	e0bfff8b 	ldhu	r2,-2(fp)
 4021e40:	10bfffcc 	andi	r2,r2,65535
 4021e44:	100b883a 	mov	r5,r2
 4021e48:	010100f4 	movhi	r4,1027
 4021e4c:	211d4c04 	addi	r4,r4,30000
 4021e50:	40262780 	call	4026278 <printf>
    success &= Write_and_Read_I2C(&i2c,TRDB_D5M_COLUMN_SIZE_REG,2559);//Resolution for lt24 with binning
 4021e54:	01827fc4 	movi	r6,2559
 4021e58:	01400104 	movi	r5,4
 4021e5c:	d126cb04 	addi	r4,gp,-25812
 4021e60:	40220b80 	call	40220b8 <Write_and_Read_I2C>
 4021e64:	e0ffff03 	ldbu	r3,-4(fp)
 4021e68:	10803fcc 	andi	r2,r2,255
 4021e6c:	1884703a 	and	r2,r3,r2
 4021e70:	1004c03a 	cmpne	r2,r2,zero
 4021e74:	e0bfff05 	stb	r2,-4(fp)
    success &= Write_and_Read_I2C(&i2c,TRDB_D5M_ROW_SIZE_REG,1919);// Resolution for lt24 with binning
 4021e78:	0181dfc4 	movi	r6,1919
 4021e7c:	014000c4 	movi	r5,3
 4021e80:	d126cb04 	addi	r4,gp,-25812
 4021e84:	40220b80 	call	40220b8 <Write_and_Read_I2C>
 4021e88:	e0ffff03 	ldbu	r3,-4(fp)
 4021e8c:	10803fcc 	andi	r2,r2,255
 4021e90:	1884703a 	and	r2,r3,r2
 4021e94:	1004c03a 	cmpne	r2,r2,zero
 4021e98:	e0bfff05 	stb	r2,-4(fp)
    success &= Write_and_Read_I2C(&i2c,TRDB_D5M_SHUTTER_WIDTH_UPPER_REG,0000);//Control light
 4021e9c:	000d883a 	mov	r6,zero
 4021ea0:	01400204 	movi	r5,8
 4021ea4:	d126cb04 	addi	r4,gp,-25812
 4021ea8:	40220b80 	call	40220b8 <Write_and_Read_I2C>
 4021eac:	e0ffff03 	ldbu	r3,-4(fp)
 4021eb0:	10803fcc 	andi	r2,r2,255
 4021eb4:	1884703a 	and	r2,r3,r2
 4021eb8:	1004c03a 	cmpne	r2,r2,zero
 4021ebc:	e0bfff05 	stb	r2,-4(fp)
    success &= Write_and_Read_I2C(&i2c,TRDB_D5M_SHUTTER_WIDTH_LOWER_REG,3500);//Control light
 4021ec0:	01836b04 	movi	r6,3500
 4021ec4:	01400244 	movi	r5,9
 4021ec8:	d126cb04 	addi	r4,gp,-25812
 4021ecc:	40220b80 	call	40220b8 <Write_and_Read_I2C>
 4021ed0:	e0ffff03 	ldbu	r3,-4(fp)
 4021ed4:	10803fcc 	andi	r2,r2,255
 4021ed8:	1884703a 	and	r2,r3,r2
 4021edc:	1004c03a 	cmpne	r2,r2,zero
 4021ee0:	e0bfff05 	stb	r2,-4(fp)
    success &= Write_and_Read_I2C(&i2c,TRDB_D5M_ROW_ADDRESS_MODE_REG,0x0033);//Binning x4
 4021ee4:	01800cc4 	movi	r6,51
 4021ee8:	01400884 	movi	r5,34
 4021eec:	d126cb04 	addi	r4,gp,-25812
 4021ef0:	40220b80 	call	40220b8 <Write_and_Read_I2C>
 4021ef4:	e0ffff03 	ldbu	r3,-4(fp)
 4021ef8:	10803fcc 	andi	r2,r2,255
 4021efc:	1884703a 	and	r2,r3,r2
 4021f00:	1004c03a 	cmpne	r2,r2,zero
 4021f04:	e0bfff05 	stb	r2,-4(fp)
    success &= Write_and_Read_I2C(&i2c,TRDB_D5M_COLUMN_ADDRESS_MODE_REG,0x0033);//Binning x4
 4021f08:	01800cc4 	movi	r6,51
 4021f0c:	014008c4 	movi	r5,35
 4021f10:	d126cb04 	addi	r4,gp,-25812
 4021f14:	40220b80 	call	40220b8 <Write_and_Read_I2C>
 4021f18:	e0ffff03 	ldbu	r3,-4(fp)
 4021f1c:	10803fcc 	andi	r2,r2,255
 4021f20:	1884703a 	and	r2,r3,r2
 4021f24:	1004c03a 	cmpne	r2,r2,zero
 4021f28:	e0bfff05 	stb	r2,-4(fp)
	success &= Write_and_Read_I2C(&i2c,TRDB_D5M_RED_GAIN_REG,8);//Color
 4021f2c:	01800204 	movi	r6,8
 4021f30:	01400b44 	movi	r5,45
 4021f34:	d126cb04 	addi	r4,gp,-25812
 4021f38:	40220b80 	call	40220b8 <Write_and_Read_I2C>
 4021f3c:	e0ffff03 	ldbu	r3,-4(fp)
 4021f40:	10803fcc 	andi	r2,r2,255
 4021f44:	1884703a 	and	r2,r3,r2
 4021f48:	1004c03a 	cmpne	r2,r2,zero
 4021f4c:	e0bfff05 	stb	r2,-4(fp)
	success &= Write_and_Read_I2C(&i2c,TRDB_D5M_GREEN_1_GAIN_REG,12);//
 4021f50:	01800304 	movi	r6,12
 4021f54:	01400ac4 	movi	r5,43
 4021f58:	d126cb04 	addi	r4,gp,-25812
 4021f5c:	40220b80 	call	40220b8 <Write_and_Read_I2C>
 4021f60:	e0ffff03 	ldbu	r3,-4(fp)
 4021f64:	10803fcc 	andi	r2,r2,255
 4021f68:	1884703a 	and	r2,r3,r2
 4021f6c:	1004c03a 	cmpne	r2,r2,zero
 4021f70:	e0bfff05 	stb	r2,-4(fp)
	success &= Write_and_Read_I2C(&i2c,TRDB_D5M_GREEN_2_GAIN_REG,12);//
 4021f74:	01800304 	movi	r6,12
 4021f78:	01400b84 	movi	r5,46
 4021f7c:	d126cb04 	addi	r4,gp,-25812
 4021f80:	40220b80 	call	40220b8 <Write_and_Read_I2C>
 4021f84:	e0ffff03 	ldbu	r3,-4(fp)
 4021f88:	10803fcc 	andi	r2,r2,255
 4021f8c:	1884703a 	and	r2,r3,r2
 4021f90:	1004c03a 	cmpne	r2,r2,zero
 4021f94:	e0bfff05 	stb	r2,-4(fp)
	success &= Write_and_Read_I2C(&i2c,TRDB_D5M_BLUE_GAIN_REG,10);//
 4021f98:	01800284 	movi	r6,10
 4021f9c:	01400b04 	movi	r5,44
 4021fa0:	d126cb04 	addi	r4,gp,-25812
 4021fa4:	40220b80 	call	40220b8 <Write_and_Read_I2C>
 4021fa8:	e0ffff03 	ldbu	r3,-4(fp)
 4021fac:	10803fcc 	andi	r2,r2,255
 4021fb0:	1884703a 	and	r2,r3,r2
 4021fb4:	1004c03a 	cmpne	r2,r2,zero
 4021fb8:	e0bfff05 	stb	r2,-4(fp)
    /*If Using the pll , clock input 25 Mhz, output 95Mhz
     *success &= Write_and_Read_I2C(&i2c,TRDB_D5M_PLL_CONTROL_REG,0x0003);//Power up and use pll
     *success &= Write_and_Read_I2C(&i2c,TRDB_D5M_PLL_CONFIG_1_REG,0x4C14);//N=10, 0x14, M=76, 0x4C
     *success &= Write_and_Read_I2C(&i2c,TRDB_D5M_PLL_CONFIG_2_REG,0x0002);//P1=2 , 0x02
     */
    if (success  ) {
 4021fbc:	e0bfff03 	ldbu	r2,-4(fp)
 4021fc0:	10000526 	beq	r2,zero,4021fd8 <Camera_Configuration+0x1d0>
    	printf("I2C Configuration PASS\r\n");
 4021fc4:	010100f4 	movhi	r4,1027
 4021fc8:	211d5204 	addi	r4,r4,30024
 4021fcc:	40263740 	call	4026374 <puts>
        return true;
 4021fd0:	00800044 	movi	r2,1
 4021fd4:	00000406 	br	4021fe8 <Camera_Configuration+0x1e0>
    } else {
    	printf("I2C Configuration FAIL\r\n");
 4021fd8:	010100f4 	movhi	r4,1027
 4021fdc:	211d5804 	addi	r4,r4,30048
 4021fe0:	40263740 	call	4026374 <puts>
        return false;
 4021fe4:	0005883a 	mov	r2,zero
    }
}
 4021fe8:	e037883a 	mov	sp,fp
 4021fec:	dfc00117 	ldw	ra,4(sp)
 4021ff0:	df000017 	ldw	fp,0(sp)
 4021ff4:	dec00204 	addi	sp,sp,8
 4021ff8:	f800283a 	ret

04021ffc <main>:
int main()
{
 4021ffc:	defffe04 	addi	sp,sp,-8
 4022000:	dfc00115 	stw	ra,4(sp)
 4022004:	df000015 	stw	fp,0(sp)
 4022008:	d839883a 	mov	fp,sp
	delay(5000);
 402200c:	0104e204 	movi	r4,5000
 4022010:	4020f140 	call	4020f14 <delay>
  printf("Hello from Nios II!\n");
 4022014:	010100f4 	movhi	r4,1027
 4022018:	211d5e04 	addi	r4,r4,30072
 402201c:	40263740 	call	4026374 <puts>
 printf("Beginning of the main !\n");
 4022020:	010100f4 	movhi	r4,1027
 4022024:	211d6304 	addi	r4,r4,30092
 4022028:	40263740 	call	4026374 <puts>
  Camera_Acquisition_Module_Stop();
 402202c:	4020bb00 	call	4020bb0 <Camera_Acquisition_Module_Stop>
	delay(5000);
 4022030:	0104e204 	movi	r4,5000
 4022034:	4020f140 	call	4020f14 <delay>
	Gray_Scale(SDRAM_CONTROLLER_BASE);
 4022038:	0009883a 	mov	r4,zero
 402203c:	40211940 	call	4021194 <Gray_Scale>
	Gray_Scale(SDRAM_CONTROLLER_BASE+((76800-1)*2));
 4022040:	010000b4 	movhi	r4,2
 4022044:	2115ff84 	addi	r4,r4,22526
 4022048:	40211940 	call	4021194 <Gray_Scale>
	//Partial_Image(SDRAM_CONTROLLER_BASE, (76800-1)*2,BLUE);
	//Partial_Image(SDRAM_CONTROLLER_BASE+((76800-1)*2), (76800-1)*2,BLUE);
	//Image_Grayscale(SDRAM_CONTROLLER_BASE,(10-1)*2);
	//C_Grayscale_Image(SDRAM_CONTROLLER_BASE, (76800-1)*2);

	Accelerator_Grayscale_Table(SDRAM_CONTROLLER_BASE, (76800-1)*2);
 402204c:	014000b4 	movhi	r5,2
 4022050:	2955ff84 	addi	r5,r5,22526
 4022054:	0009883a 	mov	r4,zero
 4022058:	40203940 	call	4020394 <Accelerator_Grayscale_Table>
  //Image_Grayscale();
  Camera_Configuration();
 402205c:	4021e080 	call	4021e08 <Camera_Configuration>
//   	Camera_Acquisition_Module_Display_Registers();
//   	t=Camera_Acquisition_Module_Start();//Set a one in the start register
//   	printf("Start : %d\r\n",t);
//   	Camera_Acquisition_Module_Display_Registers();
//   	Capture_Image_Computer(SDRAM_CONTROLLER_0_BASE,0);
  printf("End of the main !\n");
 4022060:	010100f4 	movhi	r4,1027
 4022064:	211d6904 	addi	r4,r4,30116
 4022068:	40263740 	call	4026374 <puts>
  while(1)
	  {
	  }
 402206c:	003fff06 	br	402206c <_gp+0xfffe0bd0>

04022070 <init_I2C>:
#define TRDB_D5M_I2C_ADDRESS  (0xba)
#define I2C_0_BASE 0x4041088
i2c_dev i2c;

void init_I2C()
{
 4022070:	defffe04 	addi	sp,sp,-8
 4022074:	dfc00115 	stw	ra,4(sp)
 4022078:	df000015 	stw	fp,0(sp)
 402207c:	d839883a 	mov	fp,sp
	i2c = i2c_inst((void *) I2C_0_BASE);
 4022080:	01010134 	movhi	r4,1028
 4022084:	21042204 	addi	r4,r4,4232
 4022088:	40223ec0 	call	40223ec <i2c_inst>
 402208c:	d0a6cb15 	stw	r2,-25812(gp)
	i2c_init(&i2c, I2C_FREQ);
 4022090:	0140bef4 	movhi	r5,763
 4022094:	297c2004 	addi	r5,r5,-3968
 4022098:	d126cb04 	addi	r4,gp,-25812
 402209c:	40224180 	call	4022418 <i2c_init>
}
 40220a0:	0001883a 	nop
 40220a4:	e037883a 	mov	sp,fp
 40220a8:	dfc00117 	ldw	ra,4(sp)
 40220ac:	df000017 	ldw	fp,0(sp)
 40220b0:	dec00204 	addi	sp,sp,8
 40220b4:	f800283a 	ret

040220b8 <Write_and_Read_I2C>:
bool Write_and_Read_I2C(i2c_dev *i2c,uint8_t register_offset, uint16_t data)
{
 40220b8:	defffa04 	addi	sp,sp,-24
 40220bc:	dfc00515 	stw	ra,20(sp)
 40220c0:	df000415 	stw	fp,16(sp)
 40220c4:	df000404 	addi	fp,sp,16
 40220c8:	e13ffd15 	stw	r4,-12(fp)
 40220cc:	2807883a 	mov	r3,r5
 40220d0:	3005883a 	mov	r2,r6
 40220d4:	e0fffe05 	stb	r3,-8(fp)
 40220d8:	e0bfff0d 	sth	r2,-4(fp)
	 	bool success = true;
 40220dc:	00800044 	movi	r2,1
 40220e0:	e0bffc05 	stb	r2,-16(fp)
	 	 /* write the 16-bit value 23 to register 10 */
	    success &= trdb_d5m_write(i2c, register_offset, data);
 40220e4:	e0bffe03 	ldbu	r2,-8(fp)
 40220e8:	e0ffff0b 	ldhu	r3,-4(fp)
 40220ec:	180d883a 	mov	r6,r3
 40220f0:	100b883a 	mov	r5,r2
 40220f4:	e13ffd17 	ldw	r4,-12(fp)
 40220f8:	40221780 	call	4022178 <trdb_d5m_write>
 40220fc:	e0fffc03 	ldbu	r3,-16(fp)
 4022100:	10803fcc 	andi	r2,r2,255
 4022104:	1884703a 	and	r2,r3,r2
 4022108:	1004c03a 	cmpne	r2,r2,zero
 402210c:	e0bffc05 	stb	r2,-16(fp)

	    /* read from register 10, put data in readdata */
	    uint16_t readdata = 0;
 4022110:	e03ffc8d 	sth	zero,-14(fp)
	    success &= trdb_d5m_read(i2c, register_offset, &readdata);
 4022114:	e0bffe03 	ldbu	r2,-8(fp)
 4022118:	e0fffc84 	addi	r3,fp,-14
 402211c:	180d883a 	mov	r6,r3
 4022120:	100b883a 	mov	r5,r2
 4022124:	e13ffd17 	ldw	r4,-12(fp)
 4022128:	40222000 	call	4022200 <trdb_d5m_read>
 402212c:	e0fffc03 	ldbu	r3,-16(fp)
 4022130:	10803fcc 	andi	r2,r2,255
 4022134:	1884703a 	and	r2,r3,r2
 4022138:	1004c03a 	cmpne	r2,r2,zero
 402213c:	e0bffc05 	stb	r2,-16(fp)

	    if (success && readdata==data ) {
 4022140:	e0bffc03 	ldbu	r2,-16(fp)
 4022144:	10000626 	beq	r2,zero,4022160 <Write_and_Read_I2C+0xa8>
 4022148:	e0bffc8b 	ldhu	r2,-14(fp)
 402214c:	10ffffcc 	andi	r3,r2,65535
 4022150:	e0bfff0b 	ldhu	r2,-4(fp)
 4022154:	1880021e 	bne	r3,r2,4022160 <Write_and_Read_I2C+0xa8>
	        return true;
 4022158:	00800044 	movi	r2,1
 402215c:	00000106 	br	4022164 <Write_and_Read_I2C+0xac>
	    } else {
	        return false;
 4022160:	0005883a 	mov	r2,zero
	    }
}
 4022164:	e037883a 	mov	sp,fp
 4022168:	dfc00117 	ldw	ra,4(sp)
 402216c:	df000017 	ldw	fp,0(sp)
 4022170:	dec00204 	addi	sp,sp,8
 4022174:	f800283a 	ret

04022178 <trdb_d5m_write>:
uint8_t trdb_d5m_write(i2c_dev *i2c, uint8_t register_offset, uint16_t data) {
 4022178:	defff804 	addi	sp,sp,-32
 402217c:	dfc00715 	stw	ra,28(sp)
 4022180:	df000615 	stw	fp,24(sp)
 4022184:	df000604 	addi	fp,sp,24
 4022188:	e13ffd15 	stw	r4,-12(fp)
 402218c:	2807883a 	mov	r3,r5
 4022190:	3005883a 	mov	r2,r6
 4022194:	e0fffe05 	stb	r3,-8(fp)
 4022198:	e0bfff0d 	sth	r2,-4(fp)
    uint8_t byte_data[2] = {(data >> 8) & 0xff, data & 0xff};
 402219c:	e0bfff0b 	ldhu	r2,-4(fp)
 40221a0:	1004d23a 	srli	r2,r2,8
 40221a4:	e0bffc05 	stb	r2,-16(fp)
 40221a8:	e0bfff0b 	ldhu	r2,-4(fp)
 40221ac:	e0bffc45 	stb	r2,-15(fp)

    int success = i2c_write_array(i2c, TRDB_D5M_I2C_ADDRESS, register_offset, byte_data, sizeof(byte_data));
 40221b0:	e0fffe03 	ldbu	r3,-8(fp)
 40221b4:	e13ffc04 	addi	r4,fp,-16
 40221b8:	00800084 	movi	r2,2
 40221bc:	d8800015 	stw	r2,0(sp)
 40221c0:	200f883a 	mov	r7,r4
 40221c4:	180d883a 	mov	r6,r3
 40221c8:	01402e84 	movi	r5,186
 40221cc:	e13ffd17 	ldw	r4,-12(fp)
 40221d0:	40227700 	call	4022770 <i2c_write_array>
 40221d4:	e0bffb15 	stw	r2,-20(fp)

    if (success != I2C_SUCCESS) {
 40221d8:	e0bffb17 	ldw	r2,-20(fp)
 40221dc:	10000226 	beq	r2,zero,40221e8 <trdb_d5m_write+0x70>
        return 0;
 40221e0:	0005883a 	mov	r2,zero
 40221e4:	00000106 	br	40221ec <trdb_d5m_write+0x74>
    } else {
        return 1;
 40221e8:	00800044 	movi	r2,1
    }
}
 40221ec:	e037883a 	mov	sp,fp
 40221f0:	dfc00117 	ldw	ra,4(sp)
 40221f4:	df000017 	ldw	fp,0(sp)
 40221f8:	dec00204 	addi	sp,sp,8
 40221fc:	f800283a 	ret

04022200 <trdb_d5m_read>:

uint8_t trdb_d5m_read(i2c_dev *i2c, uint8_t register_offset, uint16_t *data) {
 4022200:	defff804 	addi	sp,sp,-32
 4022204:	dfc00715 	stw	ra,28(sp)
 4022208:	df000615 	stw	fp,24(sp)
 402220c:	df000604 	addi	fp,sp,24
 4022210:	e13ffd15 	stw	r4,-12(fp)
 4022214:	2805883a 	mov	r2,r5
 4022218:	e1bfff15 	stw	r6,-4(fp)
 402221c:	e0bffe05 	stb	r2,-8(fp)
    uint8_t byte_data[2] = {0, 0};
 4022220:	e03ffc05 	stb	zero,-16(fp)
 4022224:	e03ffc45 	stb	zero,-15(fp)

    int success = i2c_read_array(i2c, TRDB_D5M_I2C_ADDRESS, register_offset, byte_data, sizeof(byte_data));
 4022228:	e0fffe03 	ldbu	r3,-8(fp)
 402222c:	e13ffc04 	addi	r4,fp,-16
 4022230:	00800084 	movi	r2,2
 4022234:	d8800015 	stw	r2,0(sp)
 4022238:	200f883a 	mov	r7,r4
 402223c:	180d883a 	mov	r6,r3
 4022240:	01402e84 	movi	r5,186
 4022244:	e13ffd17 	ldw	r4,-12(fp)
 4022248:	40229040 	call	4022904 <i2c_read_array>
 402224c:	e0bffb15 	stw	r2,-20(fp)

    if (success != I2C_SUCCESS) {
 4022250:	e0bffb17 	ldw	r2,-20(fp)
 4022254:	10000226 	beq	r2,zero,4022260 <trdb_d5m_read+0x60>
        return 0;
 4022258:	0005883a 	mov	r2,zero
 402225c:	00000b06 	br	402228c <trdb_d5m_read+0x8c>
    } else {
        *data = ((uint16_t) byte_data[0] << 8) + byte_data[1];
 4022260:	e0bffc03 	ldbu	r2,-16(fp)
 4022264:	10803fcc 	andi	r2,r2,255
 4022268:	1004923a 	slli	r2,r2,8
 402226c:	1007883a 	mov	r3,r2
 4022270:	e0bffc43 	ldbu	r2,-15(fp)
 4022274:	10803fcc 	andi	r2,r2,255
 4022278:	1885883a 	add	r2,r3,r2
 402227c:	1007883a 	mov	r3,r2
 4022280:	e0bfff17 	ldw	r2,-4(fp)
 4022284:	10c0000d 	sth	r3,0(r2)
        return 1;
 4022288:	00800044 	movi	r2,1
    }
}
 402228c:	e037883a 	mov	sp,fp
 4022290:	dfc00117 	ldw	ra,4(sp)
 4022294:	df000017 	ldw	fp,0(sp)
 4022298:	dec00204 	addi	sp,sp,8
 402229c:	f800283a 	ret

040222a0 <i2c_usleep>:
static void wait_end_of_transfer(i2c_dev *dev);
static void set_data_control(i2c_dev *dev, uint8_t data, uint8_t control);
static uint8_t get_data_set_control(i2c_dev *dev, uint8_t control);

/* Function to put the host processor to sleep for microseconds */
static void i2c_usleep(unsigned int useconds) {
 40222a0:	defffd04 	addi	sp,sp,-12
 40222a4:	dfc00215 	stw	ra,8(sp)
 40222a8:	df000115 	stw	fp,4(sp)
 40222ac:	df000104 	addi	fp,sp,4
 40222b0:	e13fff15 	stw	r4,-4(fp)
#if defined(__KERNEL__) || defined(MODULE)
    udelay(useconds);
#else
    usleep(useconds);
 40222b4:	e13fff17 	ldw	r4,-4(fp)
 40222b8:	4034f180 	call	4034f18 <usleep>
#endif
}
 40222bc:	0001883a 	nop
 40222c0:	e037883a 	mov	sp,fp
 40222c4:	dfc00117 	ldw	ra,4(sp)
 40222c8:	df000017 	ldw	fp,0(sp)
 40222cc:	dec00204 	addi	sp,sp,8
 40222d0:	f800283a 	ret

040222d4 <wait_end_of_transfer>:
/*
 * wait_end_of_transfer
 *
 * Waits until the current i2c transfer is finished.
 */
static void wait_end_of_transfer(i2c_dev *dev) {
 40222d4:	defffe04 	addi	sp,sp,-8
 40222d8:	df000115 	stw	fp,4(sp)
 40222dc:	df000104 	addi	fp,sp,4
 40222e0:	e13fff15 	stw	r4,-4(fp)
    while (I2C_RD_STATUS(dev->base) & I2C_STATUS_TRANSFER_IN_PROGRESS_MSK);
 40222e4:	0001883a 	nop
 40222e8:	e0bfff17 	ldw	r2,-4(fp)
 40222ec:	10800017 	ldw	r2,0(r2)
 40222f0:	10800084 	addi	r2,r2,2
 40222f4:	10800023 	ldbuio	r2,0(r2)
 40222f8:	10803fcc 	andi	r2,r2,255
 40222fc:	1080020c 	andi	r2,r2,8
 4022300:	103ff91e 	bne	r2,zero,40222e8 <_gp+0xfffe0e4c>
}
 4022304:	0001883a 	nop
 4022308:	e037883a 	mov	sp,fp
 402230c:	df000017 	ldw	fp,0(sp)
 4022310:	dec00104 	addi	sp,sp,4
 4022314:	f800283a 	ret

04022318 <set_data_control>:
 * set_data_control
 *
 * Writes the supplied "data" argument to SDA while using the control sequences
 * provided in argument "control".
 */
static void set_data_control(i2c_dev *dev, uint8_t data, uint8_t control) {
 4022318:	defffb04 	addi	sp,sp,-20
 402231c:	dfc00415 	stw	ra,16(sp)
 4022320:	df000315 	stw	fp,12(sp)
 4022324:	df000304 	addi	fp,sp,12
 4022328:	e13ffd15 	stw	r4,-12(fp)
 402232c:	2807883a 	mov	r3,r5
 4022330:	3005883a 	mov	r2,r6
 4022334:	e0fffe05 	stb	r3,-8(fp)
 4022338:	e0bfff05 	stb	r2,-4(fp)
    wait_end_of_transfer(dev);
 402233c:	e13ffd17 	ldw	r4,-12(fp)
 4022340:	40222d40 	call	40222d4 <wait_end_of_transfer>
    I2C_WR_DATA(dev->base, data);
 4022344:	e0bffd17 	ldw	r2,-12(fp)
 4022348:	10800017 	ldw	r2,0(r2)
 402234c:	e0fffe03 	ldbu	r3,-8(fp)
 4022350:	10c00025 	stbio	r3,0(r2)
    I2C_WR_CONTROL(dev->base, control);
 4022354:	e0bffd17 	ldw	r2,-12(fp)
 4022358:	10800017 	ldw	r2,0(r2)
 402235c:	10800044 	addi	r2,r2,1
 4022360:	e0ffff03 	ldbu	r3,-4(fp)
 4022364:	10c00025 	stbio	r3,0(r2)
    wait_end_of_transfer(dev);
 4022368:	e13ffd17 	ldw	r4,-12(fp)
 402236c:	40222d40 	call	40222d4 <wait_end_of_transfer>
}
 4022370:	0001883a 	nop
 4022374:	e037883a 	mov	sp,fp
 4022378:	dfc00117 	ldw	ra,4(sp)
 402237c:	df000017 	ldw	fp,0(sp)
 4022380:	dec00204 	addi	sp,sp,8
 4022384:	f800283a 	ret

04022388 <get_data_set_control>:
 * get_data_set_control
 *
 * Reads data from SDA while using the control sequences provided in argument
 * "control".
 */
static uint8_t get_data_set_control(i2c_dev *dev, uint8_t control) {
 4022388:	defffc04 	addi	sp,sp,-16
 402238c:	dfc00315 	stw	ra,12(sp)
 4022390:	df000215 	stw	fp,8(sp)
 4022394:	df000204 	addi	fp,sp,8
 4022398:	e13ffe15 	stw	r4,-8(fp)
 402239c:	2805883a 	mov	r2,r5
 40223a0:	e0bfff05 	stb	r2,-4(fp)
    wait_end_of_transfer(dev);
 40223a4:	e13ffe17 	ldw	r4,-8(fp)
 40223a8:	40222d40 	call	40222d4 <wait_end_of_transfer>
    I2C_WR_CONTROL(dev->base, control);
 40223ac:	e0bffe17 	ldw	r2,-8(fp)
 40223b0:	10800017 	ldw	r2,0(r2)
 40223b4:	10800044 	addi	r2,r2,1
 40223b8:	e0ffff03 	ldbu	r3,-4(fp)
 40223bc:	10c00025 	stbio	r3,0(r2)
    wait_end_of_transfer(dev);
 40223c0:	e13ffe17 	ldw	r4,-8(fp)
 40223c4:	40222d40 	call	40222d4 <wait_end_of_transfer>
    return I2C_RD_DATA(dev->base);
 40223c8:	e0bffe17 	ldw	r2,-8(fp)
 40223cc:	10800017 	ldw	r2,0(r2)
 40223d0:	10800023 	ldbuio	r2,0(r2)
 40223d4:	10803fcc 	andi	r2,r2,255
}
 40223d8:	e037883a 	mov	sp,fp
 40223dc:	dfc00117 	ldw	ra,4(sp)
 40223e0:	df000017 	ldw	fp,0(sp)
 40223e4:	dec00204 	addi	sp,sp,8
 40223e8:	f800283a 	ret

040223ec <i2c_inst>:
/*
 * i2c_inst
 *
 * Constructs a device structure.
 */
i2c_dev i2c_inst(void *base) {
 40223ec:	defffd04 	addi	sp,sp,-12
 40223f0:	df000215 	stw	fp,8(sp)
 40223f4:	df000204 	addi	fp,sp,8
 40223f8:	e13fff15 	stw	r4,-4(fp)
    i2c_dev dev;

    dev.base = base;
 40223fc:	e0bfff17 	ldw	r2,-4(fp)
 4022400:	e0bffe15 	stw	r2,-8(fp)

    return dev;
 4022404:	e0bffe17 	ldw	r2,-8(fp)
}
 4022408:	e037883a 	mov	sp,fp
 402240c:	df000017 	ldw	fp,0(sp)
 4022410:	dec00104 	addi	sp,sp,4
 4022414:	f800283a 	ret

04022418 <i2c_init>:
 * standard data rate for an I2C transfer is 100 kbits/s. However, in order to
 * meet the timing constraints of the protocol, the I2C controller needs to
 * operate 4 times faster. Therefore, one must set the clock divisor register to
 * i2c_frequency / (4 * 100 KHz).
 */
void i2c_init(i2c_dev *dev, uint32_t i2c_frequency) {
 4022418:	defffb04 	addi	sp,sp,-20
 402241c:	dfc00415 	stw	ra,16(sp)
 4022420:	df000315 	stw	fp,12(sp)
 4022424:	dc000215 	stw	r16,8(sp)
 4022428:	df000304 	addi	fp,sp,12
 402242c:	e13ffd15 	stw	r4,-12(fp)
 4022430:	e17ffe15 	stw	r5,-8(fp)
    I2C_WR_CLOCK_DIVISOR(dev->base, i2c_frequency / (4 * 100000));
 4022434:	e0bffd17 	ldw	r2,-12(fp)
 4022438:	10800017 	ldw	r2,0(r2)
 402243c:	140000c4 	addi	r16,r2,3
 4022440:	e0bffe17 	ldw	r2,-8(fp)
 4022444:	014001b4 	movhi	r5,6
 4022448:	2946a004 	addi	r5,r5,6784
 402244c:	1009883a 	mov	r4,r2
 4022450:	4022c040 	call	4022c04 <__udivsi3>
 4022454:	80800025 	stbio	r2,0(r16)
    i2c_usleep(I2C_SLEEP_US);
 4022458:	0104e204 	movi	r4,5000
 402245c:	40222a00 	call	40222a0 <i2c_usleep>
}
 4022460:	0001883a 	nop
 4022464:	e6ffff04 	addi	sp,fp,-4
 4022468:	dfc00217 	ldw	ra,8(sp)
 402246c:	df000117 	ldw	fp,4(sp)
 4022470:	dc000017 	ldw	r16,0(sp)
 4022474:	dec00304 	addi	sp,sp,12
 4022478:	f800283a 	ret

0402247c <i2c_configure>:
 * Configure the controller.
 *
 * Setting the irq paramater to true enables interrupt generation at the end of
 * a read/write transfer, and false disables interrupt generation.
 */
void i2c_configure(i2c_dev *dev, bool irq) {
 402247c:	defffc04 	addi	sp,sp,-16
 4022480:	df000315 	stw	fp,12(sp)
 4022484:	df000304 	addi	fp,sp,12
 4022488:	e13ffe15 	stw	r4,-8(fp)
 402248c:	2805883a 	mov	r2,r5
 4022490:	e0bfff05 	stb	r2,-4(fp)
    uint32_t config = 0;
 4022494:	e03ffd15 	stw	zero,-12(fp)

    if (irq) {
 4022498:	e0bfff03 	ldbu	r2,-4(fp)
 402249c:	10000426 	beq	r2,zero,40224b0 <i2c_configure+0x34>
        config |= I2C_CONTROL_INTERRUPT_ENABLE_MSK;
 40224a0:	e0bffd17 	ldw	r2,-12(fp)
 40224a4:	10800814 	ori	r2,r2,32
 40224a8:	e0bffd15 	stw	r2,-12(fp)
 40224ac:	00000406 	br	40224c0 <i2c_configure+0x44>
    } else {
        config &= ~I2C_CONTROL_INTERRUPT_ENABLE_MSK;
 40224b0:	e0fffd17 	ldw	r3,-12(fp)
 40224b4:	00bff7c4 	movi	r2,-33
 40224b8:	1884703a 	and	r2,r3,r2
 40224bc:	e0bffd15 	stw	r2,-12(fp)
    }

    I2C_WR_CONTROL(dev->base, I2C_CONTROL_GENERATE_STOP_SEQUENCE_MSK);
 40224c0:	e0bffe17 	ldw	r2,-8(fp)
 40224c4:	10800017 	ldw	r2,0(r2)
 40224c8:	10800044 	addi	r2,r2,1
 40224cc:	00c00084 	movi	r3,2
 40224d0:	10c00025 	stbio	r3,0(r2)
    I2C_WR_CONTROL(dev->base, config);
 40224d4:	e0bffe17 	ldw	r2,-8(fp)
 40224d8:	10800017 	ldw	r2,0(r2)
 40224dc:	10800044 	addi	r2,r2,1
 40224e0:	e0fffd17 	ldw	r3,-12(fp)
 40224e4:	10c00025 	stbio	r3,0(r2)
}
 40224e8:	0001883a 	nop
 40224ec:	e037883a 	mov	sp,fp
 40224f0:	df000017 	ldw	fp,0(sp)
 40224f4:	dec00104 	addi	sp,sp,4
 40224f8:	f800283a 	ret

040224fc <i2c_write>:
 *
 * Returns: I2C_SUCCESS -> success
 *          I2C_ENODEV  -> device does not answer
 *          I2C_EBADACK -> bad acknowledge received
 */
int i2c_write(i2c_dev *dev, uint8_t device, uint8_t index, uint8_t value) {
 40224fc:	defffa04 	addi	sp,sp,-24
 4022500:	dfc00515 	stw	ra,20(sp)
 4022504:	df000415 	stw	fp,16(sp)
 4022508:	df000404 	addi	fp,sp,16
 402250c:	e13ffc15 	stw	r4,-16(fp)
 4022510:	2809883a 	mov	r4,r5
 4022514:	3007883a 	mov	r3,r6
 4022518:	3805883a 	mov	r2,r7
 402251c:	e13ffd05 	stb	r4,-12(fp)
 4022520:	e0fffe05 	stb	r3,-8(fp)
 4022524:	e0bfff05 	stb	r2,-4(fp)
    /* write to the device with the R/W bit set to 0 (write mode) */
    set_data_control(dev, device & 0xFE, I2C_CONTROL_GENERATE_START_SEQUENCE_MSK | I2C_CONTROL_WRITE_COMMAND_MSK);
 4022528:	e0bffd03 	ldbu	r2,-12(fp)
 402252c:	10803f8c 	andi	r2,r2,254
 4022530:	01800504 	movi	r6,20
 4022534:	100b883a 	mov	r5,r2
 4022538:	e13ffc17 	ldw	r4,-16(fp)
 402253c:	40223180 	call	4022318 <set_data_control>

    /* error: device does not answer */
    if (I2C_RD_STATUS(dev->base) & I2C_STATUS_LAST_ACKNOWLEDGE_RECEIVED_MSK) {
 4022540:	e0bffc17 	ldw	r2,-16(fp)
 4022544:	10800017 	ldw	r2,0(r2)
 4022548:	10800084 	addi	r2,r2,2
 402254c:	10800023 	ldbuio	r2,0(r2)
 4022550:	10803fcc 	andi	r2,r2,255
 4022554:	1080004c 	andi	r2,r2,1
 4022558:	10000726 	beq	r2,zero,4022578 <i2c_write+0x7c>
        I2C_WR_CONTROL(dev->base, I2C_CONTROL_GENERATE_STOP_SEQUENCE_MSK);
 402255c:	e0bffc17 	ldw	r2,-16(fp)
 4022560:	10800017 	ldw	r2,0(r2)
 4022564:	10800044 	addi	r2,r2,1
 4022568:	00c00084 	movi	r3,2
 402256c:	10c00025 	stbio	r3,0(r2)
        return I2C_ENODEV;
 4022570:	00800044 	movi	r2,1
 4022574:	00002706 	br	4022614 <i2c_write+0x118>
    }

    /* write register index to device */
    set_data_control(dev, index, I2C_CONTROL_WRITE_COMMAND_MSK);
 4022578:	e0bffe03 	ldbu	r2,-8(fp)
 402257c:	01800404 	movi	r6,16
 4022580:	100b883a 	mov	r5,r2
 4022584:	e13ffc17 	ldw	r4,-16(fp)
 4022588:	40223180 	call	4022318 <set_data_control>

    /* error: bad acknowledge */
    if (I2C_RD_STATUS(dev->base) & I2C_STATUS_LAST_ACKNOWLEDGE_RECEIVED_MSK) {
 402258c:	e0bffc17 	ldw	r2,-16(fp)
 4022590:	10800017 	ldw	r2,0(r2)
 4022594:	10800084 	addi	r2,r2,2
 4022598:	10800023 	ldbuio	r2,0(r2)
 402259c:	10803fcc 	andi	r2,r2,255
 40225a0:	1080004c 	andi	r2,r2,1
 40225a4:	10000726 	beq	r2,zero,40225c4 <i2c_write+0xc8>
        I2C_WR_CONTROL(dev->base, I2C_CONTROL_GENERATE_STOP_SEQUENCE_MSK);
 40225a8:	e0bffc17 	ldw	r2,-16(fp)
 40225ac:	10800017 	ldw	r2,0(r2)
 40225b0:	10800044 	addi	r2,r2,1
 40225b4:	00c00084 	movi	r3,2
 40225b8:	10c00025 	stbio	r3,0(r2)
        return I2C_EBADACK;
 40225bc:	00800084 	movi	r2,2
 40225c0:	00001406 	br	4022614 <i2c_write+0x118>
    }

    /* write register data to device */
    set_data_control(dev, value, I2C_CONTROL_GENERATE_STOP_SEQUENCE_MSK | I2C_CONTROL_WRITE_COMMAND_MSK);
 40225c4:	e0bfff03 	ldbu	r2,-4(fp)
 40225c8:	01800484 	movi	r6,18
 40225cc:	100b883a 	mov	r5,r2
 40225d0:	e13ffc17 	ldw	r4,-16(fp)
 40225d4:	40223180 	call	4022318 <set_data_control>

    /* error: bad acknowledge */
    if (I2C_RD_STATUS(dev->base) & I2C_STATUS_LAST_ACKNOWLEDGE_RECEIVED_MSK) {
 40225d8:	e0bffc17 	ldw	r2,-16(fp)
 40225dc:	10800017 	ldw	r2,0(r2)
 40225e0:	10800084 	addi	r2,r2,2
 40225e4:	10800023 	ldbuio	r2,0(r2)
 40225e8:	10803fcc 	andi	r2,r2,255
 40225ec:	1080004c 	andi	r2,r2,1
 40225f0:	10000726 	beq	r2,zero,4022610 <i2c_write+0x114>
        I2C_WR_CONTROL(dev->base, I2C_CONTROL_GENERATE_STOP_SEQUENCE_MSK);
 40225f4:	e0bffc17 	ldw	r2,-16(fp)
 40225f8:	10800017 	ldw	r2,0(r2)
 40225fc:	10800044 	addi	r2,r2,1
 4022600:	00c00084 	movi	r3,2
 4022604:	10c00025 	stbio	r3,0(r2)
        return I2C_EBADACK;
 4022608:	00800084 	movi	r2,2
 402260c:	00000106 	br	4022614 <i2c_write+0x118>
    }

    return I2C_SUCCESS;
 4022610:	0005883a 	mov	r2,zero
}
 4022614:	e037883a 	mov	sp,fp
 4022618:	dfc00117 	ldw	ra,4(sp)
 402261c:	df000017 	ldw	fp,0(sp)
 4022620:	dec00204 	addi	sp,sp,8
 4022624:	f800283a 	ret

04022628 <i2c_read>:
 *
 * Returns: I2C_SUCCESS -> success
 *          I2C_ENODEV  -> device does not answer
 *          I2C_EBADACK -> bad acknowledge received
 */
int i2c_read(i2c_dev *dev, uint8_t device, uint8_t index, uint8_t *value) {
 4022628:	defffa04 	addi	sp,sp,-24
 402262c:	dfc00515 	stw	ra,20(sp)
 4022630:	df000415 	stw	fp,16(sp)
 4022634:	df000404 	addi	fp,sp,16
 4022638:	e13ffc15 	stw	r4,-16(fp)
 402263c:	2807883a 	mov	r3,r5
 4022640:	3005883a 	mov	r2,r6
 4022644:	e1ffff15 	stw	r7,-4(fp)
 4022648:	e0fffd05 	stb	r3,-12(fp)
 402264c:	e0bffe05 	stb	r2,-8(fp)
    /* write to the device with the R/W bit set to 0 (write mode) */
    set_data_control(dev, device & 0xFE, I2C_CONTROL_GENERATE_START_SEQUENCE_MSK | I2C_CONTROL_WRITE_COMMAND_MSK);
 4022650:	e0bffd03 	ldbu	r2,-12(fp)
 4022654:	10803f8c 	andi	r2,r2,254
 4022658:	01800504 	movi	r6,20
 402265c:	100b883a 	mov	r5,r2
 4022660:	e13ffc17 	ldw	r4,-16(fp)
 4022664:	40223180 	call	4022318 <set_data_control>

    /* error: device does not answer */
    if (I2C_RD_STATUS(dev->base) & I2C_STATUS_LAST_ACKNOWLEDGE_RECEIVED_MSK) {
 4022668:	e0bffc17 	ldw	r2,-16(fp)
 402266c:	10800017 	ldw	r2,0(r2)
 4022670:	10800084 	addi	r2,r2,2
 4022674:	10800023 	ldbuio	r2,0(r2)
 4022678:	10803fcc 	andi	r2,r2,255
 402267c:	1080004c 	andi	r2,r2,1
 4022680:	10000726 	beq	r2,zero,40226a0 <i2c_read+0x78>
        I2C_WR_CONTROL(dev->base, I2C_CONTROL_GENERATE_STOP_SEQUENCE_MSK);
 4022684:	e0bffc17 	ldw	r2,-16(fp)
 4022688:	10800017 	ldw	r2,0(r2)
 402268c:	10800044 	addi	r2,r2,1
 4022690:	00c00084 	movi	r3,2
 4022694:	10c00025 	stbio	r3,0(r2)
        return I2C_ENODEV;
 4022698:	00800044 	movi	r2,1
 402269c:	00002f06 	br	402275c <i2c_read+0x134>
    }

    /* write register index to device */
    set_data_control(dev, index, I2C_CONTROL_WRITE_COMMAND_MSK);
 40226a0:	e0bffe03 	ldbu	r2,-8(fp)
 40226a4:	01800404 	movi	r6,16
 40226a8:	100b883a 	mov	r5,r2
 40226ac:	e13ffc17 	ldw	r4,-16(fp)
 40226b0:	40223180 	call	4022318 <set_data_control>

    /* error: bad acknowledge */
    if (I2C_RD_STATUS(dev->base) & I2C_STATUS_LAST_ACKNOWLEDGE_RECEIVED_MSK) {
 40226b4:	e0bffc17 	ldw	r2,-16(fp)
 40226b8:	10800017 	ldw	r2,0(r2)
 40226bc:	10800084 	addi	r2,r2,2
 40226c0:	10800023 	ldbuio	r2,0(r2)
 40226c4:	10803fcc 	andi	r2,r2,255
 40226c8:	1080004c 	andi	r2,r2,1
 40226cc:	10000726 	beq	r2,zero,40226ec <i2c_read+0xc4>
        I2C_WR_CONTROL(dev->base, I2C_CONTROL_GENERATE_STOP_SEQUENCE_MSK);
 40226d0:	e0bffc17 	ldw	r2,-16(fp)
 40226d4:	10800017 	ldw	r2,0(r2)
 40226d8:	10800044 	addi	r2,r2,1
 40226dc:	00c00084 	movi	r3,2
 40226e0:	10c00025 	stbio	r3,0(r2)
        return I2C_EBADACK;
 40226e4:	00800084 	movi	r2,2
 40226e8:	00001c06 	br	402275c <i2c_read+0x134>
    }

    /* write to the device with the R/W bit set to 1 (read mode) */
    set_data_control(dev, device | 0x01, I2C_CONTROL_GENERATE_START_SEQUENCE_MSK | I2C_CONTROL_WRITE_COMMAND_MSK);
 40226ec:	e0bffd03 	ldbu	r2,-12(fp)
 40226f0:	10800054 	ori	r2,r2,1
 40226f4:	10803fcc 	andi	r2,r2,255
 40226f8:	01800504 	movi	r6,20
 40226fc:	100b883a 	mov	r5,r2
 4022700:	e13ffc17 	ldw	r4,-16(fp)
 4022704:	40223180 	call	4022318 <set_data_control>

    /* error: device does not answer */
    if (I2C_RD_STATUS(dev->base) & I2C_STATUS_LAST_ACKNOWLEDGE_RECEIVED_MSK) {
 4022708:	e0bffc17 	ldw	r2,-16(fp)
 402270c:	10800017 	ldw	r2,0(r2)
 4022710:	10800084 	addi	r2,r2,2
 4022714:	10800023 	ldbuio	r2,0(r2)
 4022718:	10803fcc 	andi	r2,r2,255
 402271c:	1080004c 	andi	r2,r2,1
 4022720:	10000726 	beq	r2,zero,4022740 <i2c_read+0x118>
        I2C_WR_CONTROL(dev->base, I2C_CONTROL_GENERATE_STOP_SEQUENCE_MSK);
 4022724:	e0bffc17 	ldw	r2,-16(fp)
 4022728:	10800017 	ldw	r2,0(r2)
 402272c:	10800044 	addi	r2,r2,1
 4022730:	00c00084 	movi	r3,2
 4022734:	10c00025 	stbio	r3,0(r2)
        return I2C_ENODEV;
 4022738:	00800044 	movi	r2,1
 402273c:	00000706 	br	402275c <i2c_read+0x134>
    }

    /* Read the data. Attention: write I2C_CONTROL_ACKNOWLEDGE_READ_MSK to control register to send a N0_ACK */
    *value = get_data_set_control(dev, I2C_CONTROL_GENERATE_STOP_SEQUENCE_MSK | I2C_CONTROL_READ_COMMAND_MSK | I2C_CONTROL_ACKNOWLEDGE_READ_MSK);
 4022740:	014002c4 	movi	r5,11
 4022744:	e13ffc17 	ldw	r4,-16(fp)
 4022748:	40223880 	call	4022388 <get_data_set_control>
 402274c:	1007883a 	mov	r3,r2
 4022750:	e0bfff17 	ldw	r2,-4(fp)
 4022754:	10c00005 	stb	r3,0(r2)

    return I2C_SUCCESS;
 4022758:	0005883a 	mov	r2,zero
}
 402275c:	e037883a 	mov	sp,fp
 4022760:	dfc00117 	ldw	ra,4(sp)
 4022764:	df000017 	ldw	fp,0(sp)
 4022768:	dec00204 	addi	sp,sp,8
 402276c:	f800283a 	ret

04022770 <i2c_write_array>:
 *
 * Returns: I2C_SUCCESS -> success
 *          I2C_ENODEV  -> device does not answer
 *          I2C_EBADACK -> bad acknowledge received
 */
int i2c_write_array(i2c_dev *dev, uint8_t device, uint8_t index, uint8_t *value, unsigned int size) {
 4022770:	defff904 	addi	sp,sp,-28
 4022774:	dfc00615 	stw	ra,24(sp)
 4022778:	df000515 	stw	fp,20(sp)
 402277c:	df000504 	addi	fp,sp,20
 4022780:	e13ffc15 	stw	r4,-16(fp)
 4022784:	2807883a 	mov	r3,r5
 4022788:	3005883a 	mov	r2,r6
 402278c:	e1ffff15 	stw	r7,-4(fp)
 4022790:	e0fffd05 	stb	r3,-12(fp)
 4022794:	e0bffe05 	stb	r2,-8(fp)
    /* write to the device with the R/W bit set to 0 (write mode) */
    set_data_control(dev, device & 0xFE, I2C_CONTROL_GENERATE_START_SEQUENCE_MSK | I2C_CONTROL_WRITE_COMMAND_MSK);
 4022798:	e0bffd03 	ldbu	r2,-12(fp)
 402279c:	10803f8c 	andi	r2,r2,254
 40227a0:	01800504 	movi	r6,20
 40227a4:	100b883a 	mov	r5,r2
 40227a8:	e13ffc17 	ldw	r4,-16(fp)
 40227ac:	40223180 	call	4022318 <set_data_control>

    /* error: device does not answer */
    if (I2C_RD_STATUS(dev->base) & I2C_STATUS_LAST_ACKNOWLEDGE_RECEIVED_MSK) {
 40227b0:	e0bffc17 	ldw	r2,-16(fp)
 40227b4:	10800017 	ldw	r2,0(r2)
 40227b8:	10800084 	addi	r2,r2,2
 40227bc:	10800023 	ldbuio	r2,0(r2)
 40227c0:	10803fcc 	andi	r2,r2,255
 40227c4:	1080004c 	andi	r2,r2,1
 40227c8:	10000726 	beq	r2,zero,40227e8 <i2c_write_array+0x78>
        I2C_WR_CONTROL(dev->base, I2C_CONTROL_GENERATE_STOP_SEQUENCE_MSK);
 40227cc:	e0bffc17 	ldw	r2,-16(fp)
 40227d0:	10800017 	ldw	r2,0(r2)
 40227d4:	10800044 	addi	r2,r2,1
 40227d8:	00c00084 	movi	r3,2
 40227dc:	10c00025 	stbio	r3,0(r2)
        return I2C_ENODEV;
 40227e0:	00800044 	movi	r2,1
 40227e4:	00004206 	br	40228f0 <i2c_write_array+0x180>
    }

    /* write register index to device */
    set_data_control(dev, index, I2C_CONTROL_WRITE_COMMAND_MSK);
 40227e8:	e0bffe03 	ldbu	r2,-8(fp)
 40227ec:	01800404 	movi	r6,16
 40227f0:	100b883a 	mov	r5,r2
 40227f4:	e13ffc17 	ldw	r4,-16(fp)
 40227f8:	40223180 	call	4022318 <set_data_control>

    /* error: bad acknowledge */
    if (I2C_RD_STATUS(dev->base) & I2C_STATUS_LAST_ACKNOWLEDGE_RECEIVED_MSK) {
 40227fc:	e0bffc17 	ldw	r2,-16(fp)
 4022800:	10800017 	ldw	r2,0(r2)
 4022804:	10800084 	addi	r2,r2,2
 4022808:	10800023 	ldbuio	r2,0(r2)
 402280c:	10803fcc 	andi	r2,r2,255
 4022810:	1080004c 	andi	r2,r2,1
 4022814:	10000726 	beq	r2,zero,4022834 <i2c_write_array+0xc4>
        I2C_WR_CONTROL(dev->base, I2C_CONTROL_GENERATE_STOP_SEQUENCE_MSK);
 4022818:	e0bffc17 	ldw	r2,-16(fp)
 402281c:	10800017 	ldw	r2,0(r2)
 4022820:	10800044 	addi	r2,r2,1
 4022824:	00c00084 	movi	r3,2
 4022828:	10c00025 	stbio	r3,0(r2)
        return I2C_EBADACK;
 402282c:	00800084 	movi	r2,2
 4022830:	00002f06 	br	40228f0 <i2c_write_array+0x180>
    }

    unsigned int i = 0;
 4022834:	e03ffb15 	stw	zero,-20(fp)
    for (i = 0; i < size; i++) {
 4022838:	e03ffb15 	stw	zero,-20(fp)
 402283c:	00002806 	br	40228e0 <i2c_write_array+0x170>
        /* write register data to device */
        if (i < size - 1) {
 4022840:	e0800217 	ldw	r2,8(fp)
 4022844:	10bfffc4 	addi	r2,r2,-1
 4022848:	e0fffb17 	ldw	r3,-20(fp)
 402284c:	18800a2e 	bgeu	r3,r2,4022878 <i2c_write_array+0x108>
            set_data_control(dev, value[i], I2C_CONTROL_WRITE_COMMAND_MSK);
 4022850:	e0ffff17 	ldw	r3,-4(fp)
 4022854:	e0bffb17 	ldw	r2,-20(fp)
 4022858:	1885883a 	add	r2,r3,r2
 402285c:	10800003 	ldbu	r2,0(r2)
 4022860:	10803fcc 	andi	r2,r2,255
 4022864:	01800404 	movi	r6,16
 4022868:	100b883a 	mov	r5,r2
 402286c:	e13ffc17 	ldw	r4,-16(fp)
 4022870:	40223180 	call	4022318 <set_data_control>
 4022874:	00000906 	br	402289c <i2c_write_array+0x12c>
        } else {
            set_data_control(dev, value[i], I2C_CONTROL_GENERATE_STOP_SEQUENCE_MSK | I2C_CONTROL_WRITE_COMMAND_MSK);
 4022878:	e0ffff17 	ldw	r3,-4(fp)
 402287c:	e0bffb17 	ldw	r2,-20(fp)
 4022880:	1885883a 	add	r2,r3,r2
 4022884:	10800003 	ldbu	r2,0(r2)
 4022888:	10803fcc 	andi	r2,r2,255
 402288c:	01800484 	movi	r6,18
 4022890:	100b883a 	mov	r5,r2
 4022894:	e13ffc17 	ldw	r4,-16(fp)
 4022898:	40223180 	call	4022318 <set_data_control>

        }

        /* error: bad acknowledge */
        if (I2C_RD_STATUS(dev->base) & I2C_STATUS_LAST_ACKNOWLEDGE_RECEIVED_MSK) {
 402289c:	e0bffc17 	ldw	r2,-16(fp)
 40228a0:	10800017 	ldw	r2,0(r2)
 40228a4:	10800084 	addi	r2,r2,2
 40228a8:	10800023 	ldbuio	r2,0(r2)
 40228ac:	10803fcc 	andi	r2,r2,255
 40228b0:	1080004c 	andi	r2,r2,1
 40228b4:	10000726 	beq	r2,zero,40228d4 <i2c_write_array+0x164>
            I2C_WR_CONTROL(dev->base, I2C_CONTROL_GENERATE_STOP_SEQUENCE_MSK);
 40228b8:	e0bffc17 	ldw	r2,-16(fp)
 40228bc:	10800017 	ldw	r2,0(r2)
 40228c0:	10800044 	addi	r2,r2,1
 40228c4:	00c00084 	movi	r3,2
 40228c8:	10c00025 	stbio	r3,0(r2)
            return I2C_EBADACK;
 40228cc:	00800084 	movi	r2,2
 40228d0:	00000706 	br	40228f0 <i2c_write_array+0x180>
        I2C_WR_CONTROL(dev->base, I2C_CONTROL_GENERATE_STOP_SEQUENCE_MSK);
        return I2C_EBADACK;
    }

    unsigned int i = 0;
    for (i = 0; i < size; i++) {
 40228d4:	e0bffb17 	ldw	r2,-20(fp)
 40228d8:	10800044 	addi	r2,r2,1
 40228dc:	e0bffb15 	stw	r2,-20(fp)
 40228e0:	e0fffb17 	ldw	r3,-20(fp)
 40228e4:	e0800217 	ldw	r2,8(fp)
 40228e8:	18bfd536 	bltu	r3,r2,4022840 <_gp+0xfffe13a4>
            I2C_WR_CONTROL(dev->base, I2C_CONTROL_GENERATE_STOP_SEQUENCE_MSK);
            return I2C_EBADACK;
        }
    }

    return I2C_SUCCESS;
 40228ec:	0005883a 	mov	r2,zero
}
 40228f0:	e037883a 	mov	sp,fp
 40228f4:	dfc00117 	ldw	ra,4(sp)
 40228f8:	df000017 	ldw	fp,0(sp)
 40228fc:	dec00204 	addi	sp,sp,8
 4022900:	f800283a 	ret

04022904 <i2c_read_array>:
 *
 * Returns: I2C_SUCCESS -> success
 *          I2C_ENODEV  -> device does not answer
 *          I2C_EBADACK -> bad acknowledge received
 */
int i2c_read_array(i2c_dev *dev, uint8_t device, uint8_t index, uint8_t *value, unsigned int size) {
 4022904:	defff804 	addi	sp,sp,-32
 4022908:	dfc00715 	stw	ra,28(sp)
 402290c:	df000615 	stw	fp,24(sp)
 4022910:	dc000515 	stw	r16,20(sp)
 4022914:	df000604 	addi	fp,sp,24
 4022918:	e13ffb15 	stw	r4,-20(fp)
 402291c:	2807883a 	mov	r3,r5
 4022920:	3005883a 	mov	r2,r6
 4022924:	e1fffe15 	stw	r7,-8(fp)
 4022928:	e0fffc05 	stb	r3,-16(fp)
 402292c:	e0bffd05 	stb	r2,-12(fp)
    /* write to the device with the R/W bit set to 0 (write mode) */
    set_data_control(dev, device & 0xFE, I2C_CONTROL_GENERATE_START_SEQUENCE_MSK | I2C_CONTROL_WRITE_COMMAND_MSK);
 4022930:	e0bffc03 	ldbu	r2,-16(fp)
 4022934:	10803f8c 	andi	r2,r2,254
 4022938:	01800504 	movi	r6,20
 402293c:	100b883a 	mov	r5,r2
 4022940:	e13ffb17 	ldw	r4,-20(fp)
 4022944:	40223180 	call	4022318 <set_data_control>

    /* error: device does not answer */
    if (I2C_RD_STATUS(dev->base) & I2C_STATUS_LAST_ACKNOWLEDGE_RECEIVED_MSK) {
 4022948:	e0bffb17 	ldw	r2,-20(fp)
 402294c:	10800017 	ldw	r2,0(r2)
 4022950:	10800084 	addi	r2,r2,2
 4022954:	10800023 	ldbuio	r2,0(r2)
 4022958:	10803fcc 	andi	r2,r2,255
 402295c:	1080004c 	andi	r2,r2,1
 4022960:	10000726 	beq	r2,zero,4022980 <i2c_read_array+0x7c>
        I2C_WR_CONTROL(dev->base, I2C_CONTROL_GENERATE_STOP_SEQUENCE_MSK);
 4022964:	e0bffb17 	ldw	r2,-20(fp)
 4022968:	10800017 	ldw	r2,0(r2)
 402296c:	10800044 	addi	r2,r2,1
 4022970:	00c00084 	movi	r3,2
 4022974:	10c00025 	stbio	r3,0(r2)
        return I2C_ENODEV;
 4022978:	00800044 	movi	r2,1
 402297c:	00004506 	br	4022a94 <i2c_read_array+0x190>
    }

    /* write register index to device */
    set_data_control(dev, index, I2C_CONTROL_WRITE_COMMAND_MSK);
 4022980:	e0bffd03 	ldbu	r2,-12(fp)
 4022984:	01800404 	movi	r6,16
 4022988:	100b883a 	mov	r5,r2
 402298c:	e13ffb17 	ldw	r4,-20(fp)
 4022990:	40223180 	call	4022318 <set_data_control>

    /* error: bad acknowledge */
    if (I2C_RD_STATUS(dev->base) & I2C_STATUS_LAST_ACKNOWLEDGE_RECEIVED_MSK) {
 4022994:	e0bffb17 	ldw	r2,-20(fp)
 4022998:	10800017 	ldw	r2,0(r2)
 402299c:	10800084 	addi	r2,r2,2
 40229a0:	10800023 	ldbuio	r2,0(r2)
 40229a4:	10803fcc 	andi	r2,r2,255
 40229a8:	1080004c 	andi	r2,r2,1
 40229ac:	10000726 	beq	r2,zero,40229cc <i2c_read_array+0xc8>
        I2C_WR_CONTROL(dev->base, I2C_CONTROL_GENERATE_STOP_SEQUENCE_MSK);
 40229b0:	e0bffb17 	ldw	r2,-20(fp)
 40229b4:	10800017 	ldw	r2,0(r2)
 40229b8:	10800044 	addi	r2,r2,1
 40229bc:	00c00084 	movi	r3,2
 40229c0:	10c00025 	stbio	r3,0(r2)
        return I2C_EBADACK;
 40229c4:	00800084 	movi	r2,2
 40229c8:	00003206 	br	4022a94 <i2c_read_array+0x190>
    }

    /* write to the device with the R/W bit set to 1 (read mode) */
    set_data_control(dev, device | 0x01, I2C_CONTROL_GENERATE_START_SEQUENCE_MSK | I2C_CONTROL_WRITE_COMMAND_MSK);
 40229cc:	e0bffc03 	ldbu	r2,-16(fp)
 40229d0:	10800054 	ori	r2,r2,1
 40229d4:	10803fcc 	andi	r2,r2,255
 40229d8:	01800504 	movi	r6,20
 40229dc:	100b883a 	mov	r5,r2
 40229e0:	e13ffb17 	ldw	r4,-20(fp)
 40229e4:	40223180 	call	4022318 <set_data_control>

    /* error: device does not answer */
    if (I2C_RD_STATUS(dev->base) & I2C_STATUS_LAST_ACKNOWLEDGE_RECEIVED_MSK) {
 40229e8:	e0bffb17 	ldw	r2,-20(fp)
 40229ec:	10800017 	ldw	r2,0(r2)
 40229f0:	10800084 	addi	r2,r2,2
 40229f4:	10800023 	ldbuio	r2,0(r2)
 40229f8:	10803fcc 	andi	r2,r2,255
 40229fc:	1080004c 	andi	r2,r2,1
 4022a00:	10000726 	beq	r2,zero,4022a20 <i2c_read_array+0x11c>
        I2C_WR_CONTROL(dev->base, I2C_CONTROL_GENERATE_STOP_SEQUENCE_MSK);
 4022a04:	e0bffb17 	ldw	r2,-20(fp)
 4022a08:	10800017 	ldw	r2,0(r2)
 4022a0c:	10800044 	addi	r2,r2,1
 4022a10:	00c00084 	movi	r3,2
 4022a14:	10c00025 	stbio	r3,0(r2)
        return I2C_ENODEV;
 4022a18:	00800044 	movi	r2,1
 4022a1c:	00001d06 	br	4022a94 <i2c_read_array+0x190>
    }

    unsigned int i = 0;
 4022a20:	e03ffa15 	stw	zero,-24(fp)
    for (i = 0; i < size; i++) {
 4022a24:	e03ffa15 	stw	zero,-24(fp)
 4022a28:	00001606 	br	4022a84 <i2c_read_array+0x180>
        if (i < size - 1) {
 4022a2c:	e0800217 	ldw	r2,8(fp)
 4022a30:	10bfffc4 	addi	r2,r2,-1
 4022a34:	e0fffa17 	ldw	r3,-24(fp)
 4022a38:	1880082e 	bgeu	r3,r2,4022a5c <i2c_read_array+0x158>
            value[i] = get_data_set_control(dev, I2C_CONTROL_READ_COMMAND_MSK);
 4022a3c:	e0fffe17 	ldw	r3,-8(fp)
 4022a40:	e0bffa17 	ldw	r2,-24(fp)
 4022a44:	18a1883a 	add	r16,r3,r2
 4022a48:	01400204 	movi	r5,8
 4022a4c:	e13ffb17 	ldw	r4,-20(fp)
 4022a50:	40223880 	call	4022388 <get_data_set_control>
 4022a54:	80800005 	stb	r2,0(r16)
 4022a58:	00000706 	br	4022a78 <i2c_read_array+0x174>
        } else {
            /* Read the data. Attention: write I2C_CONTROL_ACKNOWLEDGE_READ_MSK to control register to send a N0_ACK */
            value[i] = get_data_set_control(dev, I2C_CONTROL_GENERATE_STOP_SEQUENCE_MSK | I2C_CONTROL_READ_COMMAND_MSK | I2C_CONTROL_ACKNOWLEDGE_READ_MSK);
 4022a5c:	e0fffe17 	ldw	r3,-8(fp)
 4022a60:	e0bffa17 	ldw	r2,-24(fp)
 4022a64:	18a1883a 	add	r16,r3,r2
 4022a68:	014002c4 	movi	r5,11
 4022a6c:	e13ffb17 	ldw	r4,-20(fp)
 4022a70:	40223880 	call	4022388 <get_data_set_control>
 4022a74:	80800005 	stb	r2,0(r16)
        I2C_WR_CONTROL(dev->base, I2C_CONTROL_GENERATE_STOP_SEQUENCE_MSK);
        return I2C_ENODEV;
    }

    unsigned int i = 0;
    for (i = 0; i < size; i++) {
 4022a78:	e0bffa17 	ldw	r2,-24(fp)
 4022a7c:	10800044 	addi	r2,r2,1
 4022a80:	e0bffa15 	stw	r2,-24(fp)
 4022a84:	e0fffa17 	ldw	r3,-24(fp)
 4022a88:	e0800217 	ldw	r2,8(fp)
 4022a8c:	18bfe736 	bltu	r3,r2,4022a2c <_gp+0xfffe1590>
            /* Read the data. Attention: write I2C_CONTROL_ACKNOWLEDGE_READ_MSK to control register to send a N0_ACK */
            value[i] = get_data_set_control(dev, I2C_CONTROL_GENERATE_STOP_SEQUENCE_MSK | I2C_CONTROL_READ_COMMAND_MSK | I2C_CONTROL_ACKNOWLEDGE_READ_MSK);
        }
    }

    return I2C_SUCCESS;
 4022a90:	0005883a 	mov	r2,zero
}
 4022a94:	e6ffff04 	addi	sp,fp,-4
 4022a98:	dfc00217 	ldw	ra,8(sp)
 4022a9c:	df000117 	ldw	fp,4(sp)
 4022aa0:	dc000017 	ldw	r16,0(sp)
 4022aa4:	dec00304 	addi	sp,sp,12
 4022aa8:	f800283a 	ret

04022aac <__fixunssfsi>:
 4022aac:	defffd04 	addi	sp,sp,-12
 4022ab0:	dc000015 	stw	r16,0(sp)
 4022ab4:	0413c034 	movhi	r16,20224
 4022ab8:	800b883a 	mov	r5,r16
 4022abc:	dc400115 	stw	r17,4(sp)
 4022ac0:	dfc00215 	stw	ra,8(sp)
 4022ac4:	2023883a 	mov	r17,r4
 4022ac8:	40231880 	call	4023188 <__gesf2>
 4022acc:	1000070e 	bge	r2,zero,4022aec <__fixunssfsi+0x40>
 4022ad0:	8809883a 	mov	r4,r17
 4022ad4:	40237280 	call	4023728 <__fixsfsi>
 4022ad8:	dfc00217 	ldw	ra,8(sp)
 4022adc:	dc400117 	ldw	r17,4(sp)
 4022ae0:	dc000017 	ldw	r16,0(sp)
 4022ae4:	dec00304 	addi	sp,sp,12
 4022ae8:	f800283a 	ret
 4022aec:	800b883a 	mov	r5,r16
 4022af0:	8809883a 	mov	r4,r17
 4022af4:	40232440 	call	4023244 <__subsf3>
 4022af8:	1009883a 	mov	r4,r2
 4022afc:	40237280 	call	4023728 <__fixsfsi>
 4022b00:	00e00034 	movhi	r3,32768
 4022b04:	10c5883a 	add	r2,r2,r3
 4022b08:	003ff306 	br	4022ad8 <_gp+0xfffe163c>

04022b0c <__divsi3>:
 4022b0c:	20001b16 	blt	r4,zero,4022b7c <__divsi3+0x70>
 4022b10:	000f883a 	mov	r7,zero
 4022b14:	28001616 	blt	r5,zero,4022b70 <__divsi3+0x64>
 4022b18:	200d883a 	mov	r6,r4
 4022b1c:	29001a2e 	bgeu	r5,r4,4022b88 <__divsi3+0x7c>
 4022b20:	00800804 	movi	r2,32
 4022b24:	00c00044 	movi	r3,1
 4022b28:	00000106 	br	4022b30 <__divsi3+0x24>
 4022b2c:	10000d26 	beq	r2,zero,4022b64 <__divsi3+0x58>
 4022b30:	294b883a 	add	r5,r5,r5
 4022b34:	10bfffc4 	addi	r2,r2,-1
 4022b38:	18c7883a 	add	r3,r3,r3
 4022b3c:	293ffb36 	bltu	r5,r4,4022b2c <_gp+0xfffe1690>
 4022b40:	0005883a 	mov	r2,zero
 4022b44:	18000726 	beq	r3,zero,4022b64 <__divsi3+0x58>
 4022b48:	0005883a 	mov	r2,zero
 4022b4c:	31400236 	bltu	r6,r5,4022b58 <__divsi3+0x4c>
 4022b50:	314dc83a 	sub	r6,r6,r5
 4022b54:	10c4b03a 	or	r2,r2,r3
 4022b58:	1806d07a 	srli	r3,r3,1
 4022b5c:	280ad07a 	srli	r5,r5,1
 4022b60:	183ffa1e 	bne	r3,zero,4022b4c <_gp+0xfffe16b0>
 4022b64:	38000126 	beq	r7,zero,4022b6c <__divsi3+0x60>
 4022b68:	0085c83a 	sub	r2,zero,r2
 4022b6c:	f800283a 	ret
 4022b70:	014bc83a 	sub	r5,zero,r5
 4022b74:	39c0005c 	xori	r7,r7,1
 4022b78:	003fe706 	br	4022b18 <_gp+0xfffe167c>
 4022b7c:	0109c83a 	sub	r4,zero,r4
 4022b80:	01c00044 	movi	r7,1
 4022b84:	003fe306 	br	4022b14 <_gp+0xfffe1678>
 4022b88:	00c00044 	movi	r3,1
 4022b8c:	003fee06 	br	4022b48 <_gp+0xfffe16ac>

04022b90 <__modsi3>:
 4022b90:	20001716 	blt	r4,zero,4022bf0 <__modsi3+0x60>
 4022b94:	000f883a 	mov	r7,zero
 4022b98:	2005883a 	mov	r2,r4
 4022b9c:	28001216 	blt	r5,zero,4022be8 <__modsi3+0x58>
 4022ba0:	2900162e 	bgeu	r5,r4,4022bfc <__modsi3+0x6c>
 4022ba4:	01800804 	movi	r6,32
 4022ba8:	00c00044 	movi	r3,1
 4022bac:	00000106 	br	4022bb4 <__modsi3+0x24>
 4022bb0:	30000a26 	beq	r6,zero,4022bdc <__modsi3+0x4c>
 4022bb4:	294b883a 	add	r5,r5,r5
 4022bb8:	31bfffc4 	addi	r6,r6,-1
 4022bbc:	18c7883a 	add	r3,r3,r3
 4022bc0:	293ffb36 	bltu	r5,r4,4022bb0 <_gp+0xfffe1714>
 4022bc4:	18000526 	beq	r3,zero,4022bdc <__modsi3+0x4c>
 4022bc8:	1806d07a 	srli	r3,r3,1
 4022bcc:	11400136 	bltu	r2,r5,4022bd4 <__modsi3+0x44>
 4022bd0:	1145c83a 	sub	r2,r2,r5
 4022bd4:	280ad07a 	srli	r5,r5,1
 4022bd8:	183ffb1e 	bne	r3,zero,4022bc8 <_gp+0xfffe172c>
 4022bdc:	38000126 	beq	r7,zero,4022be4 <__modsi3+0x54>
 4022be0:	0085c83a 	sub	r2,zero,r2
 4022be4:	f800283a 	ret
 4022be8:	014bc83a 	sub	r5,zero,r5
 4022bec:	003fec06 	br	4022ba0 <_gp+0xfffe1704>
 4022bf0:	0109c83a 	sub	r4,zero,r4
 4022bf4:	01c00044 	movi	r7,1
 4022bf8:	003fe706 	br	4022b98 <_gp+0xfffe16fc>
 4022bfc:	00c00044 	movi	r3,1
 4022c00:	003ff106 	br	4022bc8 <_gp+0xfffe172c>

04022c04 <__udivsi3>:
 4022c04:	200d883a 	mov	r6,r4
 4022c08:	2900152e 	bgeu	r5,r4,4022c60 <__udivsi3+0x5c>
 4022c0c:	28001416 	blt	r5,zero,4022c60 <__udivsi3+0x5c>
 4022c10:	00800804 	movi	r2,32
 4022c14:	00c00044 	movi	r3,1
 4022c18:	00000206 	br	4022c24 <__udivsi3+0x20>
 4022c1c:	10000e26 	beq	r2,zero,4022c58 <__udivsi3+0x54>
 4022c20:	28000516 	blt	r5,zero,4022c38 <__udivsi3+0x34>
 4022c24:	294b883a 	add	r5,r5,r5
 4022c28:	10bfffc4 	addi	r2,r2,-1
 4022c2c:	18c7883a 	add	r3,r3,r3
 4022c30:	293ffa36 	bltu	r5,r4,4022c1c <_gp+0xfffe1780>
 4022c34:	18000826 	beq	r3,zero,4022c58 <__udivsi3+0x54>
 4022c38:	0005883a 	mov	r2,zero
 4022c3c:	31400236 	bltu	r6,r5,4022c48 <__udivsi3+0x44>
 4022c40:	314dc83a 	sub	r6,r6,r5
 4022c44:	10c4b03a 	or	r2,r2,r3
 4022c48:	1806d07a 	srli	r3,r3,1
 4022c4c:	280ad07a 	srli	r5,r5,1
 4022c50:	183ffa1e 	bne	r3,zero,4022c3c <_gp+0xfffe17a0>
 4022c54:	f800283a 	ret
 4022c58:	0005883a 	mov	r2,zero
 4022c5c:	f800283a 	ret
 4022c60:	00c00044 	movi	r3,1
 4022c64:	003ff406 	br	4022c38 <_gp+0xfffe179c>

04022c68 <__umodsi3>:
 4022c68:	2005883a 	mov	r2,r4
 4022c6c:	2900122e 	bgeu	r5,r4,4022cb8 <__umodsi3+0x50>
 4022c70:	28001116 	blt	r5,zero,4022cb8 <__umodsi3+0x50>
 4022c74:	01800804 	movi	r6,32
 4022c78:	00c00044 	movi	r3,1
 4022c7c:	00000206 	br	4022c88 <__umodsi3+0x20>
 4022c80:	30000c26 	beq	r6,zero,4022cb4 <__umodsi3+0x4c>
 4022c84:	28000516 	blt	r5,zero,4022c9c <__umodsi3+0x34>
 4022c88:	294b883a 	add	r5,r5,r5
 4022c8c:	31bfffc4 	addi	r6,r6,-1
 4022c90:	18c7883a 	add	r3,r3,r3
 4022c94:	293ffa36 	bltu	r5,r4,4022c80 <_gp+0xfffe17e4>
 4022c98:	18000626 	beq	r3,zero,4022cb4 <__umodsi3+0x4c>
 4022c9c:	1806d07a 	srli	r3,r3,1
 4022ca0:	11400136 	bltu	r2,r5,4022ca8 <__umodsi3+0x40>
 4022ca4:	1145c83a 	sub	r2,r2,r5
 4022ca8:	280ad07a 	srli	r5,r5,1
 4022cac:	183ffb1e 	bne	r3,zero,4022c9c <_gp+0xfffe1800>
 4022cb0:	f800283a 	ret
 4022cb4:	f800283a 	ret
 4022cb8:	00c00044 	movi	r3,1
 4022cbc:	003ff706 	br	4022c9c <_gp+0xfffe1800>

04022cc0 <__addsf3>:
 4022cc0:	defffc04 	addi	sp,sp,-16
 4022cc4:	2004d7fa 	srli	r2,r4,31
 4022cc8:	280cd5fa 	srli	r6,r5,23
 4022ccc:	dc000015 	stw	r16,0(sp)
 4022cd0:	00c02034 	movhi	r3,128
 4022cd4:	2020d5fa 	srli	r16,r4,23
 4022cd8:	280ed7fa 	srli	r7,r5,31
 4022cdc:	18ffffc4 	addi	r3,r3,-1
 4022ce0:	dc400115 	stw	r17,4(sp)
 4022ce4:	1908703a 	and	r4,r3,r4
 4022ce8:	194a703a 	and	r5,r3,r5
 4022cec:	dfc00315 	stw	ra,12(sp)
 4022cf0:	dc800215 	stw	r18,8(sp)
 4022cf4:	14403fcc 	andi	r17,r2,255
 4022cf8:	84003fcc 	andi	r16,r16,255
 4022cfc:	200890fa 	slli	r4,r4,3
 4022d00:	31803fcc 	andi	r6,r6,255
 4022d04:	280a90fa 	slli	r5,r5,3
 4022d08:	89c05026 	beq	r17,r7,4022e4c <__addsf3+0x18c>
 4022d0c:	8185c83a 	sub	r2,r16,r6
 4022d10:	00807a0e 	bge	zero,r2,4022efc <__addsf3+0x23c>
 4022d14:	30001e1e 	bne	r6,zero,4022d90 <__addsf3+0xd0>
 4022d18:	28006d1e 	bne	r5,zero,4022ed0 <__addsf3+0x210>
 4022d1c:	208001cc 	andi	r2,r4,7
 4022d20:	10000426 	beq	r2,zero,4022d34 <__addsf3+0x74>
 4022d24:	208003cc 	andi	r2,r4,15
 4022d28:	00c00104 	movi	r3,4
 4022d2c:	10c00126 	beq	r2,r3,4022d34 <__addsf3+0x74>
 4022d30:	20c9883a 	add	r4,r4,r3
 4022d34:	2081002c 	andhi	r2,r4,1024
 4022d38:	10003926 	beq	r2,zero,4022e20 <__addsf3+0x160>
 4022d3c:	84000044 	addi	r16,r16,1
 4022d40:	00803fc4 	movi	r2,255
 4022d44:	80807826 	beq	r16,r2,4022f28 <__addsf3+0x268>
 4022d48:	200891ba 	slli	r4,r4,6
 4022d4c:	8805883a 	mov	r2,r17
 4022d50:	2008d27a 	srli	r4,r4,9
 4022d54:	84003fcc 	andi	r16,r16,255
 4022d58:	800695fa 	slli	r3,r16,23
 4022d5c:	10803fcc 	andi	r2,r2,255
 4022d60:	04002034 	movhi	r16,128
 4022d64:	843fffc4 	addi	r16,r16,-1
 4022d68:	100497fa 	slli	r2,r2,31
 4022d6c:	2408703a 	and	r4,r4,r16
 4022d70:	20e0b03a 	or	r16,r4,r3
 4022d74:	8084b03a 	or	r2,r16,r2
 4022d78:	dfc00317 	ldw	ra,12(sp)
 4022d7c:	dc800217 	ldw	r18,8(sp)
 4022d80:	dc400117 	ldw	r17,4(sp)
 4022d84:	dc000017 	ldw	r16,0(sp)
 4022d88:	dec00404 	addi	sp,sp,16
 4022d8c:	f800283a 	ret
 4022d90:	00c03fc4 	movi	r3,255
 4022d94:	80ffe126 	beq	r16,r3,4022d1c <_gp+0xfffe1880>
 4022d98:	29410034 	orhi	r5,r5,1024
 4022d9c:	00c006c4 	movi	r3,27
 4022da0:	18807516 	blt	r3,r2,4022f78 <__addsf3+0x2b8>
 4022da4:	00c00804 	movi	r3,32
 4022da8:	1887c83a 	sub	r3,r3,r2
 4022dac:	28c6983a 	sll	r3,r5,r3
 4022db0:	288ad83a 	srl	r5,r5,r2
 4022db4:	1804c03a 	cmpne	r2,r3,zero
 4022db8:	288ab03a 	or	r5,r5,r2
 4022dbc:	2149c83a 	sub	r4,r4,r5
 4022dc0:	2081002c 	andhi	r2,r4,1024
 4022dc4:	10001426 	beq	r2,zero,4022e18 <__addsf3+0x158>
 4022dc8:	04810034 	movhi	r18,1024
 4022dcc:	94bfffc4 	addi	r18,r18,-1
 4022dd0:	24a4703a 	and	r18,r4,r18
 4022dd4:	9009883a 	mov	r4,r18
 4022dd8:	40242580 	call	4024258 <__clzsi2>
 4022ddc:	10bffec4 	addi	r2,r2,-5
 4022de0:	90a4983a 	sll	r18,r18,r2
 4022de4:	14005416 	blt	r2,r16,4022f38 <__addsf3+0x278>
 4022de8:	1405c83a 	sub	r2,r2,r16
 4022dec:	11000044 	addi	r4,r2,1
 4022df0:	00800804 	movi	r2,32
 4022df4:	1105c83a 	sub	r2,r2,r4
 4022df8:	9084983a 	sll	r2,r18,r2
 4022dfc:	9124d83a 	srl	r18,r18,r4
 4022e00:	0021883a 	mov	r16,zero
 4022e04:	1008c03a 	cmpne	r4,r2,zero
 4022e08:	9108b03a 	or	r4,r18,r4
 4022e0c:	003fc306 	br	4022d1c <_gp+0xfffe1880>
 4022e10:	1000db26 	beq	r2,zero,4023180 <__addsf3+0x4c0>
 4022e14:	1009883a 	mov	r4,r2
 4022e18:	208001cc 	andi	r2,r4,7
 4022e1c:	103fc11e 	bne	r2,zero,4022d24 <_gp+0xfffe1888>
 4022e20:	2006d0fa 	srli	r3,r4,3
 4022e24:	01003fc4 	movi	r4,255
 4022e28:	8805883a 	mov	r2,r17
 4022e2c:	8100241e 	bne	r16,r4,4022ec0 <__addsf3+0x200>
 4022e30:	18006e26 	beq	r3,zero,4022fec <__addsf3+0x32c>
 4022e34:	19001034 	orhi	r4,r3,64
 4022e38:	00c02034 	movhi	r3,128
 4022e3c:	18ffffc4 	addi	r3,r3,-1
 4022e40:	043fffc4 	movi	r16,-1
 4022e44:	20c8703a 	and	r4,r4,r3
 4022e48:	003fc206 	br	4022d54 <_gp+0xfffe18b8>
 4022e4c:	8187c83a 	sub	r3,r16,r6
 4022e50:	00c03e0e 	bge	zero,r3,4022f4c <__addsf3+0x28c>
 4022e54:	30002326 	beq	r6,zero,4022ee4 <__addsf3+0x224>
 4022e58:	01803fc4 	movi	r6,255
 4022e5c:	81bfaf26 	beq	r16,r6,4022d1c <_gp+0xfffe1880>
 4022e60:	29410034 	orhi	r5,r5,1024
 4022e64:	018006c4 	movi	r6,27
 4022e68:	30c07416 	blt	r6,r3,402303c <__addsf3+0x37c>
 4022e6c:	01800804 	movi	r6,32
 4022e70:	30cdc83a 	sub	r6,r6,r3
 4022e74:	298c983a 	sll	r6,r5,r6
 4022e78:	28cad83a 	srl	r5,r5,r3
 4022e7c:	3006c03a 	cmpne	r3,r6,zero
 4022e80:	28cab03a 	or	r5,r5,r3
 4022e84:	2149883a 	add	r4,r4,r5
 4022e88:	20c1002c 	andhi	r3,r4,1024
 4022e8c:	183fe226 	beq	r3,zero,4022e18 <_gp+0xfffe197c>
 4022e90:	84000044 	addi	r16,r16,1
 4022e94:	00c03fc4 	movi	r3,255
 4022e98:	80c05426 	beq	r16,r3,4022fec <__addsf3+0x32c>
 4022e9c:	00bf0034 	movhi	r2,64512
 4022ea0:	10bfffc4 	addi	r2,r2,-1
 4022ea4:	20c0004c 	andi	r3,r4,1
 4022ea8:	2088703a 	and	r4,r4,r2
 4022eac:	2008d07a 	srli	r4,r4,1
 4022eb0:	20c8b03a 	or	r4,r4,r3
 4022eb4:	003f9906 	br	4022d1c <_gp+0xfffe1880>
 4022eb8:	0007883a 	mov	r3,zero
 4022ebc:	0005883a 	mov	r2,zero
 4022ec0:	01002034 	movhi	r4,128
 4022ec4:	213fffc4 	addi	r4,r4,-1
 4022ec8:	1908703a 	and	r4,r3,r4
 4022ecc:	003fa106 	br	4022d54 <_gp+0xfffe18b8>
 4022ed0:	10bfffc4 	addi	r2,r2,-1
 4022ed4:	103fb926 	beq	r2,zero,4022dbc <_gp+0xfffe1920>
 4022ed8:	00c03fc4 	movi	r3,255
 4022edc:	80ffaf1e 	bne	r16,r3,4022d9c <_gp+0xfffe1900>
 4022ee0:	003f8e06 	br	4022d1c <_gp+0xfffe1880>
 4022ee4:	283f8d26 	beq	r5,zero,4022d1c <_gp+0xfffe1880>
 4022ee8:	18ffffc4 	addi	r3,r3,-1
 4022eec:	183fe526 	beq	r3,zero,4022e84 <_gp+0xfffe19e8>
 4022ef0:	01803fc4 	movi	r6,255
 4022ef4:	81bfdb1e 	bne	r16,r6,4022e64 <_gp+0xfffe19c8>
 4022ef8:	003f8806 	br	4022d1c <_gp+0xfffe1880>
 4022efc:	1000201e 	bne	r2,zero,4022f80 <__addsf3+0x2c0>
 4022f00:	80800044 	addi	r2,r16,1
 4022f04:	10803fcc 	andi	r2,r2,255
 4022f08:	01800044 	movi	r6,1
 4022f0c:	3080450e 	bge	r6,r2,4023024 <__addsf3+0x364>
 4022f10:	2165c83a 	sub	r18,r4,r5
 4022f14:	90c1002c 	andhi	r3,r18,1024
 4022f18:	18002b26 	beq	r3,zero,4022fc8 <__addsf3+0x308>
 4022f1c:	2925c83a 	sub	r18,r5,r4
 4022f20:	3823883a 	mov	r17,r7
 4022f24:	003fab06 	br	4022dd4 <_gp+0xfffe1938>
 4022f28:	8805883a 	mov	r2,r17
 4022f2c:	043fffc4 	movi	r16,-1
 4022f30:	0009883a 	mov	r4,zero
 4022f34:	003f8706 	br	4022d54 <_gp+0xfffe18b8>
 4022f38:	013f0034 	movhi	r4,64512
 4022f3c:	213fffc4 	addi	r4,r4,-1
 4022f40:	80a1c83a 	sub	r16,r16,r2
 4022f44:	9108703a 	and	r4,r18,r4
 4022f48:	003f7406 	br	4022d1c <_gp+0xfffe1880>
 4022f4c:	1800411e 	bne	r3,zero,4023054 <__addsf3+0x394>
 4022f50:	80c00044 	addi	r3,r16,1
 4022f54:	19c03fcc 	andi	r7,r3,255
 4022f58:	01800044 	movi	r6,1
 4022f5c:	31c0260e 	bge	r6,r7,4022ff8 <__addsf3+0x338>
 4022f60:	01803fc4 	movi	r6,255
 4022f64:	19802126 	beq	r3,r6,4022fec <__addsf3+0x32c>
 4022f68:	2149883a 	add	r4,r4,r5
 4022f6c:	2008d07a 	srli	r4,r4,1
 4022f70:	1821883a 	mov	r16,r3
 4022f74:	003f6906 	br	4022d1c <_gp+0xfffe1880>
 4022f78:	01400044 	movi	r5,1
 4022f7c:	003f8f06 	br	4022dbc <_gp+0xfffe1920>
 4022f80:	8000151e 	bne	r16,zero,4022fd8 <__addsf3+0x318>
 4022f84:	20002f26 	beq	r4,zero,4023044 <__addsf3+0x384>
 4022f88:	0084303a 	nor	r2,zero,r2
 4022f8c:	10000a26 	beq	r2,zero,4022fb8 <__addsf3+0x2f8>
 4022f90:	00c03fc4 	movi	r3,255
 4022f94:	30c02b26 	beq	r6,r3,4023044 <__addsf3+0x384>
 4022f98:	00c006c4 	movi	r3,27
 4022f9c:	18806d16 	blt	r3,r2,4023154 <__addsf3+0x494>
 4022fa0:	00c00804 	movi	r3,32
 4022fa4:	1887c83a 	sub	r3,r3,r2
 4022fa8:	20c6983a 	sll	r3,r4,r3
 4022fac:	2084d83a 	srl	r2,r4,r2
 4022fb0:	1808c03a 	cmpne	r4,r3,zero
 4022fb4:	1108b03a 	or	r4,r2,r4
 4022fb8:	2909c83a 	sub	r4,r5,r4
 4022fbc:	3021883a 	mov	r16,r6
 4022fc0:	3823883a 	mov	r17,r7
 4022fc4:	003f7e06 	br	4022dc0 <_gp+0xfffe1924>
 4022fc8:	903f821e 	bne	r18,zero,4022dd4 <_gp+0xfffe1938>
 4022fcc:	0005883a 	mov	r2,zero
 4022fd0:	0021883a 	mov	r16,zero
 4022fd4:	003fba06 	br	4022ec0 <_gp+0xfffe1a24>
 4022fd8:	00c03fc4 	movi	r3,255
 4022fdc:	30c01926 	beq	r6,r3,4023044 <__addsf3+0x384>
 4022fe0:	0085c83a 	sub	r2,zero,r2
 4022fe4:	21010034 	orhi	r4,r4,1024
 4022fe8:	003feb06 	br	4022f98 <_gp+0xfffe1afc>
 4022fec:	043fffc4 	movi	r16,-1
 4022ff0:	0009883a 	mov	r4,zero
 4022ff4:	003f5706 	br	4022d54 <_gp+0xfffe18b8>
 4022ff8:	80004a1e 	bne	r16,zero,4023124 <__addsf3+0x464>
 4022ffc:	20005926 	beq	r4,zero,4023164 <__addsf3+0x4a4>
 4023000:	283f4626 	beq	r5,zero,4022d1c <_gp+0xfffe1880>
 4023004:	2149883a 	add	r4,r4,r5
 4023008:	2081002c 	andhi	r2,r4,1024
 402300c:	103f8226 	beq	r2,zero,4022e18 <_gp+0xfffe197c>
 4023010:	00bf0034 	movhi	r2,64512
 4023014:	10bfffc4 	addi	r2,r2,-1
 4023018:	3021883a 	mov	r16,r6
 402301c:	2088703a 	and	r4,r4,r2
 4023020:	003f3e06 	br	4022d1c <_gp+0xfffe1880>
 4023024:	8000121e 	bne	r16,zero,4023070 <__addsf3+0x3b0>
 4023028:	2000261e 	bne	r4,zero,40230c4 <__addsf3+0x404>
 402302c:	283fa226 	beq	r5,zero,4022eb8 <_gp+0xfffe1a1c>
 4023030:	2809883a 	mov	r4,r5
 4023034:	3823883a 	mov	r17,r7
 4023038:	003f3806 	br	4022d1c <_gp+0xfffe1880>
 402303c:	01400044 	movi	r5,1
 4023040:	003f9006 	br	4022e84 <_gp+0xfffe19e8>
 4023044:	2809883a 	mov	r4,r5
 4023048:	3021883a 	mov	r16,r6
 402304c:	3823883a 	mov	r17,r7
 4023050:	003f3206 	br	4022d1c <_gp+0xfffe1880>
 4023054:	80000c1e 	bne	r16,zero,4023088 <__addsf3+0x3c8>
 4023058:	20002f26 	beq	r4,zero,4023118 <__addsf3+0x458>
 402305c:	00c6303a 	nor	r3,zero,r3
 4023060:	18002b1e 	bne	r3,zero,4023110 <__addsf3+0x450>
 4023064:	2149883a 	add	r4,r4,r5
 4023068:	3021883a 	mov	r16,r6
 402306c:	003f8606 	br	4022e88 <_gp+0xfffe19ec>
 4023070:	20001b1e 	bne	r4,zero,40230e0 <__addsf3+0x420>
 4023074:	28003926 	beq	r5,zero,402315c <__addsf3+0x49c>
 4023078:	2809883a 	mov	r4,r5
 402307c:	3823883a 	mov	r17,r7
 4023080:	04003fc4 	movi	r16,255
 4023084:	003f2506 	br	4022d1c <_gp+0xfffe1880>
 4023088:	01c03fc4 	movi	r7,255
 402308c:	31c02226 	beq	r6,r7,4023118 <__addsf3+0x458>
 4023090:	00c7c83a 	sub	r3,zero,r3
 4023094:	21010034 	orhi	r4,r4,1024
 4023098:	01c006c4 	movi	r7,27
 402309c:	38c03616 	blt	r7,r3,4023178 <__addsf3+0x4b8>
 40230a0:	01c00804 	movi	r7,32
 40230a4:	38cfc83a 	sub	r7,r7,r3
 40230a8:	21ce983a 	sll	r7,r4,r7
 40230ac:	20c6d83a 	srl	r3,r4,r3
 40230b0:	3808c03a 	cmpne	r4,r7,zero
 40230b4:	1906b03a 	or	r3,r3,r4
 40230b8:	1949883a 	add	r4,r3,r5
 40230bc:	3021883a 	mov	r16,r6
 40230c0:	003f7106 	br	4022e88 <_gp+0xfffe19ec>
 40230c4:	283f1526 	beq	r5,zero,4022d1c <_gp+0xfffe1880>
 40230c8:	2145c83a 	sub	r2,r4,r5
 40230cc:	10c1002c 	andhi	r3,r2,1024
 40230d0:	183f4f26 	beq	r3,zero,4022e10 <_gp+0xfffe1974>
 40230d4:	2909c83a 	sub	r4,r5,r4
 40230d8:	3823883a 	mov	r17,r7
 40230dc:	003f0f06 	br	4022d1c <_gp+0xfffe1880>
 40230e0:	28001a26 	beq	r5,zero,402314c <__addsf3+0x48c>
 40230e4:	2008d0fa 	srli	r4,r4,3
 40230e8:	2080102c 	andhi	r2,r4,64
 40230ec:	10000526 	beq	r2,zero,4023104 <__addsf3+0x444>
 40230f0:	280ad0fa 	srli	r5,r5,3
 40230f4:	2880102c 	andhi	r2,r5,64
 40230f8:	1000021e 	bne	r2,zero,4023104 <__addsf3+0x444>
 40230fc:	2809883a 	mov	r4,r5
 4023100:	3823883a 	mov	r17,r7
 4023104:	200890fa 	slli	r4,r4,3
 4023108:	04003fc4 	movi	r16,255
 402310c:	003f0306 	br	4022d1c <_gp+0xfffe1880>
 4023110:	01c03fc4 	movi	r7,255
 4023114:	31ffe01e 	bne	r6,r7,4023098 <_gp+0xfffe1bfc>
 4023118:	2809883a 	mov	r4,r5
 402311c:	3021883a 	mov	r16,r6
 4023120:	003efe06 	br	4022d1c <_gp+0xfffe1880>
 4023124:	20001126 	beq	r4,zero,402316c <__addsf3+0x4ac>
 4023128:	28000826 	beq	r5,zero,402314c <__addsf3+0x48c>
 402312c:	2008d0fa 	srli	r4,r4,3
 4023130:	2080102c 	andhi	r2,r4,64
 4023134:	103ff326 	beq	r2,zero,4023104 <_gp+0xfffe1c68>
 4023138:	280ad0fa 	srli	r5,r5,3
 402313c:	2880102c 	andhi	r2,r5,64
 4023140:	103ff01e 	bne	r2,zero,4023104 <_gp+0xfffe1c68>
 4023144:	2809883a 	mov	r4,r5
 4023148:	003fee06 	br	4023104 <_gp+0xfffe1c68>
 402314c:	04003fc4 	movi	r16,255
 4023150:	003ef206 	br	4022d1c <_gp+0xfffe1880>
 4023154:	01000044 	movi	r4,1
 4023158:	003f9706 	br	4022fb8 <_gp+0xfffe1b1c>
 402315c:	0005883a 	mov	r2,zero
 4023160:	003f3406 	br	4022e34 <_gp+0xfffe1998>
 4023164:	2809883a 	mov	r4,r5
 4023168:	003eec06 	br	4022d1c <_gp+0xfffe1880>
 402316c:	2809883a 	mov	r4,r5
 4023170:	04003fc4 	movi	r16,255
 4023174:	003ee906 	br	4022d1c <_gp+0xfffe1880>
 4023178:	00c00044 	movi	r3,1
 402317c:	003fce06 	br	40230b8 <_gp+0xfffe1c1c>
 4023180:	0005883a 	mov	r2,zero
 4023184:	003f4e06 	br	4022ec0 <_gp+0xfffe1a24>

04023188 <__gesf2>:
 4023188:	2004d5fa 	srli	r2,r4,23
 402318c:	2806d5fa 	srli	r3,r5,23
 4023190:	01802034 	movhi	r6,128
 4023194:	31bfffc4 	addi	r6,r6,-1
 4023198:	10803fcc 	andi	r2,r2,255
 402319c:	01c03fc4 	movi	r7,255
 40231a0:	3110703a 	and	r8,r6,r4
 40231a4:	18c03fcc 	andi	r3,r3,255
 40231a8:	314c703a 	and	r6,r6,r5
 40231ac:	2008d7fa 	srli	r4,r4,31
 40231b0:	280ad7fa 	srli	r5,r5,31
 40231b4:	11c01926 	beq	r2,r7,402321c <__gesf2+0x94>
 40231b8:	01c03fc4 	movi	r7,255
 40231bc:	19c00f26 	beq	r3,r7,40231fc <__gesf2+0x74>
 40231c0:	1000061e 	bne	r2,zero,40231dc <__gesf2+0x54>
 40231c4:	400f003a 	cmpeq	r7,r8,zero
 40231c8:	1800071e 	bne	r3,zero,40231e8 <__gesf2+0x60>
 40231cc:	3000061e 	bne	r6,zero,40231e8 <__gesf2+0x60>
 40231d0:	0005883a 	mov	r2,zero
 40231d4:	40000e1e 	bne	r8,zero,4023210 <__gesf2+0x88>
 40231d8:	f800283a 	ret
 40231dc:	18000a1e 	bne	r3,zero,4023208 <__gesf2+0x80>
 40231e0:	30000b26 	beq	r6,zero,4023210 <__gesf2+0x88>
 40231e4:	000f883a 	mov	r7,zero
 40231e8:	29403fcc 	andi	r5,r5,255
 40231ec:	38000726 	beq	r7,zero,402320c <__gesf2+0x84>
 40231f0:	28000826 	beq	r5,zero,4023214 <__gesf2+0x8c>
 40231f4:	00800044 	movi	r2,1
 40231f8:	f800283a 	ret
 40231fc:	303ff026 	beq	r6,zero,40231c0 <_gp+0xfffe1d24>
 4023200:	00bfff84 	movi	r2,-2
 4023204:	f800283a 	ret
 4023208:	29403fcc 	andi	r5,r5,255
 402320c:	21400526 	beq	r4,r5,4023224 <__gesf2+0x9c>
 4023210:	203ff826 	beq	r4,zero,40231f4 <_gp+0xfffe1d58>
 4023214:	00bfffc4 	movi	r2,-1
 4023218:	f800283a 	ret
 402321c:	403fe626 	beq	r8,zero,40231b8 <_gp+0xfffe1d1c>
 4023220:	003ff706 	br	4023200 <_gp+0xfffe1d64>
 4023224:	18bffa16 	blt	r3,r2,4023210 <_gp+0xfffe1d74>
 4023228:	10c00216 	blt	r2,r3,4023234 <__gesf2+0xac>
 402322c:	323ff836 	bltu	r6,r8,4023210 <_gp+0xfffe1d74>
 4023230:	4180022e 	bgeu	r8,r6,402323c <__gesf2+0xb4>
 4023234:	203fef1e 	bne	r4,zero,40231f4 <_gp+0xfffe1d58>
 4023238:	003ff606 	br	4023214 <_gp+0xfffe1d78>
 402323c:	0005883a 	mov	r2,zero
 4023240:	f800283a 	ret

04023244 <__subsf3>:
 4023244:	defffc04 	addi	sp,sp,-16
 4023248:	280cd5fa 	srli	r6,r5,23
 402324c:	dc000015 	stw	r16,0(sp)
 4023250:	01c02034 	movhi	r7,128
 4023254:	2020d5fa 	srli	r16,r4,23
 4023258:	39ffffc4 	addi	r7,r7,-1
 402325c:	3906703a 	and	r3,r7,r4
 4023260:	dc400115 	stw	r17,4(sp)
 4023264:	394e703a 	and	r7,r7,r5
 4023268:	2022d7fa 	srli	r17,r4,31
 402326c:	dfc00315 	stw	ra,12(sp)
 4023270:	dc800215 	stw	r18,8(sp)
 4023274:	31803fcc 	andi	r6,r6,255
 4023278:	01003fc4 	movi	r4,255
 402327c:	84003fcc 	andi	r16,r16,255
 4023280:	180690fa 	slli	r3,r3,3
 4023284:	2804d7fa 	srli	r2,r5,31
 4023288:	380e90fa 	slli	r7,r7,3
 402328c:	31006d26 	beq	r6,r4,4023444 <__subsf3+0x200>
 4023290:	1080005c 	xori	r2,r2,1
 4023294:	8189c83a 	sub	r4,r16,r6
 4023298:	14404f26 	beq	r2,r17,40233d8 <__subsf3+0x194>
 402329c:	0100770e 	bge	zero,r4,402347c <__subsf3+0x238>
 40232a0:	30001e1e 	bne	r6,zero,402331c <__subsf3+0xd8>
 40232a4:	38006a1e 	bne	r7,zero,4023450 <__subsf3+0x20c>
 40232a8:	188001cc 	andi	r2,r3,7
 40232ac:	10000426 	beq	r2,zero,40232c0 <__subsf3+0x7c>
 40232b0:	188003cc 	andi	r2,r3,15
 40232b4:	01000104 	movi	r4,4
 40232b8:	11000126 	beq	r2,r4,40232c0 <__subsf3+0x7c>
 40232bc:	1907883a 	add	r3,r3,r4
 40232c0:	1881002c 	andhi	r2,r3,1024
 40232c4:	10003926 	beq	r2,zero,40233ac <__subsf3+0x168>
 40232c8:	84000044 	addi	r16,r16,1
 40232cc:	00803fc4 	movi	r2,255
 40232d0:	80807526 	beq	r16,r2,40234a8 <__subsf3+0x264>
 40232d4:	180691ba 	slli	r3,r3,6
 40232d8:	8880004c 	andi	r2,r17,1
 40232dc:	180ad27a 	srli	r5,r3,9
 40232e0:	84003fcc 	andi	r16,r16,255
 40232e4:	800695fa 	slli	r3,r16,23
 40232e8:	10803fcc 	andi	r2,r2,255
 40232ec:	01002034 	movhi	r4,128
 40232f0:	213fffc4 	addi	r4,r4,-1
 40232f4:	100497fa 	slli	r2,r2,31
 40232f8:	2920703a 	and	r16,r5,r4
 40232fc:	80e0b03a 	or	r16,r16,r3
 4023300:	8084b03a 	or	r2,r16,r2
 4023304:	dfc00317 	ldw	ra,12(sp)
 4023308:	dc800217 	ldw	r18,8(sp)
 402330c:	dc400117 	ldw	r17,4(sp)
 4023310:	dc000017 	ldw	r16,0(sp)
 4023314:	dec00404 	addi	sp,sp,16
 4023318:	f800283a 	ret
 402331c:	00803fc4 	movi	r2,255
 4023320:	80bfe126 	beq	r16,r2,40232a8 <_gp+0xfffe1e0c>
 4023324:	39c10034 	orhi	r7,r7,1024
 4023328:	008006c4 	movi	r2,27
 402332c:	11007416 	blt	r2,r4,4023500 <__subsf3+0x2bc>
 4023330:	00800804 	movi	r2,32
 4023334:	1105c83a 	sub	r2,r2,r4
 4023338:	3884983a 	sll	r2,r7,r2
 402333c:	390ed83a 	srl	r7,r7,r4
 4023340:	1008c03a 	cmpne	r4,r2,zero
 4023344:	390eb03a 	or	r7,r7,r4
 4023348:	19c7c83a 	sub	r3,r3,r7
 402334c:	1881002c 	andhi	r2,r3,1024
 4023350:	10001426 	beq	r2,zero,40233a4 <__subsf3+0x160>
 4023354:	04810034 	movhi	r18,1024
 4023358:	94bfffc4 	addi	r18,r18,-1
 402335c:	1ca4703a 	and	r18,r3,r18
 4023360:	9009883a 	mov	r4,r18
 4023364:	40242580 	call	4024258 <__clzsi2>
 4023368:	10bffec4 	addi	r2,r2,-5
 402336c:	90a4983a 	sll	r18,r18,r2
 4023370:	14005116 	blt	r2,r16,40234b8 <__subsf3+0x274>
 4023374:	1405c83a 	sub	r2,r2,r16
 4023378:	10c00044 	addi	r3,r2,1
 402337c:	00800804 	movi	r2,32
 4023380:	10c5c83a 	sub	r2,r2,r3
 4023384:	9084983a 	sll	r2,r18,r2
 4023388:	90e4d83a 	srl	r18,r18,r3
 402338c:	0021883a 	mov	r16,zero
 4023390:	1006c03a 	cmpne	r3,r2,zero
 4023394:	90c6b03a 	or	r3,r18,r3
 4023398:	003fc306 	br	40232a8 <_gp+0xfffe1e0c>
 402339c:	2000e026 	beq	r4,zero,4023720 <__subsf3+0x4dc>
 40233a0:	2007883a 	mov	r3,r4
 40233a4:	188001cc 	andi	r2,r3,7
 40233a8:	103fc11e 	bne	r2,zero,40232b0 <_gp+0xfffe1e14>
 40233ac:	180ad0fa 	srli	r5,r3,3
 40233b0:	00c03fc4 	movi	r3,255
 40233b4:	8880004c 	andi	r2,r17,1
 40233b8:	80c0031e 	bne	r16,r3,40233c8 <__subsf3+0x184>
 40233bc:	28006d26 	beq	r5,zero,4023574 <__subsf3+0x330>
 40233c0:	29401034 	orhi	r5,r5,64
 40233c4:	043fffc4 	movi	r16,-1
 40233c8:	00c02034 	movhi	r3,128
 40233cc:	18ffffc4 	addi	r3,r3,-1
 40233d0:	28ca703a 	and	r5,r5,r3
 40233d4:	003fc206 	br	40232e0 <_gp+0xfffe1e44>
 40233d8:	01003c0e 	bge	zero,r4,40234cc <__subsf3+0x288>
 40233dc:	30002126 	beq	r6,zero,4023464 <__subsf3+0x220>
 40233e0:	01403fc4 	movi	r5,255
 40233e4:	817fb026 	beq	r16,r5,40232a8 <_gp+0xfffe1e0c>
 40233e8:	39c10034 	orhi	r7,r7,1024
 40233ec:	014006c4 	movi	r5,27
 40233f0:	29007416 	blt	r5,r4,40235c4 <__subsf3+0x380>
 40233f4:	01400804 	movi	r5,32
 40233f8:	290bc83a 	sub	r5,r5,r4
 40233fc:	394a983a 	sll	r5,r7,r5
 4023400:	390ed83a 	srl	r7,r7,r4
 4023404:	2808c03a 	cmpne	r4,r5,zero
 4023408:	390eb03a 	or	r7,r7,r4
 402340c:	19c7883a 	add	r3,r3,r7
 4023410:	1901002c 	andhi	r4,r3,1024
 4023414:	20003826 	beq	r4,zero,40234f8 <__subsf3+0x2b4>
 4023418:	84000044 	addi	r16,r16,1
 402341c:	01003fc4 	movi	r4,255
 4023420:	81005426 	beq	r16,r4,4023574 <__subsf3+0x330>
 4023424:	1023883a 	mov	r17,r2
 4023428:	00bf0034 	movhi	r2,64512
 402342c:	10bfffc4 	addi	r2,r2,-1
 4023430:	1900004c 	andi	r4,r3,1
 4023434:	1886703a 	and	r3,r3,r2
 4023438:	1806d07a 	srli	r3,r3,1
 402343c:	1906b03a 	or	r3,r3,r4
 4023440:	003f9906 	br	40232a8 <_gp+0xfffe1e0c>
 4023444:	383f9226 	beq	r7,zero,4023290 <_gp+0xfffe1df4>
 4023448:	10803fcc 	andi	r2,r2,255
 402344c:	003f9106 	br	4023294 <_gp+0xfffe1df8>
 4023450:	213fffc4 	addi	r4,r4,-1
 4023454:	203fbc26 	beq	r4,zero,4023348 <_gp+0xfffe1eac>
 4023458:	00803fc4 	movi	r2,255
 402345c:	80bfb21e 	bne	r16,r2,4023328 <_gp+0xfffe1e8c>
 4023460:	003f9106 	br	40232a8 <_gp+0xfffe1e0c>
 4023464:	383f9026 	beq	r7,zero,40232a8 <_gp+0xfffe1e0c>
 4023468:	213fffc4 	addi	r4,r4,-1
 402346c:	203fe726 	beq	r4,zero,402340c <_gp+0xfffe1f70>
 4023470:	01403fc4 	movi	r5,255
 4023474:	817fdd1e 	bne	r16,r5,40233ec <_gp+0xfffe1f50>
 4023478:	003f8b06 	br	40232a8 <_gp+0xfffe1e0c>
 402347c:	2000221e 	bne	r4,zero,4023508 <__subsf3+0x2c4>
 4023480:	81000044 	addi	r4,r16,1
 4023484:	21003fcc 	andi	r4,r4,255
 4023488:	01400044 	movi	r5,1
 402348c:	2900470e 	bge	r5,r4,40235ac <__subsf3+0x368>
 4023490:	19e5c83a 	sub	r18,r3,r7
 4023494:	9141002c 	andhi	r5,r18,1024
 4023498:	28002d26 	beq	r5,zero,4023550 <__subsf3+0x30c>
 402349c:	38e5c83a 	sub	r18,r7,r3
 40234a0:	1023883a 	mov	r17,r2
 40234a4:	003fae06 	br	4023360 <_gp+0xfffe1ec4>
 40234a8:	8880004c 	andi	r2,r17,1
 40234ac:	043fffc4 	movi	r16,-1
 40234b0:	000b883a 	mov	r5,zero
 40234b4:	003f8a06 	br	40232e0 <_gp+0xfffe1e44>
 40234b8:	00ff0034 	movhi	r3,64512
 40234bc:	18ffffc4 	addi	r3,r3,-1
 40234c0:	80a1c83a 	sub	r16,r16,r2
 40234c4:	90c6703a 	and	r3,r18,r3
 40234c8:	003f7706 	br	40232a8 <_gp+0xfffe1e0c>
 40234cc:	2000431e 	bne	r4,zero,40235dc <__subsf3+0x398>
 40234d0:	81000044 	addi	r4,r16,1
 40234d4:	21803fcc 	andi	r6,r4,255
 40234d8:	01400044 	movi	r5,1
 40234dc:	2980280e 	bge	r5,r6,4023580 <__subsf3+0x33c>
 40234e0:	01403fc4 	movi	r5,255
 40234e4:	21402326 	beq	r4,r5,4023574 <__subsf3+0x330>
 40234e8:	19c7883a 	add	r3,r3,r7
 40234ec:	1806d07a 	srli	r3,r3,1
 40234f0:	2021883a 	mov	r16,r4
 40234f4:	003f6c06 	br	40232a8 <_gp+0xfffe1e0c>
 40234f8:	1023883a 	mov	r17,r2
 40234fc:	003fa906 	br	40233a4 <_gp+0xfffe1f08>
 4023500:	01c00044 	movi	r7,1
 4023504:	003f9006 	br	4023348 <_gp+0xfffe1eac>
 4023508:	8000151e 	bne	r16,zero,4023560 <__subsf3+0x31c>
 402350c:	18002f26 	beq	r3,zero,40235cc <__subsf3+0x388>
 4023510:	0108303a 	nor	r4,zero,r4
 4023514:	20000a26 	beq	r4,zero,4023540 <__subsf3+0x2fc>
 4023518:	01403fc4 	movi	r5,255
 402351c:	31402b26 	beq	r6,r5,40235cc <__subsf3+0x388>
 4023520:	014006c4 	movi	r5,27
 4023524:	29006e16 	blt	r5,r4,40236e0 <__subsf3+0x49c>
 4023528:	01400804 	movi	r5,32
 402352c:	290bc83a 	sub	r5,r5,r4
 4023530:	194a983a 	sll	r5,r3,r5
 4023534:	1908d83a 	srl	r4,r3,r4
 4023538:	2806c03a 	cmpne	r3,r5,zero
 402353c:	20c6b03a 	or	r3,r4,r3
 4023540:	38c7c83a 	sub	r3,r7,r3
 4023544:	3021883a 	mov	r16,r6
 4023548:	1023883a 	mov	r17,r2
 402354c:	003f7f06 	br	402334c <_gp+0xfffe1eb0>
 4023550:	903f831e 	bne	r18,zero,4023360 <_gp+0xfffe1ec4>
 4023554:	0005883a 	mov	r2,zero
 4023558:	0021883a 	mov	r16,zero
 402355c:	003f9a06 	br	40233c8 <_gp+0xfffe1f2c>
 4023560:	01403fc4 	movi	r5,255
 4023564:	31401926 	beq	r6,r5,40235cc <__subsf3+0x388>
 4023568:	0109c83a 	sub	r4,zero,r4
 402356c:	18c10034 	orhi	r3,r3,1024
 4023570:	003feb06 	br	4023520 <_gp+0xfffe2084>
 4023574:	043fffc4 	movi	r16,-1
 4023578:	000b883a 	mov	r5,zero
 402357c:	003f5806 	br	40232e0 <_gp+0xfffe1e44>
 4023580:	8000481e 	bne	r16,zero,40236a4 <__subsf3+0x460>
 4023584:	18006226 	beq	r3,zero,4023710 <__subsf3+0x4cc>
 4023588:	383f4726 	beq	r7,zero,40232a8 <_gp+0xfffe1e0c>
 402358c:	19c7883a 	add	r3,r3,r7
 4023590:	1881002c 	andhi	r2,r3,1024
 4023594:	103f8326 	beq	r2,zero,40233a4 <_gp+0xfffe1f08>
 4023598:	00bf0034 	movhi	r2,64512
 402359c:	10bfffc4 	addi	r2,r2,-1
 40235a0:	2821883a 	mov	r16,r5
 40235a4:	1886703a 	and	r3,r3,r2
 40235a8:	003f3f06 	br	40232a8 <_gp+0xfffe1e0c>
 40235ac:	80001c1e 	bne	r16,zero,4023620 <__subsf3+0x3dc>
 40235b0:	1800261e 	bne	r3,zero,402364c <__subsf3+0x408>
 40235b4:	38004c26 	beq	r7,zero,40236e8 <__subsf3+0x4a4>
 40235b8:	3807883a 	mov	r3,r7
 40235bc:	1023883a 	mov	r17,r2
 40235c0:	003f3906 	br	40232a8 <_gp+0xfffe1e0c>
 40235c4:	01c00044 	movi	r7,1
 40235c8:	003f9006 	br	402340c <_gp+0xfffe1f70>
 40235cc:	3807883a 	mov	r3,r7
 40235d0:	3021883a 	mov	r16,r6
 40235d4:	1023883a 	mov	r17,r2
 40235d8:	003f3306 	br	40232a8 <_gp+0xfffe1e0c>
 40235dc:	8000161e 	bne	r16,zero,4023638 <__subsf3+0x3f4>
 40235e0:	18002d26 	beq	r3,zero,4023698 <__subsf3+0x454>
 40235e4:	0108303a 	nor	r4,zero,r4
 40235e8:	20000a26 	beq	r4,zero,4023614 <__subsf3+0x3d0>
 40235ec:	01403fc4 	movi	r5,255
 40235f0:	31402926 	beq	r6,r5,4023698 <__subsf3+0x454>
 40235f4:	014006c4 	movi	r5,27
 40235f8:	29004716 	blt	r5,r4,4023718 <__subsf3+0x4d4>
 40235fc:	01400804 	movi	r5,32
 4023600:	290bc83a 	sub	r5,r5,r4
 4023604:	194a983a 	sll	r5,r3,r5
 4023608:	1908d83a 	srl	r4,r3,r4
 402360c:	2806c03a 	cmpne	r3,r5,zero
 4023610:	20c6b03a 	or	r3,r4,r3
 4023614:	19c7883a 	add	r3,r3,r7
 4023618:	3021883a 	mov	r16,r6
 402361c:	003f7c06 	br	4023410 <_gp+0xfffe1f74>
 4023620:	1800111e 	bne	r3,zero,4023668 <__subsf3+0x424>
 4023624:	38003326 	beq	r7,zero,40236f4 <__subsf3+0x4b0>
 4023628:	3807883a 	mov	r3,r7
 402362c:	1023883a 	mov	r17,r2
 4023630:	04003fc4 	movi	r16,255
 4023634:	003f1c06 	br	40232a8 <_gp+0xfffe1e0c>
 4023638:	01403fc4 	movi	r5,255
 402363c:	31401626 	beq	r6,r5,4023698 <__subsf3+0x454>
 4023640:	0109c83a 	sub	r4,zero,r4
 4023644:	18c10034 	orhi	r3,r3,1024
 4023648:	003fea06 	br	40235f4 <_gp+0xfffe2158>
 402364c:	383f1626 	beq	r7,zero,40232a8 <_gp+0xfffe1e0c>
 4023650:	19c9c83a 	sub	r4,r3,r7
 4023654:	2141002c 	andhi	r5,r4,1024
 4023658:	283f5026 	beq	r5,zero,402339c <_gp+0xfffe1f00>
 402365c:	38c7c83a 	sub	r3,r7,r3
 4023660:	1023883a 	mov	r17,r2
 4023664:	003f1006 	br	40232a8 <_gp+0xfffe1e0c>
 4023668:	38001b26 	beq	r7,zero,40236d8 <__subsf3+0x494>
 402366c:	1806d0fa 	srli	r3,r3,3
 4023670:	1900102c 	andhi	r4,r3,64
 4023674:	20000526 	beq	r4,zero,402368c <__subsf3+0x448>
 4023678:	380ed0fa 	srli	r7,r7,3
 402367c:	3900102c 	andhi	r4,r7,64
 4023680:	2000021e 	bne	r4,zero,402368c <__subsf3+0x448>
 4023684:	3807883a 	mov	r3,r7
 4023688:	1023883a 	mov	r17,r2
 402368c:	180690fa 	slli	r3,r3,3
 4023690:	04003fc4 	movi	r16,255
 4023694:	003f0406 	br	40232a8 <_gp+0xfffe1e0c>
 4023698:	3807883a 	mov	r3,r7
 402369c:	3021883a 	mov	r16,r6
 40236a0:	003f0106 	br	40232a8 <_gp+0xfffe1e0c>
 40236a4:	18001726 	beq	r3,zero,4023704 <__subsf3+0x4c0>
 40236a8:	38000b26 	beq	r7,zero,40236d8 <__subsf3+0x494>
 40236ac:	1806d0fa 	srli	r3,r3,3
 40236b0:	1900102c 	andhi	r4,r3,64
 40236b4:	20000426 	beq	r4,zero,40236c8 <__subsf3+0x484>
 40236b8:	380ed0fa 	srli	r7,r7,3
 40236bc:	3900102c 	andhi	r4,r7,64
 40236c0:	2000011e 	bne	r4,zero,40236c8 <__subsf3+0x484>
 40236c4:	3807883a 	mov	r3,r7
 40236c8:	180690fa 	slli	r3,r3,3
 40236cc:	1023883a 	mov	r17,r2
 40236d0:	04003fc4 	movi	r16,255
 40236d4:	003ef406 	br	40232a8 <_gp+0xfffe1e0c>
 40236d8:	04003fc4 	movi	r16,255
 40236dc:	003ef206 	br	40232a8 <_gp+0xfffe1e0c>
 40236e0:	00c00044 	movi	r3,1
 40236e4:	003f9606 	br	4023540 <_gp+0xfffe20a4>
 40236e8:	000b883a 	mov	r5,zero
 40236ec:	0005883a 	mov	r2,zero
 40236f0:	003f3506 	br	40233c8 <_gp+0xfffe1f2c>
 40236f4:	01402034 	movhi	r5,128
 40236f8:	297fffc4 	addi	r5,r5,-1
 40236fc:	0005883a 	mov	r2,zero
 4023700:	003f2f06 	br	40233c0 <_gp+0xfffe1f24>
 4023704:	3807883a 	mov	r3,r7
 4023708:	04003fc4 	movi	r16,255
 402370c:	003ee606 	br	40232a8 <_gp+0xfffe1e0c>
 4023710:	3807883a 	mov	r3,r7
 4023714:	003ee406 	br	40232a8 <_gp+0xfffe1e0c>
 4023718:	00c00044 	movi	r3,1
 402371c:	003fbd06 	br	4023614 <_gp+0xfffe2178>
 4023720:	0005883a 	mov	r2,zero
 4023724:	003f2806 	br	40233c8 <_gp+0xfffe1f2c>

04023728 <__fixsfsi>:
 4023728:	200ad5fa 	srli	r5,r4,23
 402372c:	00c02034 	movhi	r3,128
 4023730:	18ffffc4 	addi	r3,r3,-1
 4023734:	29403fcc 	andi	r5,r5,255
 4023738:	00801f84 	movi	r2,126
 402373c:	1906703a 	and	r3,r3,r4
 4023740:	2008d7fa 	srli	r4,r4,31
 4023744:	11400e0e 	bge	r2,r5,4023780 <__fixsfsi+0x58>
 4023748:	00802744 	movi	r2,157
 402374c:	11400816 	blt	r2,r5,4023770 <__fixsfsi+0x48>
 4023750:	00802544 	movi	r2,149
 4023754:	18c02034 	orhi	r3,r3,128
 4023758:	11400b0e 	bge	r2,r5,4023788 <__fixsfsi+0x60>
 402375c:	28bfda84 	addi	r2,r5,-150
 4023760:	1884983a 	sll	r2,r3,r2
 4023764:	20000726 	beq	r4,zero,4023784 <__fixsfsi+0x5c>
 4023768:	0085c83a 	sub	r2,zero,r2
 402376c:	f800283a 	ret
 4023770:	00a00034 	movhi	r2,32768
 4023774:	10bfffc4 	addi	r2,r2,-1
 4023778:	2085883a 	add	r2,r4,r2
 402377c:	f800283a 	ret
 4023780:	0005883a 	mov	r2,zero
 4023784:	f800283a 	ret
 4023788:	00802584 	movi	r2,150
 402378c:	1145c83a 	sub	r2,r2,r5
 4023790:	1884d83a 	srl	r2,r3,r2
 4023794:	003ff306 	br	4023764 <_gp+0xfffe22c8>

04023798 <__floatsisf>:
 4023798:	defffd04 	addi	sp,sp,-12
 402379c:	dfc00215 	stw	ra,8(sp)
 40237a0:	dc400115 	stw	r17,4(sp)
 40237a4:	dc000015 	stw	r16,0(sp)
 40237a8:	20003526 	beq	r4,zero,4023880 <__floatsisf+0xe8>
 40237ac:	2021883a 	mov	r16,r4
 40237b0:	2022d7fa 	srli	r17,r4,31
 40237b4:	20003616 	blt	r4,zero,4023890 <__floatsisf+0xf8>
 40237b8:	8009883a 	mov	r4,r16
 40237bc:	40242580 	call	4024258 <__clzsi2>
 40237c0:	00c02784 	movi	r3,158
 40237c4:	1887c83a 	sub	r3,r3,r2
 40237c8:	01002584 	movi	r4,150
 40237cc:	20c01416 	blt	r4,r3,4023820 <__floatsisf+0x88>
 40237d0:	20c9c83a 	sub	r4,r4,r3
 40237d4:	8120983a 	sll	r16,r16,r4
 40237d8:	00802034 	movhi	r2,128
 40237dc:	10bfffc4 	addi	r2,r2,-1
 40237e0:	8809883a 	mov	r4,r17
 40237e4:	80a0703a 	and	r16,r16,r2
 40237e8:	18803fcc 	andi	r2,r3,255
 40237ec:	100695fa 	slli	r3,r2,23
 40237f0:	20803fcc 	andi	r2,r4,255
 40237f4:	100897fa 	slli	r4,r2,31
 40237f8:	00802034 	movhi	r2,128
 40237fc:	10bfffc4 	addi	r2,r2,-1
 4023800:	8084703a 	and	r2,r16,r2
 4023804:	10c4b03a 	or	r2,r2,r3
 4023808:	1104b03a 	or	r2,r2,r4
 402380c:	dfc00217 	ldw	ra,8(sp)
 4023810:	dc400117 	ldw	r17,4(sp)
 4023814:	dc000017 	ldw	r16,0(sp)
 4023818:	dec00304 	addi	sp,sp,12
 402381c:	f800283a 	ret
 4023820:	01002644 	movi	r4,153
 4023824:	20c01c16 	blt	r4,r3,4023898 <__floatsisf+0x100>
 4023828:	20c9c83a 	sub	r4,r4,r3
 402382c:	8120983a 	sll	r16,r16,r4
 4023830:	013f0034 	movhi	r4,64512
 4023834:	213fffc4 	addi	r4,r4,-1
 4023838:	814001cc 	andi	r5,r16,7
 402383c:	8108703a 	and	r4,r16,r4
 4023840:	28000426 	beq	r5,zero,4023854 <__floatsisf+0xbc>
 4023844:	840003cc 	andi	r16,r16,15
 4023848:	01400104 	movi	r5,4
 402384c:	81400126 	beq	r16,r5,4023854 <__floatsisf+0xbc>
 4023850:	2149883a 	add	r4,r4,r5
 4023854:	2141002c 	andhi	r5,r4,1024
 4023858:	28000526 	beq	r5,zero,4023870 <__floatsisf+0xd8>
 402385c:	00c027c4 	movi	r3,159
 4023860:	1887c83a 	sub	r3,r3,r2
 4023864:	00bf0034 	movhi	r2,64512
 4023868:	10bfffc4 	addi	r2,r2,-1
 402386c:	2088703a 	and	r4,r4,r2
 4023870:	202091ba 	slli	r16,r4,6
 4023874:	8809883a 	mov	r4,r17
 4023878:	8020d27a 	srli	r16,r16,9
 402387c:	003fda06 	br	40237e8 <_gp+0xfffe234c>
 4023880:	0009883a 	mov	r4,zero
 4023884:	0007883a 	mov	r3,zero
 4023888:	0021883a 	mov	r16,zero
 402388c:	003fd606 	br	40237e8 <_gp+0xfffe234c>
 4023890:	0121c83a 	sub	r16,zero,r4
 4023894:	003fc806 	br	40237b8 <_gp+0xfffe231c>
 4023898:	01002e44 	movi	r4,185
 402389c:	20c9c83a 	sub	r4,r4,r3
 40238a0:	01400144 	movi	r5,5
 40238a4:	8108983a 	sll	r4,r16,r4
 40238a8:	288bc83a 	sub	r5,r5,r2
 40238ac:	8160d83a 	srl	r16,r16,r5
 40238b0:	2008c03a 	cmpne	r4,r4,zero
 40238b4:	8120b03a 	or	r16,r16,r4
 40238b8:	003fdd06 	br	4023830 <_gp+0xfffe2394>

040238bc <__muldf3>:
 40238bc:	defff304 	addi	sp,sp,-52
 40238c0:	2804d53a 	srli	r2,r5,20
 40238c4:	dd800915 	stw	r22,36(sp)
 40238c8:	282cd7fa 	srli	r22,r5,31
 40238cc:	dc000315 	stw	r16,12(sp)
 40238d0:	04000434 	movhi	r16,16
 40238d4:	dd400815 	stw	r21,32(sp)
 40238d8:	dc800515 	stw	r18,20(sp)
 40238dc:	843fffc4 	addi	r16,r16,-1
 40238e0:	dfc00c15 	stw	ra,48(sp)
 40238e4:	df000b15 	stw	fp,44(sp)
 40238e8:	ddc00a15 	stw	r23,40(sp)
 40238ec:	dd000715 	stw	r20,28(sp)
 40238f0:	dcc00615 	stw	r19,24(sp)
 40238f4:	dc400415 	stw	r17,16(sp)
 40238f8:	1481ffcc 	andi	r18,r2,2047
 40238fc:	2c20703a 	and	r16,r5,r16
 4023900:	b02b883a 	mov	r21,r22
 4023904:	b2403fcc 	andi	r9,r22,255
 4023908:	90006026 	beq	r18,zero,4023a8c <__muldf3+0x1d0>
 402390c:	0081ffc4 	movi	r2,2047
 4023910:	2029883a 	mov	r20,r4
 4023914:	90803626 	beq	r18,r2,40239f0 <__muldf3+0x134>
 4023918:	80800434 	orhi	r2,r16,16
 402391c:	100490fa 	slli	r2,r2,3
 4023920:	2020d77a 	srli	r16,r4,29
 4023924:	202890fa 	slli	r20,r4,3
 4023928:	94bf0044 	addi	r18,r18,-1023
 402392c:	80a0b03a 	or	r16,r16,r2
 4023930:	0027883a 	mov	r19,zero
 4023934:	0039883a 	mov	fp,zero
 4023938:	3804d53a 	srli	r2,r7,20
 402393c:	382ed7fa 	srli	r23,r7,31
 4023940:	04400434 	movhi	r17,16
 4023944:	8c7fffc4 	addi	r17,r17,-1
 4023948:	1081ffcc 	andi	r2,r2,2047
 402394c:	3011883a 	mov	r8,r6
 4023950:	3c62703a 	and	r17,r7,r17
 4023954:	ba803fcc 	andi	r10,r23,255
 4023958:	10006d26 	beq	r2,zero,4023b10 <__muldf3+0x254>
 402395c:	00c1ffc4 	movi	r3,2047
 4023960:	10c06526 	beq	r2,r3,4023af8 <__muldf3+0x23c>
 4023964:	88c00434 	orhi	r3,r17,16
 4023968:	180690fa 	slli	r3,r3,3
 402396c:	3022d77a 	srli	r17,r6,29
 4023970:	301090fa 	slli	r8,r6,3
 4023974:	10bf0044 	addi	r2,r2,-1023
 4023978:	88e2b03a 	or	r17,r17,r3
 402397c:	000b883a 	mov	r5,zero
 4023980:	9085883a 	add	r2,r18,r2
 4023984:	2cc8b03a 	or	r4,r5,r19
 4023988:	00c003c4 	movi	r3,15
 402398c:	bdacf03a 	xor	r22,r23,r22
 4023990:	12c00044 	addi	r11,r2,1
 4023994:	19009936 	bltu	r3,r4,4023bfc <__muldf3+0x340>
 4023998:	200890ba 	slli	r4,r4,2
 402399c:	00c100b4 	movhi	r3,1026
 40239a0:	18ce6c04 	addi	r3,r3,14768
 40239a4:	20c9883a 	add	r4,r4,r3
 40239a8:	20c00017 	ldw	r3,0(r4)
 40239ac:	1800683a 	jmp	r3
 40239b0:	04023bfc 	xorhi	r16,zero,2287
 40239b4:	04023a10 	cmplti	r16,zero,2280
 40239b8:	04023a10 	cmplti	r16,zero,2280
 40239bc:	04023a0c 	andi	r16,zero,2280
 40239c0:	04023bd8 	cmpnei	r16,zero,2287
 40239c4:	04023bd8 	cmpnei	r16,zero,2287
 40239c8:	04023bc0 	call	4023bc <__alt_mem_SDRAM_Controller+0x4023bc>
 40239cc:	04023a0c 	andi	r16,zero,2280
 40239d0:	04023bd8 	cmpnei	r16,zero,2287
 40239d4:	04023bc0 	call	4023bc <__alt_mem_SDRAM_Controller+0x4023bc>
 40239d8:	04023bd8 	cmpnei	r16,zero,2287
 40239dc:	04023a0c 	andi	r16,zero,2280
 40239e0:	04023be8 	cmpgeui	r16,zero,2287
 40239e4:	04023be8 	cmpgeui	r16,zero,2287
 40239e8:	04023be8 	cmpgeui	r16,zero,2287
 40239ec:	04023e04 	movi	r16,2296
 40239f0:	2404b03a 	or	r2,r4,r16
 40239f4:	10006f1e 	bne	r2,zero,4023bb4 <__muldf3+0x2f8>
 40239f8:	04c00204 	movi	r19,8
 40239fc:	0021883a 	mov	r16,zero
 4023a00:	0029883a 	mov	r20,zero
 4023a04:	07000084 	movi	fp,2
 4023a08:	003fcb06 	br	4023938 <_gp+0xfffe249c>
 4023a0c:	502d883a 	mov	r22,r10
 4023a10:	00800084 	movi	r2,2
 4023a14:	28805726 	beq	r5,r2,4023b74 <__muldf3+0x2b8>
 4023a18:	008000c4 	movi	r2,3
 4023a1c:	28816626 	beq	r5,r2,4023fb8 <__muldf3+0x6fc>
 4023a20:	00800044 	movi	r2,1
 4023a24:	2881411e 	bne	r5,r2,4023f2c <__muldf3+0x670>
 4023a28:	b02b883a 	mov	r21,r22
 4023a2c:	0005883a 	mov	r2,zero
 4023a30:	000b883a 	mov	r5,zero
 4023a34:	0029883a 	mov	r20,zero
 4023a38:	1004953a 	slli	r2,r2,20
 4023a3c:	a8c03fcc 	andi	r3,r21,255
 4023a40:	04400434 	movhi	r17,16
 4023a44:	8c7fffc4 	addi	r17,r17,-1
 4023a48:	180697fa 	slli	r3,r3,31
 4023a4c:	2c4a703a 	and	r5,r5,r17
 4023a50:	288ab03a 	or	r5,r5,r2
 4023a54:	28c6b03a 	or	r3,r5,r3
 4023a58:	a005883a 	mov	r2,r20
 4023a5c:	dfc00c17 	ldw	ra,48(sp)
 4023a60:	df000b17 	ldw	fp,44(sp)
 4023a64:	ddc00a17 	ldw	r23,40(sp)
 4023a68:	dd800917 	ldw	r22,36(sp)
 4023a6c:	dd400817 	ldw	r21,32(sp)
 4023a70:	dd000717 	ldw	r20,28(sp)
 4023a74:	dcc00617 	ldw	r19,24(sp)
 4023a78:	dc800517 	ldw	r18,20(sp)
 4023a7c:	dc400417 	ldw	r17,16(sp)
 4023a80:	dc000317 	ldw	r16,12(sp)
 4023a84:	dec00d04 	addi	sp,sp,52
 4023a88:	f800283a 	ret
 4023a8c:	2404b03a 	or	r2,r4,r16
 4023a90:	2027883a 	mov	r19,r4
 4023a94:	10004226 	beq	r2,zero,4023ba0 <__muldf3+0x2e4>
 4023a98:	8000fc26 	beq	r16,zero,4023e8c <__muldf3+0x5d0>
 4023a9c:	8009883a 	mov	r4,r16
 4023aa0:	d9800215 	stw	r6,8(sp)
 4023aa4:	d9c00015 	stw	r7,0(sp)
 4023aa8:	da400115 	stw	r9,4(sp)
 4023aac:	40242580 	call	4024258 <__clzsi2>
 4023ab0:	d9800217 	ldw	r6,8(sp)
 4023ab4:	d9c00017 	ldw	r7,0(sp)
 4023ab8:	da400117 	ldw	r9,4(sp)
 4023abc:	113ffd44 	addi	r4,r2,-11
 4023ac0:	00c00704 	movi	r3,28
 4023ac4:	1900ed16 	blt	r3,r4,4023e7c <__muldf3+0x5c0>
 4023ac8:	00c00744 	movi	r3,29
 4023acc:	147ffe04 	addi	r17,r2,-8
 4023ad0:	1907c83a 	sub	r3,r3,r4
 4023ad4:	8460983a 	sll	r16,r16,r17
 4023ad8:	98c6d83a 	srl	r3,r19,r3
 4023adc:	9c68983a 	sll	r20,r19,r17
 4023ae0:	1c20b03a 	or	r16,r3,r16
 4023ae4:	1080fcc4 	addi	r2,r2,1011
 4023ae8:	00a5c83a 	sub	r18,zero,r2
 4023aec:	0027883a 	mov	r19,zero
 4023af0:	0039883a 	mov	fp,zero
 4023af4:	003f9006 	br	4023938 <_gp+0xfffe249c>
 4023af8:	3446b03a 	or	r3,r6,r17
 4023afc:	1800261e 	bne	r3,zero,4023b98 <__muldf3+0x2dc>
 4023b00:	0023883a 	mov	r17,zero
 4023b04:	0011883a 	mov	r8,zero
 4023b08:	01400084 	movi	r5,2
 4023b0c:	003f9c06 	br	4023980 <_gp+0xfffe24e4>
 4023b10:	3446b03a 	or	r3,r6,r17
 4023b14:	18001c26 	beq	r3,zero,4023b88 <__muldf3+0x2cc>
 4023b18:	8800ce26 	beq	r17,zero,4023e54 <__muldf3+0x598>
 4023b1c:	8809883a 	mov	r4,r17
 4023b20:	d9800215 	stw	r6,8(sp)
 4023b24:	da400115 	stw	r9,4(sp)
 4023b28:	da800015 	stw	r10,0(sp)
 4023b2c:	40242580 	call	4024258 <__clzsi2>
 4023b30:	d9800217 	ldw	r6,8(sp)
 4023b34:	da400117 	ldw	r9,4(sp)
 4023b38:	da800017 	ldw	r10,0(sp)
 4023b3c:	113ffd44 	addi	r4,r2,-11
 4023b40:	00c00704 	movi	r3,28
 4023b44:	1900bf16 	blt	r3,r4,4023e44 <__muldf3+0x588>
 4023b48:	00c00744 	movi	r3,29
 4023b4c:	123ffe04 	addi	r8,r2,-8
 4023b50:	1907c83a 	sub	r3,r3,r4
 4023b54:	8a22983a 	sll	r17,r17,r8
 4023b58:	30c6d83a 	srl	r3,r6,r3
 4023b5c:	3210983a 	sll	r8,r6,r8
 4023b60:	1c62b03a 	or	r17,r3,r17
 4023b64:	1080fcc4 	addi	r2,r2,1011
 4023b68:	0085c83a 	sub	r2,zero,r2
 4023b6c:	000b883a 	mov	r5,zero
 4023b70:	003f8306 	br	4023980 <_gp+0xfffe24e4>
 4023b74:	b02b883a 	mov	r21,r22
 4023b78:	0081ffc4 	movi	r2,2047
 4023b7c:	000b883a 	mov	r5,zero
 4023b80:	0029883a 	mov	r20,zero
 4023b84:	003fac06 	br	4023a38 <_gp+0xfffe259c>
 4023b88:	0023883a 	mov	r17,zero
 4023b8c:	0011883a 	mov	r8,zero
 4023b90:	01400044 	movi	r5,1
 4023b94:	003f7a06 	br	4023980 <_gp+0xfffe24e4>
 4023b98:	014000c4 	movi	r5,3
 4023b9c:	003f7806 	br	4023980 <_gp+0xfffe24e4>
 4023ba0:	04c00104 	movi	r19,4
 4023ba4:	0021883a 	mov	r16,zero
 4023ba8:	0029883a 	mov	r20,zero
 4023bac:	07000044 	movi	fp,1
 4023bb0:	003f6106 	br	4023938 <_gp+0xfffe249c>
 4023bb4:	04c00304 	movi	r19,12
 4023bb8:	070000c4 	movi	fp,3
 4023bbc:	003f5e06 	br	4023938 <_gp+0xfffe249c>
 4023bc0:	01400434 	movhi	r5,16
 4023bc4:	002b883a 	mov	r21,zero
 4023bc8:	297fffc4 	addi	r5,r5,-1
 4023bcc:	053fffc4 	movi	r20,-1
 4023bd0:	0081ffc4 	movi	r2,2047
 4023bd4:	003f9806 	br	4023a38 <_gp+0xfffe259c>
 4023bd8:	8023883a 	mov	r17,r16
 4023bdc:	a011883a 	mov	r8,r20
 4023be0:	e00b883a 	mov	r5,fp
 4023be4:	003f8a06 	br	4023a10 <_gp+0xfffe2574>
 4023be8:	8023883a 	mov	r17,r16
 4023bec:	a011883a 	mov	r8,r20
 4023bf0:	482d883a 	mov	r22,r9
 4023bf4:	e00b883a 	mov	r5,fp
 4023bf8:	003f8506 	br	4023a10 <_gp+0xfffe2574>
 4023bfc:	a00ad43a 	srli	r5,r20,16
 4023c00:	401ad43a 	srli	r13,r8,16
 4023c04:	a53fffcc 	andi	r20,r20,65535
 4023c08:	423fffcc 	andi	r8,r8,65535
 4023c0c:	4519383a 	mul	r12,r8,r20
 4023c10:	4147383a 	mul	r3,r8,r5
 4023c14:	6d09383a 	mul	r4,r13,r20
 4023c18:	600cd43a 	srli	r6,r12,16
 4023c1c:	2b5d383a 	mul	r14,r5,r13
 4023c20:	20c9883a 	add	r4,r4,r3
 4023c24:	310d883a 	add	r6,r6,r4
 4023c28:	30c0022e 	bgeu	r6,r3,4023c34 <__muldf3+0x378>
 4023c2c:	00c00074 	movhi	r3,1
 4023c30:	70dd883a 	add	r14,r14,r3
 4023c34:	8826d43a 	srli	r19,r17,16
 4023c38:	8bffffcc 	andi	r15,r17,65535
 4023c3c:	7d23383a 	mul	r17,r15,r20
 4023c40:	7949383a 	mul	r4,r15,r5
 4023c44:	9d29383a 	mul	r20,r19,r20
 4023c48:	8814d43a 	srli	r10,r17,16
 4023c4c:	3012943a 	slli	r9,r6,16
 4023c50:	a129883a 	add	r20,r20,r4
 4023c54:	633fffcc 	andi	r12,r12,65535
 4023c58:	5515883a 	add	r10,r10,r20
 4023c5c:	3006d43a 	srli	r3,r6,16
 4023c60:	4b13883a 	add	r9,r9,r12
 4023c64:	2ccb383a 	mul	r5,r5,r19
 4023c68:	5100022e 	bgeu	r10,r4,4023c74 <__muldf3+0x3b8>
 4023c6c:	01000074 	movhi	r4,1
 4023c70:	290b883a 	add	r5,r5,r4
 4023c74:	802ad43a 	srli	r21,r16,16
 4023c78:	843fffcc 	andi	r16,r16,65535
 4023c7c:	440d383a 	mul	r6,r8,r16
 4023c80:	4565383a 	mul	r18,r8,r21
 4023c84:	8349383a 	mul	r4,r16,r13
 4023c88:	500e943a 	slli	r7,r10,16
 4023c8c:	3010d43a 	srli	r8,r6,16
 4023c90:	5028d43a 	srli	r20,r10,16
 4023c94:	2489883a 	add	r4,r4,r18
 4023c98:	8abfffcc 	andi	r10,r17,65535
 4023c9c:	3a95883a 	add	r10,r7,r10
 4023ca0:	4119883a 	add	r12,r8,r4
 4023ca4:	a169883a 	add	r20,r20,r5
 4023ca8:	1a87883a 	add	r3,r3,r10
 4023cac:	6d5b383a 	mul	r13,r13,r21
 4023cb0:	6480022e 	bgeu	r12,r18,4023cbc <__muldf3+0x400>
 4023cb4:	01000074 	movhi	r4,1
 4023cb8:	691b883a 	add	r13,r13,r4
 4023cbc:	7c25383a 	mul	r18,r15,r16
 4023cc0:	7d4b383a 	mul	r5,r15,r21
 4023cc4:	84cf383a 	mul	r7,r16,r19
 4023cc8:	901ed43a 	srli	r15,r18,16
 4023ccc:	6008d43a 	srli	r4,r12,16
 4023cd0:	6010943a 	slli	r8,r12,16
 4023cd4:	394f883a 	add	r7,r7,r5
 4023cd8:	333fffcc 	andi	r12,r6,65535
 4023cdc:	79df883a 	add	r15,r15,r7
 4023ce0:	235b883a 	add	r13,r4,r13
 4023ce4:	9d63383a 	mul	r17,r19,r21
 4023ce8:	4309883a 	add	r4,r8,r12
 4023cec:	7940022e 	bgeu	r15,r5,4023cf8 <__muldf3+0x43c>
 4023cf0:	01400074 	movhi	r5,1
 4023cf4:	8963883a 	add	r17,r17,r5
 4023cf8:	780a943a 	slli	r5,r15,16
 4023cfc:	91bfffcc 	andi	r6,r18,65535
 4023d00:	70c7883a 	add	r3,r14,r3
 4023d04:	298d883a 	add	r6,r5,r6
 4023d08:	1a8f803a 	cmpltu	r7,r3,r10
 4023d0c:	350b883a 	add	r5,r6,r20
 4023d10:	20c7883a 	add	r3,r4,r3
 4023d14:	3955883a 	add	r10,r7,r5
 4023d18:	1909803a 	cmpltu	r4,r3,r4
 4023d1c:	6a91883a 	add	r8,r13,r10
 4023d20:	780cd43a 	srli	r6,r15,16
 4023d24:	2219883a 	add	r12,r4,r8
 4023d28:	2d0b803a 	cmpltu	r5,r5,r20
 4023d2c:	51cf803a 	cmpltu	r7,r10,r7
 4023d30:	29ceb03a 	or	r7,r5,r7
 4023d34:	4351803a 	cmpltu	r8,r8,r13
 4023d38:	610b803a 	cmpltu	r5,r12,r4
 4023d3c:	4148b03a 	or	r4,r8,r5
 4023d40:	398f883a 	add	r7,r7,r6
 4023d44:	3909883a 	add	r4,r7,r4
 4023d48:	1810927a 	slli	r8,r3,9
 4023d4c:	2449883a 	add	r4,r4,r17
 4023d50:	2008927a 	slli	r4,r4,9
 4023d54:	6022d5fa 	srli	r17,r12,23
 4023d58:	1806d5fa 	srli	r3,r3,23
 4023d5c:	4252b03a 	or	r9,r8,r9
 4023d60:	600a927a 	slli	r5,r12,9
 4023d64:	4810c03a 	cmpne	r8,r9,zero
 4023d68:	2462b03a 	or	r17,r4,r17
 4023d6c:	40c6b03a 	or	r3,r8,r3
 4023d70:	8900402c 	andhi	r4,r17,256
 4023d74:	1950b03a 	or	r8,r3,r5
 4023d78:	20000726 	beq	r4,zero,4023d98 <__muldf3+0x4dc>
 4023d7c:	4006d07a 	srli	r3,r8,1
 4023d80:	880497fa 	slli	r2,r17,31
 4023d84:	4200004c 	andi	r8,r8,1
 4023d88:	8822d07a 	srli	r17,r17,1
 4023d8c:	1a10b03a 	or	r8,r3,r8
 4023d90:	1210b03a 	or	r8,r2,r8
 4023d94:	5805883a 	mov	r2,r11
 4023d98:	1140ffc4 	addi	r5,r2,1023
 4023d9c:	0140440e 	bge	zero,r5,4023eb0 <__muldf3+0x5f4>
 4023da0:	40c001cc 	andi	r3,r8,7
 4023da4:	18000726 	beq	r3,zero,4023dc4 <__muldf3+0x508>
 4023da8:	40c003cc 	andi	r3,r8,15
 4023dac:	01000104 	movi	r4,4
 4023db0:	19000426 	beq	r3,r4,4023dc4 <__muldf3+0x508>
 4023db4:	4107883a 	add	r3,r8,r4
 4023db8:	1a11803a 	cmpltu	r8,r3,r8
 4023dbc:	8a23883a 	add	r17,r17,r8
 4023dc0:	1811883a 	mov	r8,r3
 4023dc4:	88c0402c 	andhi	r3,r17,256
 4023dc8:	18000426 	beq	r3,zero,4023ddc <__muldf3+0x520>
 4023dcc:	11410004 	addi	r5,r2,1024
 4023dd0:	00bfc034 	movhi	r2,65280
 4023dd4:	10bfffc4 	addi	r2,r2,-1
 4023dd8:	88a2703a 	and	r17,r17,r2
 4023ddc:	0081ff84 	movi	r2,2046
 4023de0:	117f6416 	blt	r2,r5,4023b74 <_gp+0xfffe26d8>
 4023de4:	8828977a 	slli	r20,r17,29
 4023de8:	4010d0fa 	srli	r8,r8,3
 4023dec:	8822927a 	slli	r17,r17,9
 4023df0:	2881ffcc 	andi	r2,r5,2047
 4023df4:	a228b03a 	or	r20,r20,r8
 4023df8:	880ad33a 	srli	r5,r17,12
 4023dfc:	b02b883a 	mov	r21,r22
 4023e00:	003f0d06 	br	4023a38 <_gp+0xfffe259c>
 4023e04:	8080022c 	andhi	r2,r16,8
 4023e08:	10000926 	beq	r2,zero,4023e30 <__muldf3+0x574>
 4023e0c:	8880022c 	andhi	r2,r17,8
 4023e10:	1000071e 	bne	r2,zero,4023e30 <__muldf3+0x574>
 4023e14:	00800434 	movhi	r2,16
 4023e18:	89400234 	orhi	r5,r17,8
 4023e1c:	10bfffc4 	addi	r2,r2,-1
 4023e20:	b82b883a 	mov	r21,r23
 4023e24:	288a703a 	and	r5,r5,r2
 4023e28:	4029883a 	mov	r20,r8
 4023e2c:	003f6806 	br	4023bd0 <_gp+0xfffe2734>
 4023e30:	00800434 	movhi	r2,16
 4023e34:	81400234 	orhi	r5,r16,8
 4023e38:	10bfffc4 	addi	r2,r2,-1
 4023e3c:	288a703a 	and	r5,r5,r2
 4023e40:	003f6306 	br	4023bd0 <_gp+0xfffe2734>
 4023e44:	147ff604 	addi	r17,r2,-40
 4023e48:	3462983a 	sll	r17,r6,r17
 4023e4c:	0011883a 	mov	r8,zero
 4023e50:	003f4406 	br	4023b64 <_gp+0xfffe26c8>
 4023e54:	3009883a 	mov	r4,r6
 4023e58:	d9800215 	stw	r6,8(sp)
 4023e5c:	da400115 	stw	r9,4(sp)
 4023e60:	da800015 	stw	r10,0(sp)
 4023e64:	40242580 	call	4024258 <__clzsi2>
 4023e68:	10800804 	addi	r2,r2,32
 4023e6c:	da800017 	ldw	r10,0(sp)
 4023e70:	da400117 	ldw	r9,4(sp)
 4023e74:	d9800217 	ldw	r6,8(sp)
 4023e78:	003f3006 	br	4023b3c <_gp+0xfffe26a0>
 4023e7c:	143ff604 	addi	r16,r2,-40
 4023e80:	9c20983a 	sll	r16,r19,r16
 4023e84:	0029883a 	mov	r20,zero
 4023e88:	003f1606 	br	4023ae4 <_gp+0xfffe2648>
 4023e8c:	d9800215 	stw	r6,8(sp)
 4023e90:	d9c00015 	stw	r7,0(sp)
 4023e94:	da400115 	stw	r9,4(sp)
 4023e98:	40242580 	call	4024258 <__clzsi2>
 4023e9c:	10800804 	addi	r2,r2,32
 4023ea0:	da400117 	ldw	r9,4(sp)
 4023ea4:	d9c00017 	ldw	r7,0(sp)
 4023ea8:	d9800217 	ldw	r6,8(sp)
 4023eac:	003f0306 	br	4023abc <_gp+0xfffe2620>
 4023eb0:	00c00044 	movi	r3,1
 4023eb4:	1947c83a 	sub	r3,r3,r5
 4023eb8:	00800e04 	movi	r2,56
 4023ebc:	10feda16 	blt	r2,r3,4023a28 <_gp+0xfffe258c>
 4023ec0:	008007c4 	movi	r2,31
 4023ec4:	10c01b16 	blt	r2,r3,4023f34 <__muldf3+0x678>
 4023ec8:	00800804 	movi	r2,32
 4023ecc:	10c5c83a 	sub	r2,r2,r3
 4023ed0:	888a983a 	sll	r5,r17,r2
 4023ed4:	40c8d83a 	srl	r4,r8,r3
 4023ed8:	4084983a 	sll	r2,r8,r2
 4023edc:	88e2d83a 	srl	r17,r17,r3
 4023ee0:	2906b03a 	or	r3,r5,r4
 4023ee4:	1004c03a 	cmpne	r2,r2,zero
 4023ee8:	1886b03a 	or	r3,r3,r2
 4023eec:	188001cc 	andi	r2,r3,7
 4023ef0:	10000726 	beq	r2,zero,4023f10 <__muldf3+0x654>
 4023ef4:	188003cc 	andi	r2,r3,15
 4023ef8:	01000104 	movi	r4,4
 4023efc:	11000426 	beq	r2,r4,4023f10 <__muldf3+0x654>
 4023f00:	1805883a 	mov	r2,r3
 4023f04:	10c00104 	addi	r3,r2,4
 4023f08:	1885803a 	cmpltu	r2,r3,r2
 4023f0c:	88a3883a 	add	r17,r17,r2
 4023f10:	8880202c 	andhi	r2,r17,128
 4023f14:	10001c26 	beq	r2,zero,4023f88 <__muldf3+0x6cc>
 4023f18:	b02b883a 	mov	r21,r22
 4023f1c:	00800044 	movi	r2,1
 4023f20:	000b883a 	mov	r5,zero
 4023f24:	0029883a 	mov	r20,zero
 4023f28:	003ec306 	br	4023a38 <_gp+0xfffe259c>
 4023f2c:	5805883a 	mov	r2,r11
 4023f30:	003f9906 	br	4023d98 <_gp+0xfffe28fc>
 4023f34:	00bff844 	movi	r2,-31
 4023f38:	1145c83a 	sub	r2,r2,r5
 4023f3c:	8888d83a 	srl	r4,r17,r2
 4023f40:	00800804 	movi	r2,32
 4023f44:	18801a26 	beq	r3,r2,4023fb0 <__muldf3+0x6f4>
 4023f48:	00801004 	movi	r2,64
 4023f4c:	10c5c83a 	sub	r2,r2,r3
 4023f50:	8884983a 	sll	r2,r17,r2
 4023f54:	1204b03a 	or	r2,r2,r8
 4023f58:	1004c03a 	cmpne	r2,r2,zero
 4023f5c:	2084b03a 	or	r2,r4,r2
 4023f60:	144001cc 	andi	r17,r2,7
 4023f64:	88000d1e 	bne	r17,zero,4023f9c <__muldf3+0x6e0>
 4023f68:	000b883a 	mov	r5,zero
 4023f6c:	1028d0fa 	srli	r20,r2,3
 4023f70:	b02b883a 	mov	r21,r22
 4023f74:	0005883a 	mov	r2,zero
 4023f78:	a468b03a 	or	r20,r20,r17
 4023f7c:	003eae06 	br	4023a38 <_gp+0xfffe259c>
 4023f80:	1007883a 	mov	r3,r2
 4023f84:	0023883a 	mov	r17,zero
 4023f88:	880a927a 	slli	r5,r17,9
 4023f8c:	1805883a 	mov	r2,r3
 4023f90:	8822977a 	slli	r17,r17,29
 4023f94:	280ad33a 	srli	r5,r5,12
 4023f98:	003ff406 	br	4023f6c <_gp+0xfffe2ad0>
 4023f9c:	10c003cc 	andi	r3,r2,15
 4023fa0:	01000104 	movi	r4,4
 4023fa4:	193ff626 	beq	r3,r4,4023f80 <_gp+0xfffe2ae4>
 4023fa8:	0023883a 	mov	r17,zero
 4023fac:	003fd506 	br	4023f04 <_gp+0xfffe2a68>
 4023fb0:	0005883a 	mov	r2,zero
 4023fb4:	003fe706 	br	4023f54 <_gp+0xfffe2ab8>
 4023fb8:	00800434 	movhi	r2,16
 4023fbc:	89400234 	orhi	r5,r17,8
 4023fc0:	10bfffc4 	addi	r2,r2,-1
 4023fc4:	b02b883a 	mov	r21,r22
 4023fc8:	288a703a 	and	r5,r5,r2
 4023fcc:	4029883a 	mov	r20,r8
 4023fd0:	003eff06 	br	4023bd0 <_gp+0xfffe2734>

04023fd4 <__floatsidf>:
 4023fd4:	defffd04 	addi	sp,sp,-12
 4023fd8:	dfc00215 	stw	ra,8(sp)
 4023fdc:	dc400115 	stw	r17,4(sp)
 4023fe0:	dc000015 	stw	r16,0(sp)
 4023fe4:	20002b26 	beq	r4,zero,4024094 <__floatsidf+0xc0>
 4023fe8:	2023883a 	mov	r17,r4
 4023fec:	2020d7fa 	srli	r16,r4,31
 4023ff0:	20002d16 	blt	r4,zero,40240a8 <__floatsidf+0xd4>
 4023ff4:	8809883a 	mov	r4,r17
 4023ff8:	40242580 	call	4024258 <__clzsi2>
 4023ffc:	01410784 	movi	r5,1054
 4024000:	288bc83a 	sub	r5,r5,r2
 4024004:	01010cc4 	movi	r4,1075
 4024008:	2149c83a 	sub	r4,r4,r5
 402400c:	00c007c4 	movi	r3,31
 4024010:	1900160e 	bge	r3,r4,402406c <__floatsidf+0x98>
 4024014:	00c104c4 	movi	r3,1043
 4024018:	1947c83a 	sub	r3,r3,r5
 402401c:	88c6983a 	sll	r3,r17,r3
 4024020:	00800434 	movhi	r2,16
 4024024:	10bfffc4 	addi	r2,r2,-1
 4024028:	1886703a 	and	r3,r3,r2
 402402c:	2941ffcc 	andi	r5,r5,2047
 4024030:	800d883a 	mov	r6,r16
 4024034:	0005883a 	mov	r2,zero
 4024038:	280a953a 	slli	r5,r5,20
 402403c:	31803fcc 	andi	r6,r6,255
 4024040:	01000434 	movhi	r4,16
 4024044:	300c97fa 	slli	r6,r6,31
 4024048:	213fffc4 	addi	r4,r4,-1
 402404c:	1906703a 	and	r3,r3,r4
 4024050:	1946b03a 	or	r3,r3,r5
 4024054:	1986b03a 	or	r3,r3,r6
 4024058:	dfc00217 	ldw	ra,8(sp)
 402405c:	dc400117 	ldw	r17,4(sp)
 4024060:	dc000017 	ldw	r16,0(sp)
 4024064:	dec00304 	addi	sp,sp,12
 4024068:	f800283a 	ret
 402406c:	00c002c4 	movi	r3,11
 4024070:	1887c83a 	sub	r3,r3,r2
 4024074:	88c6d83a 	srl	r3,r17,r3
 4024078:	8904983a 	sll	r2,r17,r4
 402407c:	01000434 	movhi	r4,16
 4024080:	213fffc4 	addi	r4,r4,-1
 4024084:	2941ffcc 	andi	r5,r5,2047
 4024088:	1906703a 	and	r3,r3,r4
 402408c:	800d883a 	mov	r6,r16
 4024090:	003fe906 	br	4024038 <_gp+0xfffe2b9c>
 4024094:	000d883a 	mov	r6,zero
 4024098:	000b883a 	mov	r5,zero
 402409c:	0007883a 	mov	r3,zero
 40240a0:	0005883a 	mov	r2,zero
 40240a4:	003fe406 	br	4024038 <_gp+0xfffe2b9c>
 40240a8:	0123c83a 	sub	r17,zero,r4
 40240ac:	003fd106 	br	4023ff4 <_gp+0xfffe2b58>

040240b0 <__truncdfsf2>:
 40240b0:	2810d53a 	srli	r8,r5,20
 40240b4:	01c00434 	movhi	r7,16
 40240b8:	39ffffc4 	addi	r7,r7,-1
 40240bc:	29ce703a 	and	r7,r5,r7
 40240c0:	4201ffcc 	andi	r8,r8,2047
 40240c4:	380e90fa 	slli	r7,r7,3
 40240c8:	200cd77a 	srli	r6,r4,29
 40240cc:	42400044 	addi	r9,r8,1
 40240d0:	4a41ffcc 	andi	r9,r9,2047
 40240d4:	00c00044 	movi	r3,1
 40240d8:	280ad7fa 	srli	r5,r5,31
 40240dc:	31ceb03a 	or	r7,r6,r7
 40240e0:	200490fa 	slli	r2,r4,3
 40240e4:	1a40230e 	bge	r3,r9,4024174 <__truncdfsf2+0xc4>
 40240e8:	40ff2004 	addi	r3,r8,-896
 40240ec:	01803f84 	movi	r6,254
 40240f0:	30c01516 	blt	r6,r3,4024148 <__truncdfsf2+0x98>
 40240f4:	00c0380e 	bge	zero,r3,40241d8 <__truncdfsf2+0x128>
 40240f8:	200c91ba 	slli	r6,r4,6
 40240fc:	380e90fa 	slli	r7,r7,3
 4024100:	1004d77a 	srli	r2,r2,29
 4024104:	300cc03a 	cmpne	r6,r6,zero
 4024108:	31ccb03a 	or	r6,r6,r7
 402410c:	308cb03a 	or	r6,r6,r2
 4024110:	308001cc 	andi	r2,r6,7
 4024114:	10000426 	beq	r2,zero,4024128 <__truncdfsf2+0x78>
 4024118:	308003cc 	andi	r2,r6,15
 402411c:	01000104 	movi	r4,4
 4024120:	11000126 	beq	r2,r4,4024128 <__truncdfsf2+0x78>
 4024124:	31800104 	addi	r6,r6,4
 4024128:	3081002c 	andhi	r2,r6,1024
 402412c:	10001626 	beq	r2,zero,4024188 <__truncdfsf2+0xd8>
 4024130:	18c00044 	addi	r3,r3,1
 4024134:	00803fc4 	movi	r2,255
 4024138:	18800326 	beq	r3,r2,4024148 <__truncdfsf2+0x98>
 402413c:	300c91ba 	slli	r6,r6,6
 4024140:	300cd27a 	srli	r6,r6,9
 4024144:	00000206 	br	4024150 <__truncdfsf2+0xa0>
 4024148:	00ffffc4 	movi	r3,-1
 402414c:	000d883a 	mov	r6,zero
 4024150:	18c03fcc 	andi	r3,r3,255
 4024154:	180895fa 	slli	r4,r3,23
 4024158:	00c02034 	movhi	r3,128
 402415c:	280a97fa 	slli	r5,r5,31
 4024160:	18ffffc4 	addi	r3,r3,-1
 4024164:	30c6703a 	and	r3,r6,r3
 4024168:	1906b03a 	or	r3,r3,r4
 402416c:	1944b03a 	or	r2,r3,r5
 4024170:	f800283a 	ret
 4024174:	40000b1e 	bne	r8,zero,40241a4 <__truncdfsf2+0xf4>
 4024178:	388cb03a 	or	r6,r7,r2
 402417c:	0007883a 	mov	r3,zero
 4024180:	30000426 	beq	r6,zero,4024194 <__truncdfsf2+0xe4>
 4024184:	01800144 	movi	r6,5
 4024188:	00803fc4 	movi	r2,255
 402418c:	300cd0fa 	srli	r6,r6,3
 4024190:	18800a26 	beq	r3,r2,40241bc <__truncdfsf2+0x10c>
 4024194:	00802034 	movhi	r2,128
 4024198:	10bfffc4 	addi	r2,r2,-1
 402419c:	308c703a 	and	r6,r6,r2
 40241a0:	003feb06 	br	4024150 <_gp+0xfffe2cb4>
 40241a4:	3888b03a 	or	r4,r7,r2
 40241a8:	203fe726 	beq	r4,zero,4024148 <_gp+0xfffe2cac>
 40241ac:	380c90fa 	slli	r6,r7,3
 40241b0:	00c03fc4 	movi	r3,255
 40241b4:	31808034 	orhi	r6,r6,512
 40241b8:	003fd506 	br	4024110 <_gp+0xfffe2c74>
 40241bc:	303fe226 	beq	r6,zero,4024148 <_gp+0xfffe2cac>
 40241c0:	00802034 	movhi	r2,128
 40241c4:	31801034 	orhi	r6,r6,64
 40241c8:	10bfffc4 	addi	r2,r2,-1
 40241cc:	00ffffc4 	movi	r3,-1
 40241d0:	308c703a 	and	r6,r6,r2
 40241d4:	003fde06 	br	4024150 <_gp+0xfffe2cb4>
 40241d8:	013ffa44 	movi	r4,-23
 40241dc:	19000e16 	blt	r3,r4,4024218 <__truncdfsf2+0x168>
 40241e0:	01000784 	movi	r4,30
 40241e4:	20c9c83a 	sub	r4,r4,r3
 40241e8:	018007c4 	movi	r6,31
 40241ec:	39c02034 	orhi	r7,r7,128
 40241f0:	31000b16 	blt	r6,r4,4024220 <__truncdfsf2+0x170>
 40241f4:	423f2084 	addi	r8,r8,-894
 40241f8:	120c983a 	sll	r6,r2,r8
 40241fc:	3a0e983a 	sll	r7,r7,r8
 4024200:	1104d83a 	srl	r2,r2,r4
 4024204:	300cc03a 	cmpne	r6,r6,zero
 4024208:	31ceb03a 	or	r7,r6,r7
 402420c:	388cb03a 	or	r6,r7,r2
 4024210:	0007883a 	mov	r3,zero
 4024214:	003fbe06 	br	4024110 <_gp+0xfffe2c74>
 4024218:	0007883a 	mov	r3,zero
 402421c:	003fd906 	br	4024184 <_gp+0xfffe2ce8>
 4024220:	01bfff84 	movi	r6,-2
 4024224:	30cdc83a 	sub	r6,r6,r3
 4024228:	00c00804 	movi	r3,32
 402422c:	398cd83a 	srl	r6,r7,r6
 4024230:	20c00726 	beq	r4,r3,4024250 <__truncdfsf2+0x1a0>
 4024234:	423f2884 	addi	r8,r8,-862
 4024238:	3a0e983a 	sll	r7,r7,r8
 402423c:	3884b03a 	or	r2,r7,r2
 4024240:	1004c03a 	cmpne	r2,r2,zero
 4024244:	118cb03a 	or	r6,r2,r6
 4024248:	0007883a 	mov	r3,zero
 402424c:	003fb006 	br	4024110 <_gp+0xfffe2c74>
 4024250:	000f883a 	mov	r7,zero
 4024254:	003ff906 	br	402423c <_gp+0xfffe2da0>

04024258 <__clzsi2>:
 4024258:	00bfffd4 	movui	r2,65535
 402425c:	11000536 	bltu	r2,r4,4024274 <__clzsi2+0x1c>
 4024260:	00803fc4 	movi	r2,255
 4024264:	11000f36 	bltu	r2,r4,40242a4 <__clzsi2+0x4c>
 4024268:	00800804 	movi	r2,32
 402426c:	0007883a 	mov	r3,zero
 4024270:	00000506 	br	4024288 <__clzsi2+0x30>
 4024274:	00804034 	movhi	r2,256
 4024278:	10bfffc4 	addi	r2,r2,-1
 402427c:	11000c2e 	bgeu	r2,r4,40242b0 <__clzsi2+0x58>
 4024280:	00800204 	movi	r2,8
 4024284:	00c00604 	movi	r3,24
 4024288:	20c8d83a 	srl	r4,r4,r3
 402428c:	00c100f4 	movhi	r3,1027
 4024290:	18dd6d84 	addi	r3,r3,30134
 4024294:	1909883a 	add	r4,r3,r4
 4024298:	20c00003 	ldbu	r3,0(r4)
 402429c:	10c5c83a 	sub	r2,r2,r3
 40242a0:	f800283a 	ret
 40242a4:	00800604 	movi	r2,24
 40242a8:	00c00204 	movi	r3,8
 40242ac:	003ff606 	br	4024288 <_gp+0xfffe2dec>
 40242b0:	00800404 	movi	r2,16
 40242b4:	1007883a 	mov	r3,r2
 40242b8:	003ff306 	br	4024288 <_gp+0xfffe2dec>

040242bc <_fclose_r>:
 40242bc:	28003926 	beq	r5,zero,40243a4 <_fclose_r+0xe8>
 40242c0:	defffc04 	addi	sp,sp,-16
 40242c4:	dc400115 	stw	r17,4(sp)
 40242c8:	dc000015 	stw	r16,0(sp)
 40242cc:	dfc00315 	stw	ra,12(sp)
 40242d0:	dc800215 	stw	r18,8(sp)
 40242d4:	2023883a 	mov	r17,r4
 40242d8:	2821883a 	mov	r16,r5
 40242dc:	20000226 	beq	r4,zero,40242e8 <_fclose_r+0x2c>
 40242e0:	20800e17 	ldw	r2,56(r4)
 40242e4:	10002726 	beq	r2,zero,4024384 <_fclose_r+0xc8>
 40242e8:	8080030f 	ldh	r2,12(r16)
 40242ec:	1000071e 	bne	r2,zero,402430c <_fclose_r+0x50>
 40242f0:	0005883a 	mov	r2,zero
 40242f4:	dfc00317 	ldw	ra,12(sp)
 40242f8:	dc800217 	ldw	r18,8(sp)
 40242fc:	dc400117 	ldw	r17,4(sp)
 4024300:	dc000017 	ldw	r16,0(sp)
 4024304:	dec00404 	addi	sp,sp,16
 4024308:	f800283a 	ret
 402430c:	800b883a 	mov	r5,r16
 4024310:	8809883a 	mov	r4,r17
 4024314:	40243c00 	call	40243c0 <__sflush_r>
 4024318:	1025883a 	mov	r18,r2
 402431c:	80800b17 	ldw	r2,44(r16)
 4024320:	10000426 	beq	r2,zero,4024334 <_fclose_r+0x78>
 4024324:	81400717 	ldw	r5,28(r16)
 4024328:	8809883a 	mov	r4,r17
 402432c:	103ee83a 	callr	r2
 4024330:	10001616 	blt	r2,zero,402438c <_fclose_r+0xd0>
 4024334:	8080030b 	ldhu	r2,12(r16)
 4024338:	1080200c 	andi	r2,r2,128
 402433c:	1000151e 	bne	r2,zero,4024394 <_fclose_r+0xd8>
 4024340:	81400c17 	ldw	r5,48(r16)
 4024344:	28000526 	beq	r5,zero,402435c <_fclose_r+0xa0>
 4024348:	80801004 	addi	r2,r16,64
 402434c:	28800226 	beq	r5,r2,4024358 <_fclose_r+0x9c>
 4024350:	8809883a 	mov	r4,r17
 4024354:	4024c840 	call	4024c84 <_free_r>
 4024358:	80000c15 	stw	zero,48(r16)
 402435c:	81401117 	ldw	r5,68(r16)
 4024360:	28000326 	beq	r5,zero,4024370 <_fclose_r+0xb4>
 4024364:	8809883a 	mov	r4,r17
 4024368:	4024c840 	call	4024c84 <_free_r>
 402436c:	80001115 	stw	zero,68(r16)
 4024370:	40249c80 	call	40249c8 <__sfp_lock_acquire>
 4024374:	8000030d 	sth	zero,12(r16)
 4024378:	40249cc0 	call	40249cc <__sfp_lock_release>
 402437c:	9005883a 	mov	r2,r18
 4024380:	003fdc06 	br	40242f4 <_gp+0xfffe2e58>
 4024384:	40249b80 	call	40249b8 <__sinit>
 4024388:	003fd706 	br	40242e8 <_gp+0xfffe2e4c>
 402438c:	04bfffc4 	movi	r18,-1
 4024390:	003fe806 	br	4024334 <_gp+0xfffe2e98>
 4024394:	81400417 	ldw	r5,16(r16)
 4024398:	8809883a 	mov	r4,r17
 402439c:	4024c840 	call	4024c84 <_free_r>
 40243a0:	003fe706 	br	4024340 <_gp+0xfffe2ea4>
 40243a4:	0005883a 	mov	r2,zero
 40243a8:	f800283a 	ret

040243ac <fclose>:
 40243ac:	00810134 	movhi	r2,1028
 40243b0:	10a52804 	addi	r2,r2,-27488
 40243b4:	200b883a 	mov	r5,r4
 40243b8:	11000017 	ldw	r4,0(r2)
 40243bc:	40242bc1 	jmpi	40242bc <_fclose_r>

040243c0 <__sflush_r>:
 40243c0:	2880030b 	ldhu	r2,12(r5)
 40243c4:	defffb04 	addi	sp,sp,-20
 40243c8:	dcc00315 	stw	r19,12(sp)
 40243cc:	dc400115 	stw	r17,4(sp)
 40243d0:	dfc00415 	stw	ra,16(sp)
 40243d4:	dc800215 	stw	r18,8(sp)
 40243d8:	dc000015 	stw	r16,0(sp)
 40243dc:	10c0020c 	andi	r3,r2,8
 40243e0:	2823883a 	mov	r17,r5
 40243e4:	2027883a 	mov	r19,r4
 40243e8:	1800311e 	bne	r3,zero,40244b0 <__sflush_r+0xf0>
 40243ec:	28c00117 	ldw	r3,4(r5)
 40243f0:	10820014 	ori	r2,r2,2048
 40243f4:	2880030d 	sth	r2,12(r5)
 40243f8:	00c04b0e 	bge	zero,r3,4024528 <__sflush_r+0x168>
 40243fc:	8a000a17 	ldw	r8,40(r17)
 4024400:	40002326 	beq	r8,zero,4024490 <__sflush_r+0xd0>
 4024404:	9c000017 	ldw	r16,0(r19)
 4024408:	10c4000c 	andi	r3,r2,4096
 402440c:	98000015 	stw	zero,0(r19)
 4024410:	18004826 	beq	r3,zero,4024534 <__sflush_r+0x174>
 4024414:	89801417 	ldw	r6,80(r17)
 4024418:	10c0010c 	andi	r3,r2,4
 402441c:	18000626 	beq	r3,zero,4024438 <__sflush_r+0x78>
 4024420:	88c00117 	ldw	r3,4(r17)
 4024424:	88800c17 	ldw	r2,48(r17)
 4024428:	30cdc83a 	sub	r6,r6,r3
 402442c:	10000226 	beq	r2,zero,4024438 <__sflush_r+0x78>
 4024430:	88800f17 	ldw	r2,60(r17)
 4024434:	308dc83a 	sub	r6,r6,r2
 4024438:	89400717 	ldw	r5,28(r17)
 402443c:	000f883a 	mov	r7,zero
 4024440:	9809883a 	mov	r4,r19
 4024444:	403ee83a 	callr	r8
 4024448:	00ffffc4 	movi	r3,-1
 402444c:	10c04426 	beq	r2,r3,4024560 <__sflush_r+0x1a0>
 4024450:	88c0030b 	ldhu	r3,12(r17)
 4024454:	89000417 	ldw	r4,16(r17)
 4024458:	88000115 	stw	zero,4(r17)
 402445c:	197dffcc 	andi	r5,r3,63487
 4024460:	8940030d 	sth	r5,12(r17)
 4024464:	89000015 	stw	r4,0(r17)
 4024468:	18c4000c 	andi	r3,r3,4096
 402446c:	18002c1e 	bne	r3,zero,4024520 <__sflush_r+0x160>
 4024470:	89400c17 	ldw	r5,48(r17)
 4024474:	9c000015 	stw	r16,0(r19)
 4024478:	28000526 	beq	r5,zero,4024490 <__sflush_r+0xd0>
 402447c:	88801004 	addi	r2,r17,64
 4024480:	28800226 	beq	r5,r2,402448c <__sflush_r+0xcc>
 4024484:	9809883a 	mov	r4,r19
 4024488:	4024c840 	call	4024c84 <_free_r>
 402448c:	88000c15 	stw	zero,48(r17)
 4024490:	0005883a 	mov	r2,zero
 4024494:	dfc00417 	ldw	ra,16(sp)
 4024498:	dcc00317 	ldw	r19,12(sp)
 402449c:	dc800217 	ldw	r18,8(sp)
 40244a0:	dc400117 	ldw	r17,4(sp)
 40244a4:	dc000017 	ldw	r16,0(sp)
 40244a8:	dec00504 	addi	sp,sp,20
 40244ac:	f800283a 	ret
 40244b0:	2c800417 	ldw	r18,16(r5)
 40244b4:	903ff626 	beq	r18,zero,4024490 <_gp+0xfffe2ff4>
 40244b8:	2c000017 	ldw	r16,0(r5)
 40244bc:	108000cc 	andi	r2,r2,3
 40244c0:	2c800015 	stw	r18,0(r5)
 40244c4:	84a1c83a 	sub	r16,r16,r18
 40244c8:	1000131e 	bne	r2,zero,4024518 <__sflush_r+0x158>
 40244cc:	28800517 	ldw	r2,20(r5)
 40244d0:	88800215 	stw	r2,8(r17)
 40244d4:	04000316 	blt	zero,r16,40244e4 <__sflush_r+0x124>
 40244d8:	003fed06 	br	4024490 <_gp+0xfffe2ff4>
 40244dc:	90a5883a 	add	r18,r18,r2
 40244e0:	043feb0e 	bge	zero,r16,4024490 <_gp+0xfffe2ff4>
 40244e4:	88800917 	ldw	r2,36(r17)
 40244e8:	89400717 	ldw	r5,28(r17)
 40244ec:	800f883a 	mov	r7,r16
 40244f0:	900d883a 	mov	r6,r18
 40244f4:	9809883a 	mov	r4,r19
 40244f8:	103ee83a 	callr	r2
 40244fc:	80a1c83a 	sub	r16,r16,r2
 4024500:	00bff616 	blt	zero,r2,40244dc <_gp+0xfffe3040>
 4024504:	88c0030b 	ldhu	r3,12(r17)
 4024508:	00bfffc4 	movi	r2,-1
 402450c:	18c01014 	ori	r3,r3,64
 4024510:	88c0030d 	sth	r3,12(r17)
 4024514:	003fdf06 	br	4024494 <_gp+0xfffe2ff8>
 4024518:	0005883a 	mov	r2,zero
 402451c:	003fec06 	br	40244d0 <_gp+0xfffe3034>
 4024520:	88801415 	stw	r2,80(r17)
 4024524:	003fd206 	br	4024470 <_gp+0xfffe2fd4>
 4024528:	28c00f17 	ldw	r3,60(r5)
 402452c:	00ffb316 	blt	zero,r3,40243fc <_gp+0xfffe2f60>
 4024530:	003fd706 	br	4024490 <_gp+0xfffe2ff4>
 4024534:	89400717 	ldw	r5,28(r17)
 4024538:	000d883a 	mov	r6,zero
 402453c:	01c00044 	movi	r7,1
 4024540:	9809883a 	mov	r4,r19
 4024544:	403ee83a 	callr	r8
 4024548:	100d883a 	mov	r6,r2
 402454c:	00bfffc4 	movi	r2,-1
 4024550:	30801426 	beq	r6,r2,40245a4 <__sflush_r+0x1e4>
 4024554:	8880030b 	ldhu	r2,12(r17)
 4024558:	8a000a17 	ldw	r8,40(r17)
 402455c:	003fae06 	br	4024418 <_gp+0xfffe2f7c>
 4024560:	98c00017 	ldw	r3,0(r19)
 4024564:	183fba26 	beq	r3,zero,4024450 <_gp+0xfffe2fb4>
 4024568:	01000744 	movi	r4,29
 402456c:	19000626 	beq	r3,r4,4024588 <__sflush_r+0x1c8>
 4024570:	01000584 	movi	r4,22
 4024574:	19000426 	beq	r3,r4,4024588 <__sflush_r+0x1c8>
 4024578:	88c0030b 	ldhu	r3,12(r17)
 402457c:	18c01014 	ori	r3,r3,64
 4024580:	88c0030d 	sth	r3,12(r17)
 4024584:	003fc306 	br	4024494 <_gp+0xfffe2ff8>
 4024588:	8880030b 	ldhu	r2,12(r17)
 402458c:	88c00417 	ldw	r3,16(r17)
 4024590:	88000115 	stw	zero,4(r17)
 4024594:	10bdffcc 	andi	r2,r2,63487
 4024598:	8880030d 	sth	r2,12(r17)
 402459c:	88c00015 	stw	r3,0(r17)
 40245a0:	003fb306 	br	4024470 <_gp+0xfffe2fd4>
 40245a4:	98800017 	ldw	r2,0(r19)
 40245a8:	103fea26 	beq	r2,zero,4024554 <_gp+0xfffe30b8>
 40245ac:	00c00744 	movi	r3,29
 40245b0:	10c00226 	beq	r2,r3,40245bc <__sflush_r+0x1fc>
 40245b4:	00c00584 	movi	r3,22
 40245b8:	10c0031e 	bne	r2,r3,40245c8 <__sflush_r+0x208>
 40245bc:	9c000015 	stw	r16,0(r19)
 40245c0:	0005883a 	mov	r2,zero
 40245c4:	003fb306 	br	4024494 <_gp+0xfffe2ff8>
 40245c8:	88c0030b 	ldhu	r3,12(r17)
 40245cc:	3005883a 	mov	r2,r6
 40245d0:	18c01014 	ori	r3,r3,64
 40245d4:	88c0030d 	sth	r3,12(r17)
 40245d8:	003fae06 	br	4024494 <_gp+0xfffe2ff8>

040245dc <_fflush_r>:
 40245dc:	defffd04 	addi	sp,sp,-12
 40245e0:	dc000115 	stw	r16,4(sp)
 40245e4:	dfc00215 	stw	ra,8(sp)
 40245e8:	2021883a 	mov	r16,r4
 40245ec:	20000226 	beq	r4,zero,40245f8 <_fflush_r+0x1c>
 40245f0:	20800e17 	ldw	r2,56(r4)
 40245f4:	10000c26 	beq	r2,zero,4024628 <_fflush_r+0x4c>
 40245f8:	2880030f 	ldh	r2,12(r5)
 40245fc:	1000051e 	bne	r2,zero,4024614 <_fflush_r+0x38>
 4024600:	0005883a 	mov	r2,zero
 4024604:	dfc00217 	ldw	ra,8(sp)
 4024608:	dc000117 	ldw	r16,4(sp)
 402460c:	dec00304 	addi	sp,sp,12
 4024610:	f800283a 	ret
 4024614:	8009883a 	mov	r4,r16
 4024618:	dfc00217 	ldw	ra,8(sp)
 402461c:	dc000117 	ldw	r16,4(sp)
 4024620:	dec00304 	addi	sp,sp,12
 4024624:	40243c01 	jmpi	40243c0 <__sflush_r>
 4024628:	d9400015 	stw	r5,0(sp)
 402462c:	40249b80 	call	40249b8 <__sinit>
 4024630:	d9400017 	ldw	r5,0(sp)
 4024634:	003ff006 	br	40245f8 <_gp+0xfffe315c>

04024638 <fflush>:
 4024638:	20000526 	beq	r4,zero,4024650 <fflush+0x18>
 402463c:	00810134 	movhi	r2,1028
 4024640:	10a52804 	addi	r2,r2,-27488
 4024644:	200b883a 	mov	r5,r4
 4024648:	11000017 	ldw	r4,0(r2)
 402464c:	40245dc1 	jmpi	40245dc <_fflush_r>
 4024650:	00810134 	movhi	r2,1028
 4024654:	10a52704 	addi	r2,r2,-27492
 4024658:	11000017 	ldw	r4,0(r2)
 402465c:	014100b4 	movhi	r5,1026
 4024660:	29517704 	addi	r5,r5,17884
 4024664:	40255341 	jmpi	4025534 <_fwalk_reent>

04024668 <__fp_unlock>:
 4024668:	0005883a 	mov	r2,zero
 402466c:	f800283a 	ret

04024670 <_cleanup_r>:
 4024670:	014100b4 	movhi	r5,1026
 4024674:	2950af04 	addi	r5,r5,17084
 4024678:	40255341 	jmpi	4025534 <_fwalk_reent>

0402467c <__sinit.part.1>:
 402467c:	defff704 	addi	sp,sp,-36
 4024680:	00c100b4 	movhi	r3,1026
 4024684:	dfc00815 	stw	ra,32(sp)
 4024688:	ddc00715 	stw	r23,28(sp)
 402468c:	dd800615 	stw	r22,24(sp)
 4024690:	dd400515 	stw	r21,20(sp)
 4024694:	dd000415 	stw	r20,16(sp)
 4024698:	dcc00315 	stw	r19,12(sp)
 402469c:	dc800215 	stw	r18,8(sp)
 40246a0:	dc400115 	stw	r17,4(sp)
 40246a4:	dc000015 	stw	r16,0(sp)
 40246a8:	18d19c04 	addi	r3,r3,18032
 40246ac:	24000117 	ldw	r16,4(r4)
 40246b0:	20c00f15 	stw	r3,60(r4)
 40246b4:	2080bb04 	addi	r2,r4,748
 40246b8:	00c000c4 	movi	r3,3
 40246bc:	20c0b915 	stw	r3,740(r4)
 40246c0:	2080ba15 	stw	r2,744(r4)
 40246c4:	2000b815 	stw	zero,736(r4)
 40246c8:	05c00204 	movi	r23,8
 40246cc:	00800104 	movi	r2,4
 40246d0:	2025883a 	mov	r18,r4
 40246d4:	b80d883a 	mov	r6,r23
 40246d8:	81001704 	addi	r4,r16,92
 40246dc:	000b883a 	mov	r5,zero
 40246e0:	80000015 	stw	zero,0(r16)
 40246e4:	80000115 	stw	zero,4(r16)
 40246e8:	80000215 	stw	zero,8(r16)
 40246ec:	8080030d 	sth	r2,12(r16)
 40246f0:	80001915 	stw	zero,100(r16)
 40246f4:	8000038d 	sth	zero,14(r16)
 40246f8:	80000415 	stw	zero,16(r16)
 40246fc:	80000515 	stw	zero,20(r16)
 4024700:	80000615 	stw	zero,24(r16)
 4024704:	40260c00 	call	40260c0 <memset>
 4024708:	058100b4 	movhi	r22,1026
 402470c:	94400217 	ldw	r17,8(r18)
 4024710:	054100b4 	movhi	r21,1026
 4024714:	050100b4 	movhi	r20,1026
