
Test_Camera_NIOS.elf:     file format elf32-littlenios2
Test_Camera_NIOS.elf
architecture: nios2:r1, flags 0x00000112:
EXEC_P, HAS_SYMS, D_PAGED
start address 0x00020244

Program Header:
    LOAD off    0x00001000 vaddr 0x00020000 paddr 0x00020000 align 2**12
         filesz 0x00000020 memsz 0x00000020 flags r-x
    LOAD off    0x00001020 vaddr 0x00020020 paddr 0x00020020 align 2**12
         filesz 0x00016624 memsz 0x00016624 flags r-x
    LOAD off    0x00017644 vaddr 0x00036644 paddr 0x00038130 align 2**12
         filesz 0x00001aec memsz 0x00001aec flags rw-
    LOAD off    0x00019c1c vaddr 0x00039c1c paddr 0x00039c1c align 2**12
         filesz 0x00000000 memsz 0x00000184 flags rw-

Sections:
Idx Name          Size      VMA       LMA       File off  Algn
  0 .entry        00000020  00020000  00020000  00001000  2**5
                  CONTENTS, ALLOC, LOAD, READONLY, CODE
  1 .exceptions   00000224  00020020  00020020  00001020  2**2
                  CONTENTS, ALLOC, LOAD, READONLY, CODE
  2 .text         00015dac  00020244  00020244  00001244  2**2
                  CONTENTS, ALLOC, LOAD, READONLY, CODE
  3 .rodata       00000654  00035ff0  00035ff0  00016ff0  2**2
                  CONTENTS, ALLOC, LOAD, READONLY, DATA
  4 .rwdata       00001aec  00036644  00038130  00017644  2**2
                  CONTENTS, ALLOC, LOAD, DATA, SMALL_DATA
  5 .bss          00000184  00039c1c  00039c1c  00019c1c  2**2
                  ALLOC, SMALL_DATA
  6 .onchip_memory2_0 00000000  00039da0  00039da0  00019130  2**0
                  CONTENTS
  7 .sdram_controller_0 00000000  40000000  40000000  00019130  2**0
                  CONTENTS
  8 .comment      00000023  00000000  00000000  00019130  2**0
                  CONTENTS, READONLY
  9 .debug_aranges 00001310  00000000  00000000  00019158  2**3
                  CONTENTS, READONLY, DEBUGGING
 10 .debug_info   000321f6  00000000  00000000  0001a468  2**0
                  CONTENTS, READONLY, DEBUGGING
 11 .debug_abbrev 0000c4c5  00000000  00000000  0004c65e  2**0
                  CONTENTS, READONLY, DEBUGGING
 12 .debug_line   0000ff80  00000000  00000000  00058b23  2**0
                  CONTENTS, READONLY, DEBUGGING
 13 .debug_frame  0000309c  00000000  00000000  00068aa4  2**2
                  CONTENTS, READONLY, DEBUGGING
 14 .debug_str    000045d6  00000000  00000000  0006bb40  2**0
                  CONTENTS, READONLY, DEBUGGING
 15 .debug_loc    0001dc17  00000000  00000000  00070116  2**0
                  CONTENTS, READONLY, DEBUGGING
 16 .debug_alt_sim_info 00000060  00000000  00000000  0008dd30  2**2
                  CONTENTS, READONLY, DEBUGGING
 17 .debug_ranges 00001cd0  00000000  00000000  0008dd90  2**3
                  CONTENTS, READONLY, DEBUGGING
 18 .thread_model 00000003  00000000  00000000  00093bf2  2**0
                  CONTENTS, READONLY
 19 .cpu          0000000c  00000000  00000000  00093bf5  2**0
                  CONTENTS, READONLY
 20 .qsys         00000001  00000000  00000000  00093c01  2**0
                  CONTENTS, READONLY
 21 .simulation_enabled 00000001  00000000  00000000  00093c02  2**0
                  CONTENTS, READONLY
 22 .sysid_hash   00000004  00000000  00000000  00093c03  2**0
                  CONTENTS, READONLY
 23 .sysid_base   00000004  00000000  00000000  00093c07  2**0
                  CONTENTS, READONLY
 24 .sysid_time   00000004  00000000  00000000  00093c0b  2**0
                  CONTENTS, READONLY
 25 .stderr_dev   0000000b  00000000  00000000  00093c0f  2**0
                  CONTENTS, READONLY
 26 .stdin_dev    0000000b  00000000  00000000  00093c1a  2**0
                  CONTENTS, READONLY
 27 .stdout_dev   0000000b  00000000  00000000  00093c25  2**0
                  CONTENTS, READONLY
 28 .sopc_system_name 0000000a  00000000  00000000  00093c30  2**0
                  CONTENTS, READONLY
 29 .quartus_project_dir 00000037  00000000  00000000  00093c3a  2**0
                  CONTENTS, READONLY
 30 .jdi          000055c5  00000000  00000000  00093c71  2**0
                  CONTENTS, READONLY
 31 .sopcinfo     002ba001  00000000  00000000  00099236  2**0
                  CONTENTS, READONLY
SYMBOL TABLE:
00020000 l    d  .entry	00000000 .entry
00020020 l    d  .exceptions	00000000 .exceptions
00020244 l    d  .text	00000000 .text
00035ff0 l    d  .rodata	00000000 .rodata
00036644 l    d  .rwdata	00000000 .rwdata
00039c1c l    d  .bss	00000000 .bss
00039da0 l    d  .onchip_memory2_0	00000000 .onchip_memory2_0
40000000 l    d  .sdram_controller_0	00000000 .sdram_controller_0
00000000 l    d  .comment	00000000 .comment
00000000 l    d  .debug_aranges	00000000 .debug_aranges
00000000 l    d  .debug_info	00000000 .debug_info
00000000 l    d  .debug_abbrev	00000000 .debug_abbrev
00000000 l    d  .debug_line	00000000 .debug_line
00000000 l    d  .debug_frame	00000000 .debug_frame
00000000 l    d  .debug_str	00000000 .debug_str
00000000 l    d  .debug_loc	00000000 .debug_loc
00000000 l    d  .debug_alt_sim_info	00000000 .debug_alt_sim_info
00000000 l    d  .debug_ranges	00000000 .debug_ranges
00000000 l    df *ABS*	00000000 C:/EPFL_CycloneV_Cortex_A9_Camera_Web_Server/sw/nios/Test_Camera_NIOS_bsp//obj/HAL/src/crt0.o
0002028c l       .text	00000000 alt_after_alt_main
00000000 l    df *ABS*	00000000 alt_irq_handler.c
00000000 l    df *ABS*	00000000 alt_instruction_exception_entry.c
00000000 l    df *ABS*	00000000 cmos_sensor_output_generator.c
00020290 l     F .text	0000003c max
000202cc l     F .text	000000c8 write_frame_width_reg
000208ac l     F .text	00000034 is_idle
00020394 l     F .text	000000cc write_frame_height_reg
00020460 l     F .text	000000cc write_frame_frame_blank_reg
0002052c l     F .text	000000cc write_frame_line_blank_reg
000205f8 l     F .text	000000cc write_line_line_blank_reg
000206c4 l     F .text	000000cc write_line_frame_blank_reg
00020790 l     F .text	0000002c read_frame_width_reg
000207bc l     F .text	00000030 read_frame_height_reg
000207ec l     F .text	00000030 read_frame_frame_blank_reg
0002081c l     F .text	00000030 read_frame_line_blank_reg
0002084c l     F .text	00000030 read_line_line_blank_reg
0002087c l     F .text	00000030 read_line_frame_blank_reg
00000000 l    df *ABS*	00000000 Camera_function.c
00000000 l    df *ABS*	00000000 Memory_Access.c
000361e8 l     O .rodata	00000010 __func__.3796
000361f8 l     O .rodata	00000016 __func__.3808
00000000 l    df *ABS*	00000000 function_i2c.c
0002133c l     F .text	00000154 TRDB_D5M_log2
00021490 l     F .text	0000004c TRDB_D5M_shift_amount
000214dc l     F .text	00000060 TRDB_D5M_READ
0002153c l     F .text	0000007c TRDB_D5M_WRITE
00000000 l    df *ABS*	00000000 i2c.c
00021a3c l     F .text	00000034 i2c_usleep
00021a70 l     F .text	00000044 wait_end_of_transfer
00021ab4 l     F .text	00000070 set_data_control
00021b24 l     F .text	00000064 get_data_set_control
00000000 l    df *ABS*	00000000 main.c
00022248 l     F .text	00000154 TRDB_D5M_log2
0002239c l     F .text	0000004c TRDB_D5M_shift_amount
000223e8 l     F .text	00000060 TRDB_D5M_READ
00022448 l     F .text	0000007c TRDB_D5M_WRITE
00000000 l    df *ABS*	00000000 lib2-divmod.c
00000000 l    df *ABS*	00000000 assert.c
00000000 l    df *ABS*	00000000 fclose.c
00000000 l    df *ABS*	00000000 fflush.c
00000000 l    df *ABS*	00000000 findfp.c
00022af0 l     F .text	00000008 __fp_unlock
00022b04 l     F .text	0000019c __sinit.part.1
00022ca0 l     F .text	00000008 __fp_lock
00000000 l    df *ABS*	00000000 fiprintf.c
00000000 l    df *ABS*	00000000 fopen.c
00000000 l    df *ABS*	00000000 fprintf.c
00000000 l    df *ABS*	00000000 mallocr.c
00000000 l    df *ABS*	00000000 fseek.c
00000000 l    df *ABS*	00000000 fseeko.c
00000000 l    df *ABS*	00000000 fstatr.c
00000000 l    df *ABS*	00000000 fwalk.c
00000000 l    df *ABS*	00000000 fwrite.c
00000000 l    df *ABS*	00000000 impure.c
00036644 l     O .rwdata	00000424 impure_data
00000000 l    df *ABS*	00000000 int_errno.c
00000000 l    df *ABS*	00000000 makebuf.c
00000000 l    df *ABS*	00000000 mallocr.c
00000000 l    df *ABS*	00000000 memset.c
00000000 l    df *ABS*	00000000 openr.c
00000000 l    df *ABS*	00000000 printf.c
00000000 l    df *ABS*	00000000 puts.c
00000000 l    df *ABS*	00000000 rand.c
00000000 l    df *ABS*	00000000 refill.c
000248e8 l     F .text	0000001c lflush
00000000 l    df *ABS*	00000000 sbrkr.c
00000000 l    df *ABS*	00000000 sprintf.c
00000000 l    df *ABS*	00000000 stdio.c
00000000 l    df *ABS*	00000000 strlen.c
00000000 l    df *ABS*	00000000 vfprintf.c
0003634e l     O .rodata	00000010 zeroes.4389
0003635e l     O .rodata	00000010 blanks.4388
00000000 l    df *ABS*	00000000 time.c
00000000 l    df *ABS*	00000000 vfiprintfr_1.c
00000000 l    df *ABS*	00000000 vfprintf.c
0003636e l     O .rodata	00000010 zeroes.4404
00029218 l     F .text	000000bc __sbprintf
0003637e l     O .rodata	00000010 blanks.4403
00000000 l    df *ABS*	00000000 writer.c
00000000 l    df *ABS*	00000000 wsetup.c
00000000 l    df *ABS*	00000000 closer.c
00000000 l    df *ABS*	00000000 abort.c
00000000 l    df *ABS*	00000000 dtoa.c
000294f4 l     F .text	00000200 quorem
00000000 l    df *ABS*	00000000 flags.c
00000000 l    df *ABS*	00000000 fvwrite.c
00000000 l    df *ABS*	00000000 gettimeofdayr.c
00000000 l    df *ABS*	00000000 isattyr.c
00000000 l    df *ABS*	00000000 locale.c
00036e90 l     O .rwdata	00000020 lc_ctype_charset
00036e70 l     O .rwdata	00000020 lc_message_charset
00036eb0 l     O .rwdata	00000038 lconv
00000000 l    df *ABS*	00000000 lseekr.c
00000000 l    df *ABS*	00000000 memchr.c
00000000 l    df *ABS*	00000000 memcpy.c
00000000 l    df *ABS*	00000000 memmove.c
00000000 l    df *ABS*	00000000 mprec.c
000363ac l     O .rodata	0000000c p05.2768
00000000 l    df *ABS*	00000000 readr.c
00000000 l    df *ABS*	00000000 mallocr.c
00000000 l    df *ABS*	00000000 s_fpclassify.c
00000000 l    df *ABS*	00000000 signal.c
00000000 l    df *ABS*	00000000 signalr.c
00000000 l    df *ABS*	00000000 strcmp.c
00000000 l    df *ABS*	00000000 vfprintf.c
000364e0 l     O .rodata	00000010 blanks.4332
000364d0 l     O .rodata	00000010 zeroes.4333
00000000 l    df *ABS*	00000000 vfprintf.c
0002e678 l     F .text	000000fc __sprint_r.part.0
00036500 l     O .rodata	00000010 blanks.4348
000364f0 l     O .rodata	00000010 zeroes.4349
0002fc04 l     F .text	000000bc __sbprintf
00000000 l    df *ABS*	00000000 mallocr.c
00000000 l    df *ABS*	00000000 fputwc.c
00000000 l    df *ABS*	00000000 wbuf.c
00000000 l    df *ABS*	00000000 wcrtomb.c
00000000 l    df *ABS*	00000000 wctomb_r.c
00000000 l    df *ABS*	00000000 libgcc2.c
00000000 l    df *ABS*	00000000 libgcc2.c
00000000 l    df *ABS*	00000000 libgcc2.c
00000000 l    df *ABS*	00000000 adddf3.c
00000000 l    df *ABS*	00000000 divdf3.c
00000000 l    df *ABS*	00000000 eqdf2.c
00000000 l    df *ABS*	00000000 gedf2.c
00000000 l    df *ABS*	00000000 ledf2.c
00000000 l    df *ABS*	00000000 muldf3.c
00000000 l    df *ABS*	00000000 subdf3.c
00000000 l    df *ABS*	00000000 fixdfsi.c
00000000 l    df *ABS*	00000000 floatsidf.c
00000000 l    df *ABS*	00000000 floatunsidf.c
00000000 l    df *ABS*	00000000 libgcc2.c
00000000 l    df *ABS*	00000000 libgcc2.c
00000000 l    df *ABS*	00000000 alt_close.c
00033444 l     F .text	0000003c alt_get_errno
00000000 l    df *ABS*	00000000 alt_dev.c
00033550 l     F .text	0000002c alt_dev_null_write
00000000 l    df *ABS*	00000000 alt_errno.c
00000000 l    df *ABS*	00000000 alt_exit.c
00000000 l    df *ABS*	00000000 alt_fstat.c
000335b0 l     F .text	0000003c alt_get_errno
00000000 l    df *ABS*	00000000 alt_getpid.c
00000000 l    df *ABS*	00000000 alt_gettod.c
00000000 l    df *ABS*	00000000 alt_isatty.c
000338b0 l     F .text	0000003c alt_get_errno
00000000 l    df *ABS*	00000000 alt_kill.c
00033990 l     F .text	0000003c alt_get_errno
00000000 l    df *ABS*	00000000 alt_load.c
00033afc l     F .text	00000068 alt_load_section
00000000 l    df *ABS*	00000000 alt_lseek.c
00033be8 l     F .text	0000003c alt_get_errno
00000000 l    df *ABS*	00000000 alt_main.c
00000000 l    df *ABS*	00000000 alt_malloc_lock.c
00000000 l    df *ABS*	00000000 alt_open.c
00033dbc l     F .text	0000003c alt_get_errno
00033df8 l     F .text	000000c4 alt_file_locked
00000000 l    df *ABS*	00000000 alt_read.c
00034010 l     F .text	0000003c alt_get_errno
00000000 l    df *ABS*	00000000 alt_release_fd.c
00000000 l    df *ABS*	00000000 alt_sbrk.c
00038120 l     O .rwdata	00000004 heap_end
00000000 l    df *ABS*	00000000 alt_tick.c
00000000 l    df *ABS*	00000000 alt_usleep.c
00000000 l    df *ABS*	00000000 alt_write.c
00034430 l     F .text	0000003c alt_get_errno
00000000 l    df *ABS*	00000000 alt_sys_init.c
00034564 l     F .text	00000034 alt_dev_reg
00037090 l     O .rwdata	00001060 jtag_uart_0
00000000 l    df *ABS*	00000000 altera_avalon_jtag_uart_fd.c
00000000 l    df *ABS*	00000000 altera_avalon_jtag_uart_init.c
00034840 l     F .text	0000020c altera_avalon_jtag_uart_irq
00034a4c l     F .text	000000a0 altera_avalon_jtag_uart_timeout
00000000 l    df *ABS*	00000000 altera_avalon_jtag_uart_ioctl.c
00000000 l    df *ABS*	00000000 altera_avalon_jtag_uart_read.c
00000000 l    df *ABS*	00000000 altera_avalon_jtag_uart_write.c
00000000 l    df *ABS*	00000000 alt_alarm_start.c
00000000 l    df *ABS*	00000000 alt_busy_sleep.c
00000000 l    df *ABS*	00000000 alt_dcache_flush_all.c
00000000 l    df *ABS*	00000000 alt_dev_llist_insert.c
00035350 l     F .text	0000003c alt_get_errno
00000000 l    df *ABS*	00000000 alt_do_ctors.c
00000000 l    df *ABS*	00000000 alt_do_dtors.c
00000000 l    df *ABS*	00000000 alt_find_dev.c
00000000 l    df *ABS*	00000000 alt_find_file.c
00000000 l    df *ABS*	00000000 alt_get_fd.c
00000000 l    df *ABS*	00000000 alt_icache_flush_all.c
00000000 l    df *ABS*	00000000 alt_iic.c
00000000 l    df *ABS*	00000000 alt_iic_isr_register.c
00000000 l    df *ABS*	00000000 alt_io_redirect.c
00035a00 l     F .text	000000c4 alt_open_fd
00000000 l    df *ABS*	00000000 alt_irq_vars.c
00000000 l    df *ABS*	00000000 altera_nios2_gen2_irq.c
00000000 l    df *ABS*	00000000 alt_icache_flush.c
00000000 l    df *ABS*	00000000 atexit.c
00000000 l    df *ABS*	00000000 exit.c
00000000 l    df *ABS*	00000000 memcmp.c
00000000 l    df *ABS*	00000000 __atexit.c
00000000 l    df *ABS*	00000000 __call_atexit.c
00039c64 g     O .bss	00000004 alt_instruction_exception_handler
00020ba0 g     F .text	0000006c Camera_Acquisition_Module_SETUP_Length_Frame
0002c6dc g     F .text	00000074 _mprec_log10
0002c7c8 g     F .text	0000008c __any_on
0002b340 g     F .text	00000054 _isatty_r
000363b8 g     O .rodata	00000028 __mprec_tinytens
00033cf8 g     F .text	0000007c alt_main
00024798 g     F .text	000000c0 _puts_r
00039ca0 g     O .bss	00000100 alt_irq
0002b470 g     F .text	00000060 _lseek_r
00038130 g       *ABS*	00000000 __flash_rwdata_start
0002ad7c g     F .text	000000ac __sflags
00031f70 g     F .text	00000088 .hidden __eqdf2
0002b2e4 g     F .text	0000005c _gettimeofday_r
00039da0 g       *ABS*	00000000 __alt_heap_start
0002d130 g     F .text	0000005c _kill_r
0002475c g     F .text	0000003c printf
000300e4 g     F .text	0000009c _wcrtomb_r
0002cef8 g     F .text	00000084 _signal_r
00024cc8 g     F .text	0000005c __sseek
00022e40 g     F .text	00000010 __sinit
0002ff8c g     F .text	00000140 __swbuf_r
0002b394 g     F .text	0000007c _setlocale_r
00022ca8 g     F .text	00000068 __sfmoreglue
00033d98 g     F .text	00000024 __malloc_unlock
0002b6fc g     F .text	0000015c memmove
00020db0 g     F .text	000001cc Capture_Image_Computer
00022e28 g     F .text	00000018 _cleanup
0002b858 g     F .text	000000a8 _Balloc
00031ff8 g     F .text	000000dc .hidden __gtdf2
00035b40 g     F .text	00000024 altera_nios2_gen2_irq_init
00021c98 g     F .text	0000012c i2c_write
00020000 g     F .entry	0000001c __reset
00020020 g       *ABS*	00000000 __flash_exceptions_start
00021228 g     F .text	00000114 Quick_Test_Memory_Map
000238f8 g     F .text	0000005c _fstat_r
00039c20 g     O .bss	00000004 errno
00024c44 g     F .text	00000008 __seofread
00021744 g     F .text	00000044 init_I2C
0002d43c g     F .text	0000123c ___svfiprintf_internal_r
00021034 g     F .text	00000118 Extract_Colors
00039c50 g     O .bss	00000004 alt_argv
000400f0 g       *ABS*	00000000 _gp
00034400 g     F .text	00000030 usleep
0003369c g     F .text	00000020 getpid
00039c90 g     O .bss	00000010 cmos_sensor_output_generator
00036f10 g     O .rwdata	00000180 alt_fd_list
000354f0 g     F .text	00000090 alt_find_dev
0002b5b4 g     F .text	00000148 memcpy
00022af8 g     F .text	0000000c _cleanup_r
0003325c g     F .text	000000dc .hidden __floatsidf
00021f0c g     F .text	00000194 i2c_write_array
00035ac4 g     F .text	0000007c alt_io_redirect
000320d4 g     F .text	000000f4 .hidden __ltdf2
00035ff0 g       *ABS*	00000000 __DTOR_END__
00024858 g     F .text	00000014 puts
00035bf4 g     F .text	0000009c alt_exception_cause_generated_bad_addr
0002ce18 g     F .text	00000074 __fpclassifyd
0002c638 g     F .text	000000a4 __ratio
0002fbe8 g     F .text	0000001c __vfiprintf_internal
00034c44 g     F .text	0000021c altera_avalon_jtag_uart_read
0002472c g     F .text	00000030 _printf_r
00020000 g       *ABS*	00000000 __alt_mem_onchip_memory2_0
000209d4 g     F .text	00000108 cmos_sensor_output_generator_configure
0002260c g     F .text	00000064 .hidden __udivsi3
000338ec g     F .text	000000a4 isatty
0002cf7c g     F .text	000000bc _raise_r
000226c8 g     F .text	00000068 __assert_func
00036408 g     O .rodata	000000c8 __mprec_tens
00020cac g     F .text	000000b8 Camera_Acquisition_Module_Display_Registers
0002b410 g     F .text	0000000c __locale_charset
00039c3c g     O .bss	00000008 alt_timezone
00035b64 g     F .text	00000090 alt_icache_flush
00039c2c g     O .bss	00000004 __malloc_top_pad
0002d18c g     F .text	00000004 _getpid_r
00038100 g     O .rwdata	00000004 __mb_cur_max
00021848 g     F .text	000001f4 Camera_Configuration
0002b440 g     F .text	0000000c _localeconv_r
0002bc64 g     F .text	0000003c __i2b
0002ae28 g     F .text	000004bc __sfvwrite_r
0002d038 g     F .text	000000a8 __sigtramp_r
00024ad8 g     F .text	00000054 _sbrk_r
0002c854 g     F .text	00000060 _read_r
00038118 g     O .rwdata	00000004 alt_max_fd
00022744 g     F .text	000000f0 _fclose_r
00022ac0 g     F .text	00000030 fflush
00039c28 g     O .bss	00000004 __malloc_max_sbrked_mem
00030ddc g     F .text	000008ac .hidden __adddf3
0002c3e0 g     F .text	0000010c __b2d
000308a4 g     F .text	00000538 .hidden __umoddi3
00033c24 g     F .text	000000d4 lseek
40000000 g       *ABS*	00000000 __alt_mem_sdram_controller_0
000380f0 g     O .rwdata	00000004 _global_impure_ptr
0002c8b4 g     F .text	00000564 _realloc_r
00039da0 g       *ABS*	00000000 __bss_end
00035910 g     F .text	000000f0 alt_iic_isr_register
000342f8 g     F .text	00000108 alt_tick
0003032c g     F .text	00000578 .hidden __udivdi3
0002fee8 g     F .text	00000024 _fputwc_r
000363e0 g     O .rodata	00000028 __mprec_bigtens
0002ba48 g     F .text	00000104 __s2b
000294dc g     F .text	00000018 abort
00033338 g     F .text	000000a8 .hidden __floatunsidf
0002c120 g     F .text	00000060 __mcmp
00022e60 g     F .text	00000018 __fp_lock_all
000358c4 g     F .text	0000004c alt_ic_irq_enabled
0003425c g     F .text	0000009c alt_alarm_stop
00020b14 g     F .text	00000038 cmos_sensor_output_generator_stop
00039c60 g     O .bss	00000004 alt_irq_active
00023498 g     F .text	00000444 _fseeko_r
000200fc g     F .exceptions	000000d4 alt_irq_handler
00036ee8 g     O .rwdata	00000028 alt_dev_null
00020b4c g     F .text	00000054 Camera_Acquisition_Module_SETUP_Address_Memory
00035308 g     F .text	00000048 alt_dcache_flush_all
0002bb4c g     F .text	00000068 __hi0bits
000331dc g     F .text	00000080 .hidden __fixdfsi
00020adc g     F .text	00000038 cmos_sensor_output_generator_start
00038130 g       *ABS*	00000000 __ram_rwdata_end
00038110 g     O .rwdata	00000008 alt_dev_list
0003446c g     F .text	000000f8 write
00036644 g       *ABS*	00000000 __ram_rodata_end
000335ec g     F .text	000000b0 fstat
00023020 g     F .text	00000024 fprintf
000339cc g     F .text	00000130 kill
00021b88 g     F .text	0000002c i2c_inst
000320d4 g     F .text	000000f4 .hidden __ledf2
0002be98 g     F .text	00000140 __pow5mult
00039c38 g     O .bss	00000004 __nlocale_changed
0002e78c g     F .text	0000145c ___vfiprintf_internal_r
00022670 g     F .text	00000058 .hidden __umodsi3
00039da0 g       *ABS*	00000000 end
000238dc g     F .text	0000001c fseeko
0002347c g     F .text	0000001c fseek
00034780 g     F .text	000000c0 altera_avalon_jtag_uart_init
000201d0 g     F .exceptions	00000074 alt_instruction_exception_entry
00035ff0 g       *ABS*	00000000 __CTOR_LIST__
00040000 g       *ABS*	00000000 __alt_stack_pointer
000333e0 g     F .text	00000064 .hidden __clzsi2
00034e60 g     F .text	00000224 altera_avalon_jtag_uart_write
00022e50 g     F .text	00000004 __sfp_lock_acquire
0002b4d0 g     F .text	000000e4 memchr
00027004 g     F .text	000021f8 ___vfprintf_internal_r
00024b2c g     F .text	00000058 _sprintf_r
00023168 g     F .text	00000310 _free_r
000208e0 g     F .text	00000078 cmos_sensor_output_generator_inst
0002b41c g     F .text	00000010 __locale_mb_cur_max
00035e70 g     F .text	00000180 __call_exitprocs
00039c34 g     O .bss	00000004 __mlocale_changed
000380f8 g     O .rwdata	00000004 __malloc_sbrk_base
00020244 g     F .text	0000004c _start
00039c58 g     O .bss	00000004 _alt_tick_rate
00024884 g     F .text	00000064 rand
00020fc0 g     F .text	00000074 Convert_Pixels
0002bfd8 g     F .text	00000148 __lshift
00039c5c g     O .bss	00000004 _alt_nticks
0002d0f4 g     F .text	00000018 signal
0003404c g     F .text	000000fc read
000345d0 g     F .text	0000004c alt_sys_init
0002d26c g     F .text	000001d0 __ssprint_r
000246cc g     F .text	00000060 _open_r
00021c18 g     F .text	00000080 i2c_configure
00035d58 g     F .text	00000118 __register_exitproc
0002bca0 g     F .text	000001f8 __multiply
00034aec g     F .text	00000068 altera_avalon_jtag_uart_close
00036644 g       *ABS*	00000000 __ram_rwdata_start
00035ff0 g       *ABS*	00000000 __ram_rodata_start
00039c68 g     O .bss	00000028 __malloc_current_mallinfo
0002c4ec g     F .text	0000014c __d2b
00021788 g     F .text	000000c0 Write_and_Read_I2C
0003461c g     F .text	00000060 altera_avalon_jtag_uart_read_fd
00035688 g     F .text	000000a4 alt_get_fd
000351b0 g     F .text	00000158 alt_busy_sleep
00039c1c g     O .bss	00000004 i2c
00029488 g     F .text	00000054 _close_r
00020c5c g     F .text	00000050 Camera_Acquisition_Module_Stop
00035cdc g     F .text	0000007c memcmp
000346dc g     F .text	00000050 altera_avalon_jtag_uart_close_fd
00039da0 g       *ABS*	00000000 __alt_stack_base
0003472c g     F .text	00000054 altera_avalon_jtag_uart_ioctl_fd
00023adc g     F .text	000000cc _fwrite_r
00029334 g     F .text	00000154 __swsetup_r
00031688 g     F .text	000008e8 .hidden __divdf3
00022d10 g     F .text	00000118 __sfp
0002c750 g     F .text	00000078 __copybits
00036a68 g     O .rwdata	00000408 __malloc_av_
00022e5c g     F .text	00000004 __sinit_lock_release
000321c8 g     F .text	00000718 .hidden __muldf3
00024bf0 g     F .text	00000054 __sread
00035580 g     F .text	00000108 alt_find_file
0003538c g     F .text	000000a4 alt_dev_llist_insert
000215b8 g     F .text	00000088 trdb_d5m_write
00033d74 g     F .text	00000024 __malloc_lock
00022ff8 g     F .text	00000028 _fprintf_r
000341ac g     F .text	000000b0 sbrk
00024dc4 g     F .text	000021d8 ___svfprintf_internal_r
00022a64 g     F .text	0000005c _fflush_r
0002fcc0 g     F .text	000000c4 _calloc_r
000336bc g     F .text	000001f4 gettimeofday
00020d64 g     F .text	0000004c Test_Camera_Memory
00022fe0 g     F .text	00000018 fopen
00039c1c g       *ABS*	00000000 __bss_start
000245a4 g     F .text	00000128 memset
000224c4 g     F .text	00000050 main
00039c54 g     O .bss	00000004 alt_envp
00039c24 g     O .bss	00000004 __malloc_max_total_mem
0003467c g     F .text	00000060 altera_avalon_jtag_uart_write_fd
00021dc4 g     F .text	00000148 i2c_read
000300cc g     F .text	00000018 __swbuf
0002486c g     F .text	00000018 srand
00024d24 g     F .text	00000008 __sclose
00040000 g       *ABS*	00000000 __alt_heap_limit
00022834 g     F .text	00000014 fclose
000296f4 g     F .text	00001688 _dtoa_r
00023d98 g     F .text	0000080c _malloc_r
00030240 g     F .text	00000030 __ascii_wctomb
00026f9c g     F .text	00000050 time
0003811c g     O .rwdata	00000004 alt_errno
00022e90 g     F .text	00000020 _fiprintf_r
0002d10c g     F .text	00000010 _init_signal
00023954 g     F .text	000000c4 _fwalk
00022514 g     F .text	00000084 .hidden __divsi3
00023044 g     F .text	00000124 _malloc_trim_r
00035ff0 g       *ABS*	00000000 __CTOR_END__
0002d190 g     F .text	000000dc strcmp
00035ff0 g       *ABS*	00000000 __flash_rodata_start
00035ff0 g       *ABS*	00000000 __DTOR_LIST__
00020f7c g     F .text	00000044 delay
00031f70 g     F .text	00000088 .hidden __nedf2
0002114c g     F .text	000000dc Test_Memory_Map
00034598 g     F .text	00000038 alt_irq_init
00034148 g     F .text	00000064 alt_release_fd
00024b84 g     F .text	0000006c sprintf
00036510 g     O .rodata	00000100 .hidden __clz_tab
00039c30 g     O .bss	00000004 _PathLocale
00035c90 g     F .text	00000014 atexit
000292d4 g     F .text	00000060 _write_r
0002b44c g     F .text	00000018 setlocale
000380f4 g     O .rwdata	00000004 _impure_ptr
00039c4c g     O .bss	00000004 alt_argc
00022848 g     F .text	0000021c __sflush_r
00035490 g     F .text	00000060 _do_dtors
0002b438 g     F .text	00000008 __locale_cjk_lang
00023478 g     F .text	00000004 _fseek_r
00021bb4 g     F .text	00000064 i2c_init
00024904 g     F .text	000001d4 __srefill_r
00020020 g       .exceptions	00000000 alt_irq_entry
0002c37c g     F .text	00000064 __ulp
00022e78 g     F .text	00000018 __fp_unlock_all
00038108 g     O .rwdata	00000008 alt_fs_list
00039c44 g     O .bss	00000008 alt_resettime
00020020 g       *ABS*	00000000 __ram_exceptions_start
0002b464 g     F .text	0000000c localeconv
00035760 g     F .text	00000050 alt_ic_isr_register
00023ba8 g     F .text	00000034 fwrite
00038130 g       *ABS*	00000000 _edata
00039da0 g       *ABS*	00000000 _end
0002fd84 g     F .text	00000164 __fputwc
00020244 g       *ABS*	00000000 __ram_exceptions_end
00020958 g     F .text	0000007c cmos_sensor_output_generator_init
00034b54 g     F .text	000000f0 altera_avalon_jtag_uart_ioctl
00021640 g     F .text	000000a0 trdb_d5m_read
00035838 g     F .text	0000008c alt_ic_irq_disable
00024c4c g     F .text	0000007c __swrite
000380fc g     O .rwdata	00000004 __malloc_trim_threshold
0002b42c g     F .text	0000000c __locale_msgcharset
00035ca4 g     F .text	00000038 exit
00022eb0 g     F .text	0000003c fiprintf
00026fec g     F .text	00000018 _vfiprintf_r
00023a18 g     F .text	000000c4 _fwalk_reent
0002c180 g     F .text	000001fc __mdiff
00022598 g     F .text	00000074 .hidden __modsi3
00040000 g       *ABS*	00000000 __alt_data_end
00020020 g     F .exceptions	00000000 alt_exception
00022e54 g     F .text	00000004 __sfp_lock_release
00022eec g     F .text	000000f4 _fopen_r
0003357c g     F .text	00000034 _exit
00035084 g     F .text	0000012c alt_alarm_start
000302cc g     F .text	00000060 .hidden __muldi3
00023bdc g     F .text	000001bc __smakebuf_r
000220a0 g     F .text	000001a8 i2c_read_array
00024d2c g     F .text	00000098 strlen
0002ce8c g     F .text	0000006c _init_signal_r
00033ebc g     F .text	00000154 open
00031ff8 g     F .text	000000dc .hidden __gedf2
00022730 g     F .text	00000014 __assert
00038104 g     O .rwdata	00000004 __wctomb
0002e774 g     F .text	00000018 __sprint_r
0003572c g     F .text	00000034 alt_icache_flush_all
000216e0 g     F .text	00000064 Test_i2c
0003812c g     O .rwdata	00000004 alt_priority_mask
000357b0 g     F .text	00000088 alt_ic_irq_enable
000291fc g     F .text	0000001c __vfprintf_internal
00030270 g     F .text	0000005c _wctomb_r
000328e0 g     F .text	000008fc .hidden __subdf3
0002bbb4 g     F .text	000000b0 __lo0bits
00038124 g     O .rwdata	00000008 alt_alarm_list
00035430 g     F .text	00000060 _do_ctors
0002d11c g     F .text	00000014 __sigtramp
00030180 g     F .text	000000c0 wcrtomb
00020c0c g     F .text	00000050 Camera_Acquisition_Module_Start
00033480 g     F .text	000000d0 close
00033b64 g     F .text	00000084 alt_load
0002ff0c g     F .text	00000080 fputwc
0002d0e0 g     F .text	00000014 raise
00022e58 g     F .text	00000004 __sinit_lock_acquire
0002b928 g     F .text	00000120 __multadd
0002b900 g     F .text	00000028 _Bfree



Disassembly of section .entry:

00020000 <__reset>:
#if NIOS2_ICACHE_SIZE > 0 && defined(ALT_ALLOW_CODE_AT_RESET) && (!defined(ALT_SIM_OPTIMIZE) || defined(NIOS2_ECC_PRESENT))
    /* Assume the instruction cache size is always a power of two. */
#if NIOS2_ICACHE_SIZE > 0x8000
    movhi r2, %hi(NIOS2_ICACHE_SIZE)
#else
    movui r2, NIOS2_ICACHE_SIZE
   20000:	00840014 	movui	r2,4096
#endif

0:
    initi r2
   20004:	1001483a 	initi	r2
    addi r2, r2, -NIOS2_ICACHE_LINE_SIZE
   20008:	10bff804 	addi	r2,r2,-32
    bgt r2, zero, 0b
   2000c:	00bffd16 	blt	zero,r2,20004 <__alt_mem_sdram_controller_0+0xc0020004>
 * Jump to the _start entry point in the .text section if reset code
 * is allowed or if optimizing for RTL simulation.
 */
#if defined(ALT_ALLOW_CODE_AT_RESET) || defined(ALT_SIM_OPTIMIZE)
    /* Jump to the _start entry point in the .text section. */
    movhi r1, %hi(_start)
   20010:	004000b4 	movhi	at,2
    ori r1, r1, %lo(_start)
   20014:	08409114 	ori	at,at,580
    jmp r1
   20018:	0800683a 	jmp	at
   2001c:	00000000 	call	0 <__alt_mem_onchip_memory2_0-0x20000>

Disassembly of section .exceptions:

00020020 <alt_exception>:

#else /* ALT_EXCEPTION_STACK disabled */
        /* 
         * Reserve space on normal stack for registers about to be pushed.
         */
        addi  sp, sp, -76
   20020:	deffed04 	addi	sp,sp,-76
         * documentation for details).
         *
         * Leave a gap in the stack frame at 4(sp) for the muldiv handler to
         * store zero into.
         */
        stw   ra,  0(sp)
   20024:	dfc00015 	stw	ra,0(sp)
        stw   r1,   8(sp)
   20028:	d8400215 	stw	at,8(sp)
        stw   r2,  12(sp)
   2002c:	d8800315 	stw	r2,12(sp)
        stw   r3,  16(sp)
   20030:	d8c00415 	stw	r3,16(sp)
        stw   r4,  20(sp)
   20034:	d9000515 	stw	r4,20(sp)
        stw   r5,  24(sp)
   20038:	d9400615 	stw	r5,24(sp)
        stw   r6,  28(sp)
   2003c:	d9800715 	stw	r6,28(sp)
        stw   r7,  32(sp)
   20040:	d9c00815 	stw	r7,32(sp)
        rdctl r5, estatus   /* Read early to avoid usage stall */
   20044:	000b307a 	rdctl	r5,estatus
        stw   r8,  36(sp)
   20048:	da000915 	stw	r8,36(sp)
        stw   r9,  40(sp)
   2004c:	da400a15 	stw	r9,40(sp)
        stw   r10, 44(sp)
   20050:	da800b15 	stw	r10,44(sp)
        stw   r11, 48(sp)
   20054:	dac00c15 	stw	r11,48(sp)
        stw   r12, 52(sp)
   20058:	db000d15 	stw	r12,52(sp)
        stw   r13, 56(sp)
   2005c:	db400e15 	stw	r13,56(sp)
        stw   r14, 60(sp)
   20060:	db800f15 	stw	r14,60(sp)
        stw   r15, 64(sp)
   20064:	dbc01015 	stw	r15,64(sp)
        /*
         * ea-4 contains the address of the instruction being executed
         * when the exception occured. For interrupt exceptions, we will
         * will be re-issue the isntruction. Store it in 72(sp)
         */
        stw   r5,  68(sp)  /* estatus */
   20068:	d9401115 	stw	r5,68(sp)
        addi  r15, ea, -4  /* instruction that caused exception */
   2006c:	ebffff04 	addi	r15,ea,-4
        stw   r15,  72(sp)
   20070:	dbc01215 	stw	r15,72(sp)
#else
        /*
         * Test to see if the exception was a software exception or caused 
         * by an external interrupt, and vector accordingly.
         */
        rdctl r4, ipending
   20074:	0009313a 	rdctl	r4,ipending
        andi  r2, r5, 1
   20078:	2880004c 	andi	r2,r5,1
        beq   r2, zero, .Lnot_irq
   2007c:	10000326 	beq	r2,zero,2008c <alt_exception+0x6c>
        beq   r4, zero, .Lnot_irq
   20080:	20000226 	beq	r4,zero,2008c <alt_exception+0x6c>
        /*
         * Now that all necessary registers have been preserved, call 
         * alt_irq_handler() to process the interrupts.
         */

        call alt_irq_handler
   20084:	00200fc0 	call	200fc <alt_irq_handler>

        .section .exceptions.irqreturn, "xa"

        br    .Lexception_exit
   20088:	00000706 	br	200a8 <alt_exception+0x88>
         * upon completion, so we write ea (address of instruction *after*
         * the one where the exception occured) into 72(sp). The actual
         * instruction that caused the exception is written in r2, which these
         * handlers will utilize.
         */
        stw ea, 72(sp) /* EA is PC+4 so will skip over instruction causing exception */
   2008c:	df401215 	stw	ea,72(sp)
.Lunknown_16bit:
        addi.n r4, r4, 2 /* Need PC+2 to skip over instruction causing exception */
        stw r4, 72(sp)

#else /* CDX is not Enabled and all instructions are 32bits */
        ldw r2, -4(ea) /* Instruction value that caused exception */
   20090:	e8bfff17 	ldw	r2,-4(ea)
         * debugger is present) or go into an infinite loop since the
         * handling behavior is undefined; in that case we will not return here.
         */

        /* Load exception-causing address as first argument (r4) */
        addi   r4, ea, -4
   20094:	e93fff04 	addi	r4,ea,-4

        /* Call the instruction-exception entry */
        call   alt_instruction_exception_entry
   20098:	00201d00 	call	201d0 <alt_instruction_exception_entry>
         * instruction
         *
         * Return code was 0: Skip. The instruction after the exception is
         * already stored in 72(sp).
         */
        bne   r2, r0, .Lexception_exit
   2009c:	1000021e 	bne	r2,zero,200a8 <alt_exception+0x88>

        /*
         * Otherwise, modify 72(sp) to re-issue the instruction that caused the
         * exception.
         */
        addi  r15, ea, -4  /* instruction that caused exception */
   200a0:	ebffff04 	addi	r15,ea,-4
        stw   r15,  72(sp)
   200a4:	dbc01215 	stw	r15,72(sp)
        /* 
         * Restore the saved registers, so that all general purpose registers 
         * have been restored to their state at the time the interrupt occured.
         */

        ldw   r5,  68(sp)
   200a8:	d9401117 	ldw	r5,68(sp)
        ldw   ea,  72(sp)  /* This becomes the PC once eret is executed */
   200ac:	df401217 	ldw	ea,72(sp)
        ldw   ra,   0(sp)
   200b0:	dfc00017 	ldw	ra,0(sp)

        wrctl estatus, r5
   200b4:	2801707a 	wrctl	estatus,r5

        ldw   r1,   8(sp)
   200b8:	d8400217 	ldw	at,8(sp)
        ldw   r2,  12(sp)
   200bc:	d8800317 	ldw	r2,12(sp)
        ldw   r3,  16(sp)
   200c0:	d8c00417 	ldw	r3,16(sp)
        ldw   r4,  20(sp)
   200c4:	d9000517 	ldw	r4,20(sp)
        ldw   r5,  24(sp)
   200c8:	d9400617 	ldw	r5,24(sp)
        ldw   r6,  28(sp)
   200cc:	d9800717 	ldw	r6,28(sp)
        ldw   r7,  32(sp)
   200d0:	d9c00817 	ldw	r7,32(sp)

#if defined(ALT_EXCEPTION_STACK) && defined(ALT_STACK_CHECK)
        ldw   et, %gprel(alt_exception_old_stack_limit)(gp)
#endif

        ldw   r8,  36(sp)
   200d4:	da000917 	ldw	r8,36(sp)
        ldw   r9,  40(sp)
   200d8:	da400a17 	ldw	r9,40(sp)
        ldw   r10, 44(sp)
   200dc:	da800b17 	ldw	r10,44(sp)
        ldw   r11, 48(sp)
   200e0:	dac00c17 	ldw	r11,48(sp)
        ldw   r12, 52(sp)
   200e4:	db000d17 	ldw	r12,52(sp)
        ldw   r13, 56(sp)
   200e8:	db400e17 	ldw	r13,56(sp)
        ldw   r14, 60(sp)
   200ec:	db800f17 	ldw	r14,60(sp)
        ldw   r15, 64(sp)
   200f0:	dbc01017 	ldw	r15,64(sp)
        stw   et, %gprel(alt_stack_limit_value)(gp)
        stw   zero, %gprel(alt_exception_old_stack_limit)(gp)
#endif /* ALT_STACK_CHECK */
        ldw   sp,  76(sp)
#else /* ALT_EXCEPTION_STACK disabled */
        addi  sp, sp, 76
   200f4:	dec01304 	addi	sp,sp,76

        /*
         * Return to the interrupted instruction.
         */

        eret
   200f8:	ef80083a 	eret

000200fc <alt_irq_handler>:
 * instruction is present if the macro ALT_CI_INTERRUPT_VECTOR defined.
 */

void alt_irq_handler (void) __attribute__ ((section (".exceptions")));
void alt_irq_handler (void)
{
   200fc:	defff904 	addi	sp,sp,-28
   20100:	dfc00615 	stw	ra,24(sp)
   20104:	df000515 	stw	fp,20(sp)
   20108:	df000504 	addi	fp,sp,20
  
  /*
   * Notify the operating system that we are at interrupt level.
   */ 
  
  ALT_OS_INT_ENTER();
   2010c:	0001883a 	nop
#ifndef NIOS2_EIC_PRESENT
static ALT_INLINE alt_u32 ALT_ALWAYS_INLINE alt_irq_pending (void)
{
  alt_u32 active;

  NIOS2_READ_IPENDING (active);
   20110:	0005313a 	rdctl	r2,ipending
   20114:	e0bffe15 	stw	r2,-8(fp)

  return active;
   20118:	e0bffe17 	ldw	r2,-8(fp)
   * Consider the case where the high priority interupt is asserted during
   * the interrupt entry sequence for a lower priority interrupt to see why
   * this is the case.
   */

  active = alt_irq_pending ();
   2011c:	e0bffb15 	stw	r2,-20(fp)

  do
  {
    i = 0;
   20120:	e03ffd15 	stw	zero,-12(fp)
    mask = 1;
   20124:	00800044 	movi	r2,1
   20128:	e0bffc15 	stw	r2,-16(fp)
     * called to clear the interrupt condition.
     */

    do
    {
      if (active & mask)
   2012c:	e0fffb17 	ldw	r3,-20(fp)
   20130:	e0bffc17 	ldw	r2,-16(fp)
   20134:	1884703a 	and	r2,r3,r2
   20138:	10001426 	beq	r2,zero,2018c <alt_irq_handler+0x90>
      { 
#ifdef ALT_ENHANCED_INTERRUPT_API_PRESENT
        alt_irq[i].handler(alt_irq[i].context); 
   2013c:	00800134 	movhi	r2,4
   20140:	10a72804 	addi	r2,r2,-25440
   20144:	e0fffd17 	ldw	r3,-12(fp)
   20148:	180690fa 	slli	r3,r3,3
   2014c:	10c5883a 	add	r2,r2,r3
   20150:	10c00017 	ldw	r3,0(r2)
   20154:	00800134 	movhi	r2,4
   20158:	10a72804 	addi	r2,r2,-25440
   2015c:	e13ffd17 	ldw	r4,-12(fp)
   20160:	200890fa 	slli	r4,r4,3
   20164:	1105883a 	add	r2,r2,r4
   20168:	10800104 	addi	r2,r2,4
   2016c:	10800017 	ldw	r2,0(r2)
   20170:	1009883a 	mov	r4,r2
   20174:	183ee83a 	callr	r3
#else
        alt_irq[i].handler(alt_irq[i].context, i); 
#endif
        break;
   20178:	0001883a 	nop
#ifndef NIOS2_EIC_PRESENT
static ALT_INLINE alt_u32 ALT_ALWAYS_INLINE alt_irq_pending (void)
{
  alt_u32 active;

  NIOS2_READ_IPENDING (active);
   2017c:	0005313a 	rdctl	r2,ipending
   20180:	e0bfff15 	stw	r2,-4(fp)

  return active;
   20184:	e0bfff17 	ldw	r2,-4(fp)
   20188:	00000706 	br	201a8 <alt_irq_handler+0xac>
      }
      mask <<= 1;
   2018c:	e0bffc17 	ldw	r2,-16(fp)
   20190:	1085883a 	add	r2,r2,r2
   20194:	e0bffc15 	stw	r2,-16(fp)
      i++;
   20198:	e0bffd17 	ldw	r2,-12(fp)
   2019c:	10800044 	addi	r2,r2,1
   201a0:	e0bffd15 	stw	r2,-12(fp)

    } while (1);
   201a4:	003fe106 	br	2012c <__alt_mem_sdram_controller_0+0xc002012c>

    active = alt_irq_pending ();
   201a8:	e0bffb15 	stw	r2,-20(fp)
    
  } while (active);
   201ac:	e0bffb17 	ldw	r2,-20(fp)
   201b0:	103fdb1e 	bne	r2,zero,20120 <__alt_mem_sdram_controller_0+0xc0020120>

  /*
   * Notify the operating system that interrupt processing is complete.
   */ 

  ALT_OS_INT_EXIT();
   201b4:	0001883a 	nop
}
   201b8:	0001883a 	nop
   201bc:	e037883a 	mov	sp,fp
   201c0:	dfc00117 	ldw	ra,4(sp)
   201c4:	df000017 	ldw	fp,0(sp)
   201c8:	dec00204 	addi	sp,sp,8
   201cc:	f800283a 	ret

000201d0 <alt_instruction_exception_entry>:
 * that handler if it has been registered. Absent a handler, it will
 * break break or hang as discussed below.
 */
int 
alt_instruction_exception_entry (alt_u32 exception_pc)
{
   201d0:	defffb04 	addi	sp,sp,-20
   201d4:	dfc00415 	stw	ra,16(sp)
   201d8:	df000315 	stw	fp,12(sp)
   201dc:	df000304 	addi	fp,sp,12
   201e0:	e13fff15 	stw	r4,-4(fp)
 * NIOS2_EXCEPTION_CAUSE_NOT_PRESENT. Your handling routine should
 * check the validity of the cause argument before proceeding.
 */
#ifdef NIOS2_HAS_EXTRA_EXCEPTION_INFO
  /* Get exception cause & "badaddr" */
  NIOS2_READ_EXCEPTION(cause);
   201e4:	000531fa 	rdctl	r2,exception
   201e8:	e0bffd15 	stw	r2,-12(fp)
  cause = ( (cause & NIOS2_EXCEPTION_REG_CAUSE_MASK) >>
   201ec:	e0bffd17 	ldw	r2,-12(fp)
   201f0:	10801f0c 	andi	r2,r2,124
   201f4:	1004d0ba 	srli	r2,r2,2
   201f8:	e0bffd15 	stw	r2,-12(fp)
              NIOS2_EXCEPTION_REG_CAUSE_OFST );

  NIOS2_READ_BADADDR(badaddr);
   201fc:	0005333a 	rdctl	r2,badaddr
   20200:	e0bffe15 	stw	r2,-8(fp)
#else
  cause = NIOS2_EXCEPTION_CAUSE_NOT_PRESENT;
  badaddr = 0;
#endif /* NIOS2_HAS_EXTRA_EXCEPTION_INFO */

  if(alt_instruction_exception_handler) {
   20204:	d0a6dd17 	ldw	r2,-25740(gp)
   20208:	10000726 	beq	r2,zero,20228 <alt_instruction_exception_entry+0x58>
     * Call handler. Its return value indicates whether the exception-causing
     * instruction should be re-issued. The code that called us,
     * alt_eceptions_entry.S, will look at this value and adjust the ea
     * register as necessary
     */
    return alt_instruction_exception_handler(cause, exception_pc, badaddr);
   2020c:	d0a6dd17 	ldw	r2,-25740(gp)
   20210:	e0fffd17 	ldw	r3,-12(fp)
   20214:	e1bffe17 	ldw	r6,-8(fp)
   20218:	e17fff17 	ldw	r5,-4(fp)
   2021c:	1809883a 	mov	r4,r3
   20220:	103ee83a 	callr	r2
   20224:	00000206 	br	20230 <alt_instruction_exception_entry+0x60>
   *    (a peripheral which negates its interrupt output before its
   *    interrupt handler has been executed will cause spurious interrupts)
   */
  else {
#ifdef NIOS2_HAS_DEBUG_STUB
    NIOS2_BREAK();
   20228:	003da03a 	break	0
      ;
#endif /* NIOS2_HAS_DEBUG_STUB */
  }

  /* We should not get here. Remove compiler warning. */
  return NIOS2_EXCEPTION_RETURN_REISSUE_INST;
   2022c:	0005883a 	mov	r2,zero
}
   20230:	e037883a 	mov	sp,fp
   20234:	dfc00117 	ldw	ra,4(sp)
   20238:	df000017 	ldw	fp,0(sp)
   2023c:	dec00204 	addi	sp,sp,8
   20240:	f800283a 	ret

Disassembly of section .text:

00020244 <_start>:

    /* Assume the data cache size is always a power of two. */
#if NIOS2_DCACHE_SIZE > 0x8000
    movhi r2, %hi(NIOS2_DCACHE_SIZE)
#else
    movui r2, NIOS2_DCACHE_SIZE
   20244:	00820014 	movui	r2,2048
#endif

0:
    initd 0(r2)
   20248:	10000033 	initd	0(r2)
#ifdef NIOS2_ECC_PRESENT
    addi r2, r2, -4
#else
    addi r2, r2, -NIOS2_DCACHE_LINE_SIZE
   2024c:	10bff804 	addi	r2,r2,-32
#endif
    bgt r2, zero, 0b
   20250:	00bffd16 	blt	zero,r2,20248 <__alt_mem_sdram_controller_0+0xc0020248>

    /*
     * Now that the caches are initialized, set up the stack pointer and global pointer.
     * The values provided by the linker are assumed to be correctly aligned.
     */
    movhi sp, %hi(__alt_stack_pointer)
   20254:	06c00134 	movhi	sp,4
    ori sp, sp, %lo(__alt_stack_pointer)
   20258:	dec00014 	ori	sp,sp,0
    movhi gp, %hi(_gp)
   2025c:	06800134 	movhi	gp,4
    ori gp, gp, %lo(_gp)
   20260:	d6803c14 	ori	gp,gp,240
 */
#ifndef ALT_SIM_OPTIMIZE
    /* Log that the BSS is about to be cleared. */
    ALT_LOG_PUTS(alt_log_msg_bss)

    movhi r2, %hi(__bss_start)
   20264:	008000f4 	movhi	r2,3
    ori r2, r2, %lo(__bss_start)
   20268:	10a70714 	ori	r2,r2,39964

    movhi r3, %hi(__bss_end)
   2026c:	00c000f4 	movhi	r3,3
    ori r3, r3, %lo(__bss_end)
   20270:	18e76814 	ori	r3,r3,40352

    beq r2, r3, 1f
   20274:	10c00326 	beq	r2,r3,20284 <_start+0x40>

0:
    stw zero, (r2)
   20278:	10000015 	stw	zero,0(r2)
    addi r2, r2, 4
   2027c:	10800104 	addi	r2,r2,4
    bltu r2, r3, 0b
   20280:	10fffd36 	bltu	r2,r3,20278 <__alt_mem_sdram_controller_0+0xc0020278>
     * section aren't defined until alt_load() has been called).
     */
    mov   et, zero
#endif

    call alt_load
   20284:	0033b640 	call	33b64 <alt_load>

    /* Log that alt_main is about to be called. */
    ALT_LOG_PUTS(alt_log_msg_alt_main)

    /* Call the C entry point. It should never return. */
    call alt_main
   20288:	0033cf80 	call	33cf8 <alt_main>

0002028c <alt_after_alt_main>:

    /* Wait in infinite loop in case alt_main does return. */
alt_after_alt_main:
    br alt_after_alt_main
   2028c:	003fff06 	br	2028c <__alt_mem_sdram_controller_0+0xc002028c>

00020290 <max>:
/*
 * max
 *
 * Computes the max between two 32-bit unsigned numbers.
 */
static uint32_t max(uint32_t a, uint32_t b) {
   20290:	defffd04 	addi	sp,sp,-12
   20294:	df000215 	stw	fp,8(sp)
   20298:	df000204 	addi	fp,sp,8
   2029c:	e13ffe15 	stw	r4,-8(fp)
   202a0:	e17fff15 	stw	r5,-4(fp)
    if (a > b) {
   202a4:	e0bffe17 	ldw	r2,-8(fp)
   202a8:	e0ffff17 	ldw	r3,-4(fp)
   202ac:	1880022e 	bgeu	r3,r2,202b8 <max+0x28>
        return a;
   202b0:	e0bffe17 	ldw	r2,-8(fp)
   202b4:	00000106 	br	202bc <max+0x2c>
    } else {
        return b;
   202b8:	e0bfff17 	ldw	r2,-4(fp)
    }
}
   202bc:	e037883a 	mov	sp,fp
   202c0:	df000017 	ldw	fp,0(sp)
   202c4:	dec00104 	addi	sp,sp,4
   202c8:	f800283a 	ret

000202cc <write_frame_width_reg>:
 *
 * Writes the supplied value to the CONFIG_FRAME_WIDTH register.
 *
 * Returns true if successful (value within legal bounds) and false otherwise.
 */
static bool write_frame_width_reg(cmos_sensor_output_generator_dev *dev, uint32_t frame_width) {
   202cc:	defffa04 	addi	sp,sp,-24
   202d0:	dfc00515 	stw	ra,20(sp)
   202d4:	df000415 	stw	fp,16(sp)
   202d8:	df000404 	addi	fp,sp,16
   202dc:	e13ffe15 	stw	r4,-8(fp)
   202e0:	e17fff15 	stw	r5,-4(fp)
    uint32_t max_reg_value = max(dev->max_width, dev->max_height);
   202e4:	e0bffe17 	ldw	r2,-8(fp)
   202e8:	10c00217 	ldw	r3,8(r2)
   202ec:	e0bffe17 	ldw	r2,-8(fp)
   202f0:	10800317 	ldw	r2,12(r2)
   202f4:	100b883a 	mov	r5,r2
   202f8:	1809883a 	mov	r4,r3
   202fc:	00202900 	call	20290 <max>
   20300:	e0bffc15 	stw	r2,-16(fp)

    bool lower_bound_valid = CMOS_SENSOR_OUTPUT_GENERATOR_CONFIG_FRAME_WIDTH_MIN <= frame_width;
   20304:	e0bfff17 	ldw	r2,-4(fp)
   20308:	108000e8 	cmpgeui	r2,r2,3
   2030c:	e0bffd05 	stb	r2,-12(fp)
    bool upper_bound_valid = frame_width <= max_reg_value;
   20310:	e0bfff17 	ldw	r2,-4(fp)
   20314:	e0fffc17 	ldw	r3,-16(fp)
   20318:	1885403a 	cmpgeu	r2,r3,r2
   2031c:	e0bffd45 	stb	r2,-11(fp)

    bool valid = lower_bound_valid && upper_bound_valid && is_idle(dev);
   20320:	e0bffd03 	ldbu	r2,-12(fp)
   20324:	10000826 	beq	r2,zero,20348 <write_frame_width_reg+0x7c>
   20328:	e0bffd43 	ldbu	r2,-11(fp)
   2032c:	10000626 	beq	r2,zero,20348 <write_frame_width_reg+0x7c>
   20330:	e13ffe17 	ldw	r4,-8(fp)
   20334:	00208ac0 	call	208ac <is_idle>
   20338:	10803fcc 	andi	r2,r2,255
   2033c:	10000226 	beq	r2,zero,20348 <write_frame_width_reg+0x7c>
   20340:	00800044 	movi	r2,1
   20344:	00000106 	br	2034c <write_frame_width_reg+0x80>
   20348:	0005883a 	mov	r2,zero
   2034c:	e0bffd85 	stb	r2,-10(fp)
   20350:	e0bffd83 	ldbu	r2,-10(fp)
   20354:	1080004c 	andi	r2,r2,1
   20358:	e0bffd85 	stb	r2,-10(fp)

    if (valid) {
   2035c:	e0bffd83 	ldbu	r2,-10(fp)
   20360:	10000626 	beq	r2,zero,2037c <write_frame_width_reg+0xb0>
        CMOS_SENSOR_OUTPUT_GENERATOR_WR_CONFIG_FRAME_WIDTH(dev->base, frame_width);
   20364:	e0bffe17 	ldw	r2,-8(fp)
   20368:	10800017 	ldw	r2,0(r2)
   2036c:	e0ffff17 	ldw	r3,-4(fp)
   20370:	10c00035 	stwio	r3,0(r2)
        return true;
   20374:	00800044 	movi	r2,1
   20378:	00000106 	br	20380 <write_frame_width_reg+0xb4>
    } else {
        return false;
   2037c:	0005883a 	mov	r2,zero
    }
}
   20380:	e037883a 	mov	sp,fp
   20384:	dfc00117 	ldw	ra,4(sp)
   20388:	df000017 	ldw	fp,0(sp)
   2038c:	dec00204 	addi	sp,sp,8
   20390:	f800283a 	ret

00020394 <write_frame_height_reg>:
 *
 * Writes the supplied value to the CONFIG_FRAME_HEIGHT register.
 *
 * Returns true if successful (value within legal bounds) and false otherwise.
 */
static bool write_frame_height_reg(cmos_sensor_output_generator_dev *dev, uint32_t frame_height) {
   20394:	defffa04 	addi	sp,sp,-24
   20398:	dfc00515 	stw	ra,20(sp)
   2039c:	df000415 	stw	fp,16(sp)
   203a0:	df000404 	addi	fp,sp,16
   203a4:	e13ffe15 	stw	r4,-8(fp)
   203a8:	e17fff15 	stw	r5,-4(fp)
    uint32_t max_reg_value = max(dev->max_width, dev->max_height);
   203ac:	e0bffe17 	ldw	r2,-8(fp)
   203b0:	10c00217 	ldw	r3,8(r2)
   203b4:	e0bffe17 	ldw	r2,-8(fp)
   203b8:	10800317 	ldw	r2,12(r2)
   203bc:	100b883a 	mov	r5,r2
   203c0:	1809883a 	mov	r4,r3
   203c4:	00202900 	call	20290 <max>
   203c8:	e0bffc15 	stw	r2,-16(fp)

    bool lower_bound_valid = CMOS_SENSOR_OUTPUT_GENERATOR_CONFIG_FRAME_HEIGHT_MIN <= frame_height;
   203cc:	e0bfff17 	ldw	r2,-4(fp)
   203d0:	108000e8 	cmpgeui	r2,r2,3
   203d4:	e0bffd05 	stb	r2,-12(fp)
    bool upper_bound_valid = frame_height <= max_reg_value;
   203d8:	e0bfff17 	ldw	r2,-4(fp)
   203dc:	e0fffc17 	ldw	r3,-16(fp)
   203e0:	1885403a 	cmpgeu	r2,r3,r2
   203e4:	e0bffd45 	stb	r2,-11(fp)

    bool valid = lower_bound_valid && upper_bound_valid && is_idle(dev);
   203e8:	e0bffd03 	ldbu	r2,-12(fp)
   203ec:	10000826 	beq	r2,zero,20410 <write_frame_height_reg+0x7c>
   203f0:	e0bffd43 	ldbu	r2,-11(fp)
   203f4:	10000626 	beq	r2,zero,20410 <write_frame_height_reg+0x7c>
   203f8:	e13ffe17 	ldw	r4,-8(fp)
   203fc:	00208ac0 	call	208ac <is_idle>
   20400:	10803fcc 	andi	r2,r2,255
   20404:	10000226 	beq	r2,zero,20410 <write_frame_height_reg+0x7c>
   20408:	00800044 	movi	r2,1
   2040c:	00000106 	br	20414 <write_frame_height_reg+0x80>
   20410:	0005883a 	mov	r2,zero
   20414:	e0bffd85 	stb	r2,-10(fp)
   20418:	e0bffd83 	ldbu	r2,-10(fp)
   2041c:	1080004c 	andi	r2,r2,1
   20420:	e0bffd85 	stb	r2,-10(fp)

    if (valid) {
   20424:	e0bffd83 	ldbu	r2,-10(fp)
   20428:	10000726 	beq	r2,zero,20448 <write_frame_height_reg+0xb4>
        CMOS_SENSOR_OUTPUT_GENERATOR_WR_CONFIG_FRAME_HEIGHT(dev->base, frame_height);
   2042c:	e0bffe17 	ldw	r2,-8(fp)
   20430:	10800017 	ldw	r2,0(r2)
   20434:	10800104 	addi	r2,r2,4
   20438:	e0ffff17 	ldw	r3,-4(fp)
   2043c:	10c00035 	stwio	r3,0(r2)
        return true;
   20440:	00800044 	movi	r2,1
   20444:	00000106 	br	2044c <write_frame_height_reg+0xb8>
    } else {
        return false;
   20448:	0005883a 	mov	r2,zero
    }
}
   2044c:	e037883a 	mov	sp,fp
   20450:	dfc00117 	ldw	ra,4(sp)
   20454:	df000017 	ldw	fp,0(sp)
   20458:	dec00204 	addi	sp,sp,8
   2045c:	f800283a 	ret

00020460 <write_frame_frame_blank_reg>:
 *
 * Writes the supplied value to the CONFIG_FRAME_FRAME_BLANK register.
 *
 * Returns true if successful (value within legal bounds) and false otherwise.
 */
static bool write_frame_frame_blank_reg(cmos_sensor_output_generator_dev *dev, uint32_t frame_frame_blank) {
   20460:	defffa04 	addi	sp,sp,-24
   20464:	dfc00515 	stw	ra,20(sp)
   20468:	df000415 	stw	fp,16(sp)
   2046c:	df000404 	addi	fp,sp,16
   20470:	e13ffe15 	stw	r4,-8(fp)
   20474:	e17fff15 	stw	r5,-4(fp)
    uint32_t max_reg_value = max(dev->max_width, dev->max_height);
   20478:	e0bffe17 	ldw	r2,-8(fp)
   2047c:	10c00217 	ldw	r3,8(r2)
   20480:	e0bffe17 	ldw	r2,-8(fp)
   20484:	10800317 	ldw	r2,12(r2)
   20488:	100b883a 	mov	r5,r2
   2048c:	1809883a 	mov	r4,r3
   20490:	00202900 	call	20290 <max>
   20494:	e0bffc15 	stw	r2,-16(fp)

    bool lower_bound_valid = CMOS_SENSOR_OUTPUT_GENERATOR_CONFIG_FRAME_FRAME_BLANK_MIN <= frame_frame_blank;
   20498:	e0bfff17 	ldw	r2,-4(fp)
   2049c:	108000e8 	cmpgeui	r2,r2,3
   204a0:	e0bffd05 	stb	r2,-12(fp)
    bool upper_bound_valid = frame_frame_blank <= max_reg_value;
   204a4:	e0bfff17 	ldw	r2,-4(fp)
   204a8:	e0fffc17 	ldw	r3,-16(fp)
   204ac:	1885403a 	cmpgeu	r2,r3,r2
   204b0:	e0bffd45 	stb	r2,-11(fp)

    bool valid = lower_bound_valid && upper_bound_valid && is_idle(dev);
   204b4:	e0bffd03 	ldbu	r2,-12(fp)
   204b8:	10000826 	beq	r2,zero,204dc <write_frame_frame_blank_reg+0x7c>
   204bc:	e0bffd43 	ldbu	r2,-11(fp)
   204c0:	10000626 	beq	r2,zero,204dc <write_frame_frame_blank_reg+0x7c>
   204c4:	e13ffe17 	ldw	r4,-8(fp)
   204c8:	00208ac0 	call	208ac <is_idle>
   204cc:	10803fcc 	andi	r2,r2,255
   204d0:	10000226 	beq	r2,zero,204dc <write_frame_frame_blank_reg+0x7c>
   204d4:	00800044 	movi	r2,1
   204d8:	00000106 	br	204e0 <write_frame_frame_blank_reg+0x80>
   204dc:	0005883a 	mov	r2,zero
   204e0:	e0bffd85 	stb	r2,-10(fp)
   204e4:	e0bffd83 	ldbu	r2,-10(fp)
   204e8:	1080004c 	andi	r2,r2,1
   204ec:	e0bffd85 	stb	r2,-10(fp)

    if (valid) {
   204f0:	e0bffd83 	ldbu	r2,-10(fp)
   204f4:	10000726 	beq	r2,zero,20514 <write_frame_frame_blank_reg+0xb4>
        CMOS_SENSOR_OUTPUT_GENERATOR_WR_CONFIG_FRAME_FRAME_BLANK(dev->base, frame_frame_blank);
   204f8:	e0bffe17 	ldw	r2,-8(fp)
   204fc:	10800017 	ldw	r2,0(r2)
   20500:	10800204 	addi	r2,r2,8
   20504:	e0ffff17 	ldw	r3,-4(fp)
   20508:	10c00035 	stwio	r3,0(r2)
        return true;
   2050c:	00800044 	movi	r2,1
   20510:	00000106 	br	20518 <write_frame_frame_blank_reg+0xb8>
    } else {
        return false;
   20514:	0005883a 	mov	r2,zero
    }
}
   20518:	e037883a 	mov	sp,fp
   2051c:	dfc00117 	ldw	ra,4(sp)
   20520:	df000017 	ldw	fp,0(sp)
   20524:	dec00204 	addi	sp,sp,8
   20528:	f800283a 	ret

0002052c <write_frame_line_blank_reg>:
 *
 * Writes the supplied value to the CONFIG_FRAME_LINE_BLANK register.
 *
 * Returns true if successful (value within legal bounds) and false otherwise.
 */
static bool write_frame_line_blank_reg(cmos_sensor_output_generator_dev *dev, uint32_t frame_line_blank) {
   2052c:	defffa04 	addi	sp,sp,-24
   20530:	dfc00515 	stw	ra,20(sp)
   20534:	df000415 	stw	fp,16(sp)
   20538:	df000404 	addi	fp,sp,16
   2053c:	e13ffe15 	stw	r4,-8(fp)
   20540:	e17fff15 	stw	r5,-4(fp)
    uint32_t max_reg_value = max(dev->max_width, dev->max_height);
   20544:	e0bffe17 	ldw	r2,-8(fp)
   20548:	10c00217 	ldw	r3,8(r2)
   2054c:	e0bffe17 	ldw	r2,-8(fp)
   20550:	10800317 	ldw	r2,12(r2)
   20554:	100b883a 	mov	r5,r2
   20558:	1809883a 	mov	r4,r3
   2055c:	00202900 	call	20290 <max>
   20560:	e0bffc15 	stw	r2,-16(fp)

    bool lower_bound_valid = CMOS_SENSOR_OUTPUT_GENERATOR_CONFIG_FRAME_LINE_BLANK_MIN <= frame_line_blank;
   20564:	e0bfff17 	ldw	r2,-4(fp)
   20568:	108000e8 	cmpgeui	r2,r2,3
   2056c:	e0bffd05 	stb	r2,-12(fp)
    bool upper_bound_valid = frame_line_blank <= max_reg_value;
   20570:	e0bfff17 	ldw	r2,-4(fp)
   20574:	e0fffc17 	ldw	r3,-16(fp)
   20578:	1885403a 	cmpgeu	r2,r3,r2
   2057c:	e0bffd45 	stb	r2,-11(fp)

    bool valid = lower_bound_valid && upper_bound_valid && is_idle(dev);
   20580:	e0bffd03 	ldbu	r2,-12(fp)
   20584:	10000826 	beq	r2,zero,205a8 <write_frame_line_blank_reg+0x7c>
   20588:	e0bffd43 	ldbu	r2,-11(fp)
   2058c:	10000626 	beq	r2,zero,205a8 <write_frame_line_blank_reg+0x7c>
   20590:	e13ffe17 	ldw	r4,-8(fp)
   20594:	00208ac0 	call	208ac <is_idle>
   20598:	10803fcc 	andi	r2,r2,255
   2059c:	10000226 	beq	r2,zero,205a8 <write_frame_line_blank_reg+0x7c>
   205a0:	00800044 	movi	r2,1
   205a4:	00000106 	br	205ac <write_frame_line_blank_reg+0x80>
   205a8:	0005883a 	mov	r2,zero
   205ac:	e0bffd85 	stb	r2,-10(fp)
   205b0:	e0bffd83 	ldbu	r2,-10(fp)
   205b4:	1080004c 	andi	r2,r2,1
   205b8:	e0bffd85 	stb	r2,-10(fp)

    if (valid) {
   205bc:	e0bffd83 	ldbu	r2,-10(fp)
   205c0:	10000726 	beq	r2,zero,205e0 <write_frame_line_blank_reg+0xb4>
        CMOS_SENSOR_OUTPUT_GENERATOR_WR_CONFIG_FRAME_LINE_BLANK(dev->base, frame_line_blank);
   205c4:	e0bffe17 	ldw	r2,-8(fp)
   205c8:	10800017 	ldw	r2,0(r2)
   205cc:	10800304 	addi	r2,r2,12
   205d0:	e0ffff17 	ldw	r3,-4(fp)
   205d4:	10c00035 	stwio	r3,0(r2)
        return true;
   205d8:	00800044 	movi	r2,1
   205dc:	00000106 	br	205e4 <write_frame_line_blank_reg+0xb8>
    } else {
        return false;
   205e0:	0005883a 	mov	r2,zero
    }
}
   205e4:	e037883a 	mov	sp,fp
   205e8:	dfc00117 	ldw	ra,4(sp)
   205ec:	df000017 	ldw	fp,0(sp)
   205f0:	dec00204 	addi	sp,sp,8
   205f4:	f800283a 	ret

000205f8 <write_line_line_blank_reg>:
 *
 * Writes the supplied value to the CONFIG_LINE_LINE_BLANK register.
 *
 * Returns true if successful (value within legal bounds) and false otherwise.
 */
static bool write_line_line_blank_reg(cmos_sensor_output_generator_dev *dev, uint32_t line_line_blank) {
   205f8:	defffa04 	addi	sp,sp,-24
   205fc:	dfc00515 	stw	ra,20(sp)
   20600:	df000415 	stw	fp,16(sp)
   20604:	df000404 	addi	fp,sp,16
   20608:	e13ffe15 	stw	r4,-8(fp)
   2060c:	e17fff15 	stw	r5,-4(fp)
    uint32_t max_reg_value = max(dev->max_width, dev->max_height);
   20610:	e0bffe17 	ldw	r2,-8(fp)
   20614:	10c00217 	ldw	r3,8(r2)
   20618:	e0bffe17 	ldw	r2,-8(fp)
   2061c:	10800317 	ldw	r2,12(r2)
   20620:	100b883a 	mov	r5,r2
   20624:	1809883a 	mov	r4,r3
   20628:	00202900 	call	20290 <max>
   2062c:	e0bffc15 	stw	r2,-16(fp)

    bool lower_bound_valid = CMOS_SENSOR_OUTPUT_GENERATOR_CONFIG_LINE_LINE_BLANK_MIN <= line_line_blank;
   20630:	e0bfff17 	ldw	r2,-4(fp)
   20634:	108000e8 	cmpgeui	r2,r2,3
   20638:	e0bffd05 	stb	r2,-12(fp)
    bool upper_bound_valid = line_line_blank <= max_reg_value;
   2063c:	e0bfff17 	ldw	r2,-4(fp)
   20640:	e0fffc17 	ldw	r3,-16(fp)
   20644:	1885403a 	cmpgeu	r2,r3,r2
   20648:	e0bffd45 	stb	r2,-11(fp)

    bool valid = lower_bound_valid && upper_bound_valid && is_idle(dev);
   2064c:	e0bffd03 	ldbu	r2,-12(fp)
   20650:	10000826 	beq	r2,zero,20674 <write_line_line_blank_reg+0x7c>
   20654:	e0bffd43 	ldbu	r2,-11(fp)
   20658:	10000626 	beq	r2,zero,20674 <write_line_line_blank_reg+0x7c>
   2065c:	e13ffe17 	ldw	r4,-8(fp)
   20660:	00208ac0 	call	208ac <is_idle>
   20664:	10803fcc 	andi	r2,r2,255
   20668:	10000226 	beq	r2,zero,20674 <write_line_line_blank_reg+0x7c>
   2066c:	00800044 	movi	r2,1
   20670:	00000106 	br	20678 <write_line_line_blank_reg+0x80>
   20674:	0005883a 	mov	r2,zero
   20678:	e0bffd85 	stb	r2,-10(fp)
   2067c:	e0bffd83 	ldbu	r2,-10(fp)
   20680:	1080004c 	andi	r2,r2,1
   20684:	e0bffd85 	stb	r2,-10(fp)

    if (valid) {
   20688:	e0bffd83 	ldbu	r2,-10(fp)
   2068c:	10000726 	beq	r2,zero,206ac <write_line_line_blank_reg+0xb4>
        CMOS_SENSOR_OUTPUT_GENERATOR_WR_CONFIG_LINE_LINE_BLANK(dev->base, line_line_blank);
   20690:	e0bffe17 	ldw	r2,-8(fp)
   20694:	10800017 	ldw	r2,0(r2)
   20698:	10800404 	addi	r2,r2,16
   2069c:	e0ffff17 	ldw	r3,-4(fp)
   206a0:	10c00035 	stwio	r3,0(r2)
        return true;
   206a4:	00800044 	movi	r2,1
   206a8:	00000106 	br	206b0 <write_line_line_blank_reg+0xb8>
    } else {
        return false;
   206ac:	0005883a 	mov	r2,zero
    }
}
   206b0:	e037883a 	mov	sp,fp
   206b4:	dfc00117 	ldw	ra,4(sp)
   206b8:	df000017 	ldw	fp,0(sp)
   206bc:	dec00204 	addi	sp,sp,8
   206c0:	f800283a 	ret

000206c4 <write_line_frame_blank_reg>:
 *
 * Writes the supplied value to the CONFIG_LINE_FRAME_BLANK register.
 *
 * Returns true if successful (value within legal bounds) and false otherwise.
 */
static bool write_line_frame_blank_reg(cmos_sensor_output_generator_dev *dev, uint32_t line_frame_blank) {
   206c4:	defffa04 	addi	sp,sp,-24
   206c8:	dfc00515 	stw	ra,20(sp)
   206cc:	df000415 	stw	fp,16(sp)
   206d0:	df000404 	addi	fp,sp,16
   206d4:	e13ffe15 	stw	r4,-8(fp)
   206d8:	e17fff15 	stw	r5,-4(fp)
    uint32_t max_reg_value = max(dev->max_width, dev->max_height);
   206dc:	e0bffe17 	ldw	r2,-8(fp)
   206e0:	10c00217 	ldw	r3,8(r2)
   206e4:	e0bffe17 	ldw	r2,-8(fp)
   206e8:	10800317 	ldw	r2,12(r2)
   206ec:	100b883a 	mov	r5,r2
   206f0:	1809883a 	mov	r4,r3
   206f4:	00202900 	call	20290 <max>
   206f8:	e0bffc15 	stw	r2,-16(fp)

    bool lower_bound_valid = CMOS_SENSOR_OUTPUT_GENERATOR_CONFIG_LINE_FRAME_BLANK_MIN <= line_frame_blank;
   206fc:	e0bfff17 	ldw	r2,-4(fp)
   20700:	108000e8 	cmpgeui	r2,r2,3
   20704:	e0bffd05 	stb	r2,-12(fp)
    bool upper_bound_valid = line_frame_blank <= max_reg_value;
   20708:	e0bfff17 	ldw	r2,-4(fp)
   2070c:	e0fffc17 	ldw	r3,-16(fp)
   20710:	1885403a 	cmpgeu	r2,r3,r2
   20714:	e0bffd45 	stb	r2,-11(fp)

    bool valid = lower_bound_valid && upper_bound_valid && is_idle(dev);
   20718:	e0bffd03 	ldbu	r2,-12(fp)
   2071c:	10000826 	beq	r2,zero,20740 <write_line_frame_blank_reg+0x7c>
   20720:	e0bffd43 	ldbu	r2,-11(fp)
   20724:	10000626 	beq	r2,zero,20740 <write_line_frame_blank_reg+0x7c>
   20728:	e13ffe17 	ldw	r4,-8(fp)
   2072c:	00208ac0 	call	208ac <is_idle>
   20730:	10803fcc 	andi	r2,r2,255
   20734:	10000226 	beq	r2,zero,20740 <write_line_frame_blank_reg+0x7c>
   20738:	00800044 	movi	r2,1
   2073c:	00000106 	br	20744 <write_line_frame_blank_reg+0x80>
   20740:	0005883a 	mov	r2,zero
   20744:	e0bffd85 	stb	r2,-10(fp)
   20748:	e0bffd83 	ldbu	r2,-10(fp)
   2074c:	1080004c 	andi	r2,r2,1
   20750:	e0bffd85 	stb	r2,-10(fp)

    if (valid) {
   20754:	e0bffd83 	ldbu	r2,-10(fp)
   20758:	10000726 	beq	r2,zero,20778 <write_line_frame_blank_reg+0xb4>
        CMOS_SENSOR_OUTPUT_GENERATOR_WR_CONFIG_LINE_FRAME_BLANK(dev->base, line_frame_blank);
   2075c:	e0bffe17 	ldw	r2,-8(fp)
   20760:	10800017 	ldw	r2,0(r2)
   20764:	10800504 	addi	r2,r2,20
   20768:	e0ffff17 	ldw	r3,-4(fp)
   2076c:	10c00035 	stwio	r3,0(r2)
        return true;
   20770:	00800044 	movi	r2,1
   20774:	00000106 	br	2077c <write_line_frame_blank_reg+0xb8>
    } else {
        return false;
   20778:	0005883a 	mov	r2,zero
    }
}
   2077c:	e037883a 	mov	sp,fp
   20780:	dfc00117 	ldw	ra,4(sp)
   20784:	df000017 	ldw	fp,0(sp)
   20788:	dec00204 	addi	sp,sp,8
   2078c:	f800283a 	ret

00020790 <read_frame_width_reg>:
/*
 * read_frame_width_reg
 *
 * Reads and returns the contents of the CONFIG_FRAME_WIDTH register
 */
static uint32_t read_frame_width_reg(cmos_sensor_output_generator_dev *dev) {
   20790:	defffe04 	addi	sp,sp,-8
   20794:	df000115 	stw	fp,4(sp)
   20798:	df000104 	addi	fp,sp,4
   2079c:	e13fff15 	stw	r4,-4(fp)
    return CMOS_SENSOR_OUTPUT_GENERATOR_RD_CONFIG_FRAME_WIDTH(dev->base);
   207a0:	e0bfff17 	ldw	r2,-4(fp)
   207a4:	10800017 	ldw	r2,0(r2)
   207a8:	10800037 	ldwio	r2,0(r2)
}
   207ac:	e037883a 	mov	sp,fp
   207b0:	df000017 	ldw	fp,0(sp)
   207b4:	dec00104 	addi	sp,sp,4
   207b8:	f800283a 	ret

000207bc <read_frame_height_reg>:
/*
 * read_frame_height_reg
 *
 * Reads and returns the contents of the CONFIG_FRAME_HEIGHT register
 */
static uint32_t read_frame_height_reg(cmos_sensor_output_generator_dev *dev) {
   207bc:	defffe04 	addi	sp,sp,-8
   207c0:	df000115 	stw	fp,4(sp)
   207c4:	df000104 	addi	fp,sp,4
   207c8:	e13fff15 	stw	r4,-4(fp)
    return CMOS_SENSOR_OUTPUT_GENERATOR_RD_CONFIG_FRAME_HEIGHT(dev->base);
   207cc:	e0bfff17 	ldw	r2,-4(fp)
   207d0:	10800017 	ldw	r2,0(r2)
   207d4:	10800104 	addi	r2,r2,4
   207d8:	10800037 	ldwio	r2,0(r2)
}
   207dc:	e037883a 	mov	sp,fp
   207e0:	df000017 	ldw	fp,0(sp)
   207e4:	dec00104 	addi	sp,sp,4
   207e8:	f800283a 	ret

000207ec <read_frame_frame_blank_reg>:
/*
 * read_frame_frame_blank_reg
 *
 * Reads and returns the contents of the CONFIG_FRAME_FRAME_BLANK register
 */
static uint32_t read_frame_frame_blank_reg(cmos_sensor_output_generator_dev *dev) {
   207ec:	defffe04 	addi	sp,sp,-8
   207f0:	df000115 	stw	fp,4(sp)
   207f4:	df000104 	addi	fp,sp,4
   207f8:	e13fff15 	stw	r4,-4(fp)
    return CMOS_SENSOR_OUTPUT_GENERATOR_RD_CONFIG_FRAME_FRAME_BLANK(dev->base);
   207fc:	e0bfff17 	ldw	r2,-4(fp)
   20800:	10800017 	ldw	r2,0(r2)
   20804:	10800204 	addi	r2,r2,8
   20808:	10800037 	ldwio	r2,0(r2)
}
   2080c:	e037883a 	mov	sp,fp
   20810:	df000017 	ldw	fp,0(sp)
   20814:	dec00104 	addi	sp,sp,4
   20818:	f800283a 	ret

0002081c <read_frame_line_blank_reg>:
/*
 * read_frame_line_blank_reg
 *
 * Reads and returns the contents of the CONFIG_FRAME_LINE_BLANK register
 */
static uint32_t read_frame_line_blank_reg(cmos_sensor_output_generator_dev *dev) {
   2081c:	defffe04 	addi	sp,sp,-8
   20820:	df000115 	stw	fp,4(sp)
   20824:	df000104 	addi	fp,sp,4
   20828:	e13fff15 	stw	r4,-4(fp)
    return CMOS_SENSOR_OUTPUT_GENERATOR_RD_CONFIG_FRAME_LINE_BLANK(dev->base);
   2082c:	e0bfff17 	ldw	r2,-4(fp)
   20830:	10800017 	ldw	r2,0(r2)
   20834:	10800304 	addi	r2,r2,12
   20838:	10800037 	ldwio	r2,0(r2)
}
   2083c:	e037883a 	mov	sp,fp
   20840:	df000017 	ldw	fp,0(sp)
   20844:	dec00104 	addi	sp,sp,4
   20848:	f800283a 	ret

0002084c <read_line_line_blank_reg>:
/*
 * read_line_line_blank_reg
 *
 * Reads and returns the contents of the CONFIG_LINE_LINE_BLANK register
 */
static uint32_t read_line_line_blank_reg(cmos_sensor_output_generator_dev *dev) {
   2084c:	defffe04 	addi	sp,sp,-8
   20850:	df000115 	stw	fp,4(sp)
   20854:	df000104 	addi	fp,sp,4
   20858:	e13fff15 	stw	r4,-4(fp)
    return CMOS_SENSOR_OUTPUT_GENERATOR_RD_CONFIG_LINE_LINE_BLANK(dev->base);
   2085c:	e0bfff17 	ldw	r2,-4(fp)
   20860:	10800017 	ldw	r2,0(r2)
   20864:	10800404 	addi	r2,r2,16
   20868:	10800037 	ldwio	r2,0(r2)
}
   2086c:	e037883a 	mov	sp,fp
   20870:	df000017 	ldw	fp,0(sp)
   20874:	dec00104 	addi	sp,sp,4
   20878:	f800283a 	ret

0002087c <read_line_frame_blank_reg>:
/*
 * read_line_frame_blank_reg
 *
 * Reads and returns the contents of the CONFIG_LINE_FRAME_BLANK register
 */
static uint32_t read_line_frame_blank_reg(cmos_sensor_output_generator_dev *dev) {
   2087c:	defffe04 	addi	sp,sp,-8
   20880:	df000115 	stw	fp,4(sp)
   20884:	df000104 	addi	fp,sp,4
   20888:	e13fff15 	stw	r4,-4(fp)
    return CMOS_SENSOR_OUTPUT_GENERATOR_RD_CONFIG_LINE_FRAME_BLANK(dev->base);
   2088c:	e0bfff17 	ldw	r2,-4(fp)
   20890:	10800017 	ldw	r2,0(r2)
   20894:	10800504 	addi	r2,r2,20
   20898:	10800037 	ldwio	r2,0(r2)
}
   2089c:	e037883a 	mov	sp,fp
   208a0:	df000017 	ldw	fp,0(sp)
   208a4:	dec00104 	addi	sp,sp,4
   208a8:	f800283a 	ret

000208ac <is_idle>:
/*
 * is_idle
 *
 * Returns true if the controller is idle, and false otherwise.
 */
static bool is_idle(cmos_sensor_output_generator_dev *dev) {
   208ac:	defffe04 	addi	sp,sp,-8
   208b0:	df000115 	stw	fp,4(sp)
   208b4:	df000104 	addi	fp,sp,4
   208b8:	e13fff15 	stw	r4,-4(fp)
    return CMOS_SENSOR_OUTPUT_GENERATOR_RD_STATUS(dev->base) == CMOS_SENSOR_OUTPUT_GENERATOR_STATUS_IDLE;
   208bc:	e0bfff17 	ldw	r2,-4(fp)
   208c0:	10800017 	ldw	r2,0(r2)
   208c4:	10800704 	addi	r2,r2,28
   208c8:	10800037 	ldwio	r2,0(r2)
   208cc:	10800060 	cmpeqi	r2,r2,1
}
   208d0:	e037883a 	mov	sp,fp
   208d4:	df000017 	ldw	fp,0(sp)
   208d8:	dec00104 	addi	sp,sp,4
   208dc:	f800283a 	ret

000208e0 <cmos_sensor_output_generator_inst>:
/*
 * cmos_sensor_output_generator_inst
 *
 * Constructs a device structure.
 */
cmos_sensor_output_generator_dev cmos_sensor_output_generator_inst(void *base, uint8_t pix_depth, uint32_t max_width, uint32_t max_height) {
   208e0:	defff704 	addi	sp,sp,-36
   208e4:	df000815 	stw	fp,32(sp)
   208e8:	df000804 	addi	fp,sp,32
   208ec:	e13ffc15 	stw	r4,-16(fp)
   208f0:	e17ffd15 	stw	r5,-12(fp)
   208f4:	3005883a 	mov	r2,r6
   208f8:	e1ffff15 	stw	r7,-4(fp)
   208fc:	e0bffe05 	stb	r2,-8(fp)
    cmos_sensor_output_generator_dev dev;

    dev.base = base;
   20900:	e0bffd17 	ldw	r2,-12(fp)
   20904:	e0bff815 	stw	r2,-32(fp)
    dev.pix_depth = pix_depth;
   20908:	e0bffe03 	ldbu	r2,-8(fp)
   2090c:	e0bff905 	stb	r2,-28(fp)
    dev.max_width = max_width;
   20910:	e0bfff17 	ldw	r2,-4(fp)
   20914:	e0bffa15 	stw	r2,-24(fp)
    dev.max_height = max_height;
   20918:	e0800117 	ldw	r2,4(fp)
   2091c:	e0bffb15 	stw	r2,-20(fp)

    return dev;
   20920:	e0bffc17 	ldw	r2,-16(fp)
   20924:	e0fff817 	ldw	r3,-32(fp)
   20928:	10c00015 	stw	r3,0(r2)
   2092c:	e0fff917 	ldw	r3,-28(fp)
   20930:	10c00115 	stw	r3,4(r2)
   20934:	e0fffa17 	ldw	r3,-24(fp)
   20938:	10c00215 	stw	r3,8(r2)
   2093c:	e0fffb17 	ldw	r3,-20(fp)
   20940:	10c00315 	stw	r3,12(r2)
}
   20944:	e0bffc17 	ldw	r2,-16(fp)
   20948:	e037883a 	mov	sp,fp
   2094c:	df000017 	ldw	fp,0(sp)
   20950:	dec00104 	addi	sp,sp,4
   20954:	f800283a 	ret

00020958 <cmos_sensor_output_generator_init>:
 * Initializes the CMOS Sensor Output Generator controller.
 *
 * This routine sets the values of all registers to the minimums defined in
 * cmos_sensor_output_generator_regs.h.
 */
void cmos_sensor_output_generator_init(cmos_sensor_output_generator_dev *dev) {
   20958:	defffd04 	addi	sp,sp,-12
   2095c:	dfc00215 	stw	ra,8(sp)
   20960:	df000115 	stw	fp,4(sp)
   20964:	df000104 	addi	fp,sp,4
   20968:	e13fff15 	stw	r4,-4(fp)
    cmos_sensor_output_generator_stop(dev);
   2096c:	e13fff17 	ldw	r4,-4(fp)
   20970:	0020b140 	call	20b14 <cmos_sensor_output_generator_stop>

    write_frame_width_reg(dev, CMOS_SENSOR_OUTPUT_GENERATOR_CONFIG_FRAME_WIDTH_MIN);
   20974:	014000c4 	movi	r5,3
   20978:	e13fff17 	ldw	r4,-4(fp)
   2097c:	00202cc0 	call	202cc <write_frame_width_reg>
    write_frame_height_reg(dev, CMOS_SENSOR_OUTPUT_GENERATOR_CONFIG_FRAME_HEIGHT_MIN);
   20980:	014000c4 	movi	r5,3
   20984:	e13fff17 	ldw	r4,-4(fp)
   20988:	00203940 	call	20394 <write_frame_height_reg>
    write_frame_frame_blank_reg(dev, CMOS_SENSOR_OUTPUT_GENERATOR_CONFIG_FRAME_FRAME_BLANK_MIN);
   2098c:	014000c4 	movi	r5,3
   20990:	e13fff17 	ldw	r4,-4(fp)
   20994:	00204600 	call	20460 <write_frame_frame_blank_reg>
    write_frame_line_blank_reg(dev, CMOS_SENSOR_OUTPUT_GENERATOR_CONFIG_FRAME_LINE_BLANK_MIN);
   20998:	014000c4 	movi	r5,3
   2099c:	e13fff17 	ldw	r4,-4(fp)
   209a0:	002052c0 	call	2052c <write_frame_line_blank_reg>
    write_line_line_blank_reg(dev, CMOS_SENSOR_OUTPUT_GENERATOR_CONFIG_LINE_LINE_BLANK_MIN);
   209a4:	014000c4 	movi	r5,3
   209a8:	e13fff17 	ldw	r4,-4(fp)
   209ac:	00205f80 	call	205f8 <write_line_line_blank_reg>
    write_line_frame_blank_reg(dev, CMOS_SENSOR_OUTPUT_GENERATOR_CONFIG_LINE_FRAME_BLANK_MIN);
   209b0:	014000c4 	movi	r5,3
   209b4:	e13fff17 	ldw	r4,-4(fp)
   209b8:	00206c40 	call	206c4 <write_line_frame_blank_reg>
}
   209bc:	0001883a 	nop
   209c0:	e037883a 	mov	sp,fp
   209c4:	dfc00117 	ldw	ra,4(sp)
   209c8:	df000017 	ldw	fp,0(sp)
   209cc:	dec00204 	addi	sp,sp,8
   209d0:	f800283a 	ret

000209d4 <cmos_sensor_output_generator_configure>:
 *
 * Configure the generator.
 *
 * Returns true if successful (values within bounds), and false otherwise.
 */
bool cmos_sensor_output_generator_configure(cmos_sensor_output_generator_dev *dev, uint32_t frame_width, uint32_t frame_height, uint32_t frame_frame_blank, uint32_t frame_line_blank, uint32_t line_line_blank, uint32_t line_frame_blank) {
   209d4:	defff904 	addi	sp,sp,-28
   209d8:	dfc00615 	stw	ra,24(sp)
   209dc:	df000515 	stw	fp,20(sp)
   209e0:	df000504 	addi	fp,sp,20
   209e4:	e13ffc15 	stw	r4,-16(fp)
   209e8:	e17ffd15 	stw	r5,-12(fp)
   209ec:	e1bffe15 	stw	r6,-8(fp)
   209f0:	e1ffff15 	stw	r7,-4(fp)
    bool success = true;
   209f4:	00800044 	movi	r2,1
   209f8:	e0bffb05 	stb	r2,-20(fp)

    cmos_sensor_output_generator_stop(dev);
   209fc:	e13ffc17 	ldw	r4,-16(fp)
   20a00:	0020b140 	call	20b14 <cmos_sensor_output_generator_stop>

    success &= write_frame_width_reg(dev, frame_width);
   20a04:	e17ffd17 	ldw	r5,-12(fp)
   20a08:	e13ffc17 	ldw	r4,-16(fp)
   20a0c:	00202cc0 	call	202cc <write_frame_width_reg>
   20a10:	e0fffb03 	ldbu	r3,-20(fp)
   20a14:	10803fcc 	andi	r2,r2,255
   20a18:	1884703a 	and	r2,r3,r2
   20a1c:	1004c03a 	cmpne	r2,r2,zero
   20a20:	e0bffb05 	stb	r2,-20(fp)
    success &= write_frame_height_reg(dev, frame_height);
   20a24:	e17ffe17 	ldw	r5,-8(fp)
   20a28:	e13ffc17 	ldw	r4,-16(fp)
   20a2c:	00203940 	call	20394 <write_frame_height_reg>
   20a30:	e0fffb03 	ldbu	r3,-20(fp)
   20a34:	10803fcc 	andi	r2,r2,255
   20a38:	1884703a 	and	r2,r3,r2
   20a3c:	1004c03a 	cmpne	r2,r2,zero
   20a40:	e0bffb05 	stb	r2,-20(fp)
    success &= write_frame_frame_blank_reg(dev, frame_frame_blank);
   20a44:	e17fff17 	ldw	r5,-4(fp)
   20a48:	e13ffc17 	ldw	r4,-16(fp)
   20a4c:	00204600 	call	20460 <write_frame_frame_blank_reg>
   20a50:	e0fffb03 	ldbu	r3,-20(fp)
   20a54:	10803fcc 	andi	r2,r2,255
   20a58:	1884703a 	and	r2,r3,r2
   20a5c:	1004c03a 	cmpne	r2,r2,zero
   20a60:	e0bffb05 	stb	r2,-20(fp)
    success &= write_frame_line_blank_reg(dev, frame_line_blank);
   20a64:	e1400217 	ldw	r5,8(fp)
   20a68:	e13ffc17 	ldw	r4,-16(fp)
   20a6c:	002052c0 	call	2052c <write_frame_line_blank_reg>
   20a70:	e0fffb03 	ldbu	r3,-20(fp)
   20a74:	10803fcc 	andi	r2,r2,255
   20a78:	1884703a 	and	r2,r3,r2
   20a7c:	1004c03a 	cmpne	r2,r2,zero
   20a80:	e0bffb05 	stb	r2,-20(fp)
    success &= write_line_line_blank_reg(dev, line_line_blank);
   20a84:	e1400317 	ldw	r5,12(fp)
   20a88:	e13ffc17 	ldw	r4,-16(fp)
   20a8c:	00205f80 	call	205f8 <write_line_line_blank_reg>
   20a90:	e0fffb03 	ldbu	r3,-20(fp)
   20a94:	10803fcc 	andi	r2,r2,255
   20a98:	1884703a 	and	r2,r3,r2
   20a9c:	1004c03a 	cmpne	r2,r2,zero
   20aa0:	e0bffb05 	stb	r2,-20(fp)
    success &= write_line_frame_blank_reg(dev, line_frame_blank);
   20aa4:	e1400417 	ldw	r5,16(fp)
   20aa8:	e13ffc17 	ldw	r4,-16(fp)
   20aac:	00206c40 	call	206c4 <write_line_frame_blank_reg>
   20ab0:	e0fffb03 	ldbu	r3,-20(fp)
   20ab4:	10803fcc 	andi	r2,r2,255
   20ab8:	1884703a 	and	r2,r3,r2
   20abc:	1004c03a 	cmpne	r2,r2,zero
   20ac0:	e0bffb05 	stb	r2,-20(fp)

    return success;
   20ac4:	e0bffb03 	ldbu	r2,-20(fp)
}
   20ac8:	e037883a 	mov	sp,fp
   20acc:	dfc00117 	ldw	ra,4(sp)
   20ad0:	df000017 	ldw	fp,0(sp)
   20ad4:	dec00204 	addi	sp,sp,8
   20ad8:	f800283a 	ret

00020adc <cmos_sensor_output_generator_start>:
 * Starts the generator.
 *
 * You must previously configure the controller by calling
 * cmos_sensor_output_generator_configure() before calling this function.
 */
void cmos_sensor_output_generator_start(cmos_sensor_output_generator_dev *dev) {
   20adc:	defffe04 	addi	sp,sp,-8
   20ae0:	df000115 	stw	fp,4(sp)
   20ae4:	df000104 	addi	fp,sp,4
   20ae8:	e13fff15 	stw	r4,-4(fp)
    CMOS_SENSOR_OUTPUT_GENERATOR_WR_COMMAND(dev->base, CMOS_SENSOR_OUTPUT_GENERATOR_COMMAND_START);
   20aec:	e0bfff17 	ldw	r2,-4(fp)
   20af0:	10800017 	ldw	r2,0(r2)
   20af4:	10800604 	addi	r2,r2,24
   20af8:	00c00044 	movi	r3,1
   20afc:	10c00035 	stwio	r3,0(r2)
}
   20b00:	0001883a 	nop
   20b04:	e037883a 	mov	sp,fp
   20b08:	df000017 	ldw	fp,0(sp)
   20b0c:	dec00104 	addi	sp,sp,4
   20b10:	f800283a 	ret

00020b14 <cmos_sensor_output_generator_stop>:
/*
 * cmos_sensor_output_generator_stop
 *
 * Stops the generator.
 */
void cmos_sensor_output_generator_stop(cmos_sensor_output_generator_dev *dev) {
   20b14:	defffe04 	addi	sp,sp,-8
   20b18:	df000115 	stw	fp,4(sp)
   20b1c:	df000104 	addi	fp,sp,4
   20b20:	e13fff15 	stw	r4,-4(fp)
    CMOS_SENSOR_OUTPUT_GENERATOR_WR_COMMAND(dev->base, CMOS_SENSOR_OUTPUT_GENERATOR_COMMAND_STOP);
   20b24:	e0bfff17 	ldw	r2,-4(fp)
   20b28:	10800017 	ldw	r2,0(r2)
   20b2c:	10800604 	addi	r2,r2,24
   20b30:	0007883a 	mov	r3,zero
   20b34:	10c00035 	stwio	r3,0(r2)
}
   20b38:	0001883a 	nop
   20b3c:	e037883a 	mov	sp,fp
   20b40:	df000017 	ldw	fp,0(sp)
   20b44:	dec00104 	addi	sp,sp,4
   20b48:	f800283a 	ret

00020b4c <Camera_Acquisition_Module_SETUP_Address_Memory>:
#define CAMERA_MODULE_REGISTER_STOP            (3 * 4) /* RW */
#define CAMERA_MODULE_REGISTER_SNAPSHOT             (4 * 4) /* RW */
#define CAMERA_MODULE_REGISTER_FLAG            (5 * 4) /* RW */

int Camera_Acquisition_Module_SETUP_Address_Memory(int Address)
{
   20b4c:	defffd04 	addi	sp,sp,-12
   20b50:	df000215 	stw	fp,8(sp)
   20b54:	df000204 	addi	fp,sp,8
   20b58:	e13fff15 	stw	r4,-4(fp)
	IOWR_32DIRECT(CAMERA_COMPONENT_0_BASE, CAMERA_MODULE_REGISTER_ADDRESS, Address);
   20b5c:	00800804 	movi	r2,32
   20b60:	e0ffff17 	ldw	r3,-4(fp)
   20b64:	10c00035 	stwio	r3,0(r2)
	for (int i=0;i<10;i++);
   20b68:	e03ffe15 	stw	zero,-8(fp)
   20b6c:	00000306 	br	20b7c <Camera_Acquisition_Module_SETUP_Address_Memory+0x30>
   20b70:	e0bffe17 	ldw	r2,-8(fp)
   20b74:	10800044 	addi	r2,r2,1
   20b78:	e0bffe15 	stw	r2,-8(fp)
   20b7c:	e0bffe17 	ldw	r2,-8(fp)
   20b80:	10800290 	cmplti	r2,r2,10
   20b84:	103ffa1e 	bne	r2,zero,20b70 <__alt_mem_sdram_controller_0+0xc0020b70>
	return IORD_32DIRECT(CAMERA_COMPONENT_0_BASE,CAMERA_MODULE_REGISTER_ADDRESS);
   20b88:	00800804 	movi	r2,32
   20b8c:	10800037 	ldwio	r2,0(r2)
}
   20b90:	e037883a 	mov	sp,fp
   20b94:	df000017 	ldw	fp,0(sp)
   20b98:	dec00104 	addi	sp,sp,4
   20b9c:	f800283a 	ret

00020ba0 <Camera_Acquisition_Module_SETUP_Length_Frame>:
// Length : Number of pixel to store. reminder : 1 Memory slot =2 pixels and 1 memory slot = 4 bytes
int Camera_Acquisition_Module_SETUP_Length_Frame(int Pixel_Number)
{
   20ba0:	defffd04 	addi	sp,sp,-12
   20ba4:	df000215 	stw	fp,8(sp)
   20ba8:	df000204 	addi	fp,sp,8
   20bac:	e13fff15 	stw	r4,-4(fp)
	IOWR_32DIRECT(CAMERA_COMPONENT_0_BASE, CAMERA_MODULE_REGISTER_LENGTH, Pixel_Number/2*4);//*4 because 32bits;
   20bb0:	e0bfff17 	ldw	r2,-4(fp)
   20bb4:	1006d7fa 	srli	r3,r2,31
   20bb8:	1885883a 	add	r2,r3,r2
   20bbc:	1005d07a 	srai	r2,r2,1
   20bc0:	1085883a 	add	r2,r2,r2
   20bc4:	1085883a 	add	r2,r2,r2
   20bc8:	1007883a 	mov	r3,r2
   20bcc:	00800904 	movi	r2,36
   20bd0:	10c00035 	stwio	r3,0(r2)
	for (int i=0;i<10;i++);
   20bd4:	e03ffe15 	stw	zero,-8(fp)
   20bd8:	00000306 	br	20be8 <Camera_Acquisition_Module_SETUP_Length_Frame+0x48>
   20bdc:	e0bffe17 	ldw	r2,-8(fp)
   20be0:	10800044 	addi	r2,r2,1
   20be4:	e0bffe15 	stw	r2,-8(fp)
   20be8:	e0bffe17 	ldw	r2,-8(fp)
   20bec:	10800290 	cmplti	r2,r2,10
   20bf0:	103ffa1e 	bne	r2,zero,20bdc <__alt_mem_sdram_controller_0+0xc0020bdc>
	return IORD_32DIRECT(CAMERA_COMPONENT_0_BASE,CAMERA_MODULE_REGISTER_LENGTH);
   20bf4:	00800904 	movi	r2,36
   20bf8:	10800037 	ldwio	r2,0(r2)
}
   20bfc:	e037883a 	mov	sp,fp
   20c00:	df000017 	ldw	fp,0(sp)
   20c04:	dec00104 	addi	sp,sp,4
   20c08:	f800283a 	ret

00020c0c <Camera_Acquisition_Module_Start>:
int Camera_Acquisition_Module_Start()
{
   20c0c:	defffe04 	addi	sp,sp,-8
   20c10:	df000115 	stw	fp,4(sp)
   20c14:	df000104 	addi	fp,sp,4
	IOWR_32DIRECT(CAMERA_COMPONENT_0_BASE, CAMERA_MODULE_REGISTER_START, 1);//*4 because 32bits;
   20c18:	00c00044 	movi	r3,1
   20c1c:	00800a04 	movi	r2,40
   20c20:	10c00035 	stwio	r3,0(r2)
	for (int i=0;i<10;i++);
   20c24:	e03fff15 	stw	zero,-4(fp)
   20c28:	00000306 	br	20c38 <Camera_Acquisition_Module_Start+0x2c>
   20c2c:	e0bfff17 	ldw	r2,-4(fp)
   20c30:	10800044 	addi	r2,r2,1
   20c34:	e0bfff15 	stw	r2,-4(fp)
   20c38:	e0bfff17 	ldw	r2,-4(fp)
   20c3c:	10800290 	cmplti	r2,r2,10
   20c40:	103ffa1e 	bne	r2,zero,20c2c <__alt_mem_sdram_controller_0+0xc0020c2c>
	return IORD_32DIRECT(CAMERA_COMPONENT_0_BASE,CAMERA_MODULE_REGISTER_START);
   20c44:	00800a04 	movi	r2,40
   20c48:	10800037 	ldwio	r2,0(r2)
}
   20c4c:	e037883a 	mov	sp,fp
   20c50:	df000017 	ldw	fp,0(sp)
   20c54:	dec00104 	addi	sp,sp,4
   20c58:	f800283a 	ret

00020c5c <Camera_Acquisition_Module_Stop>:
int Camera_Acquisition_Module_Stop()
{
   20c5c:	defffe04 	addi	sp,sp,-8
   20c60:	df000115 	stw	fp,4(sp)
   20c64:	df000104 	addi	fp,sp,4
	IOWR_32DIRECT(CAMERA_COMPONENT_0_BASE, CAMERA_MODULE_REGISTER_STOP, 1);//*4 because 32bits;
   20c68:	00c00044 	movi	r3,1
   20c6c:	00800b04 	movi	r2,44
   20c70:	10c00035 	stwio	r3,0(r2)
	for (int i=0;i<10;i++);
   20c74:	e03fff15 	stw	zero,-4(fp)
   20c78:	00000306 	br	20c88 <Camera_Acquisition_Module_Stop+0x2c>
   20c7c:	e0bfff17 	ldw	r2,-4(fp)
   20c80:	10800044 	addi	r2,r2,1
   20c84:	e0bfff15 	stw	r2,-4(fp)
   20c88:	e0bfff17 	ldw	r2,-4(fp)
   20c8c:	10800290 	cmplti	r2,r2,10
   20c90:	103ffa1e 	bne	r2,zero,20c7c <__alt_mem_sdram_controller_0+0xc0020c7c>
	return IORD_32DIRECT(CAMERA_COMPONENT_0_BASE,CAMERA_MODULE_REGISTER_STOP);
   20c94:	00800b04 	movi	r2,44
   20c98:	10800037 	ldwio	r2,0(r2)
}
   20c9c:	e037883a 	mov	sp,fp
   20ca0:	df000017 	ldw	fp,0(sp)
   20ca4:	dec00104 	addi	sp,sp,4
   20ca8:	f800283a 	ret

00020cac <Camera_Acquisition_Module_Display_Registers>:
void Camera_Acquisition_Module_Display_Registers()
{
   20cac:	defffe04 	addi	sp,sp,-8
   20cb0:	dfc00115 	stw	ra,4(sp)
   20cb4:	df000015 	stw	fp,0(sp)
   20cb8:	d839883a 	mov	fp,sp
	printf("CAMERA_MODULE_REGISTER_ADDRESS=0x%x\r\n",IORD_32DIRECT(CAMERA_COMPONENT_0_BASE,CAMERA_MODULE_REGISTER_ADDRESS));
   20cbc:	00800804 	movi	r2,32
   20cc0:	10800037 	ldwio	r2,0(r2)
   20cc4:	100b883a 	mov	r5,r2
   20cc8:	010000f4 	movhi	r4,3
   20ccc:	2117fc04 	addi	r4,r4,24560
   20cd0:	002475c0 	call	2475c <printf>
	printf("CAMERA_MODULE_REGISTER_LENGTH=%d\r\n",IORD_32DIRECT(CAMERA_COMPONENT_0_BASE,CAMERA_MODULE_REGISTER_LENGTH));
   20cd4:	00800904 	movi	r2,36
   20cd8:	10800037 	ldwio	r2,0(r2)
   20cdc:	100b883a 	mov	r5,r2
   20ce0:	010000f4 	movhi	r4,3
   20ce4:	21180604 	addi	r4,r4,24600
   20ce8:	002475c0 	call	2475c <printf>
	printf("CAMERA_MODULE_REGISTER_START=%d\r\n",IORD_32DIRECT(CAMERA_COMPONENT_0_BASE,CAMERA_MODULE_REGISTER_START));
   20cec:	00800a04 	movi	r2,40
   20cf0:	10800037 	ldwio	r2,0(r2)
   20cf4:	100b883a 	mov	r5,r2
   20cf8:	010000f4 	movhi	r4,3
   20cfc:	21180f04 	addi	r4,r4,24636
   20d00:	002475c0 	call	2475c <printf>
	printf("CAMERA_MODULE_REGISTER_STOP=%d\r\n",IORD_32DIRECT(CAMERA_COMPONENT_0_BASE,CAMERA_MODULE_REGISTER_STOP));
   20d04:	00800b04 	movi	r2,44
   20d08:	10800037 	ldwio	r2,0(r2)
   20d0c:	100b883a 	mov	r5,r2
   20d10:	010000f4 	movhi	r4,3
   20d14:	21181804 	addi	r4,r4,24672
   20d18:	002475c0 	call	2475c <printf>
	printf("CAMERA_MODULE_REGISTER_SNAPSHOT=%d\r\n",IORD_32DIRECT(CAMERA_COMPONENT_0_BASE,CAMERA_MODULE_REGISTER_SNAPSHOT));
   20d1c:	00800c04 	movi	r2,48
   20d20:	10800037 	ldwio	r2,0(r2)
   20d24:	100b883a 	mov	r5,r2
   20d28:	010000f4 	movhi	r4,3
   20d2c:	21182104 	addi	r4,r4,24708
   20d30:	002475c0 	call	2475c <printf>
	printf("CAMERA_MODULE_REGISTER_FLAG=%d\r\n",IORD_32DIRECT(CAMERA_COMPONENT_0_BASE,CAMERA_MODULE_REGISTER_FLAG));
   20d34:	00800d04 	movi	r2,52
   20d38:	10800037 	ldwio	r2,0(r2)
   20d3c:	100b883a 	mov	r5,r2
   20d40:	010000f4 	movhi	r4,3
   20d44:	21182b04 	addi	r4,r4,24748
   20d48:	002475c0 	call	2475c <printf>
}
   20d4c:	0001883a 	nop
   20d50:	e037883a 	mov	sp,fp
   20d54:	dfc00117 	ldw	ra,4(sp)
   20d58:	df000017 	ldw	fp,0(sp)
   20d5c:	dec00204 	addi	sp,sp,8
   20d60:	f800283a 	ret

00020d64 <Test_Camera_Memory>:
	    printf("CMOS_SENSOR_OUTPUT_GENERATOR_STATUS=%d\r\n",IORD_32DIRECT(CMOS_SENSOR_OUTPUT_GENERATOR_0_BASE,CMOS_SENSOR_OUTPUT_GENERATOR_STATUS_OFST));
 }

#endif
 void Test_Camera_Memory()
 {
   20d64:	defffe04 	addi	sp,sp,-8
   20d68:	dfc00115 	stw	ra,4(sp)
   20d6c:	df000015 	stw	fp,0(sp)
   20d70:	d839883a 	mov	fp,sp
 	Camera_Acquisition_Module_Stop();
   20d74:	0020c5c0 	call	20c5c <Camera_Acquisition_Module_Stop>
 	delay(5000);
   20d78:	0104e204 	movi	r4,5000
   20d7c:	0020f7c0 	call	20f7c <delay>
 	Camera_Acquisition_Module_SETUP_Address_Memory(SDRAM_CONTROLLER_0_BASE);//Address of the HPC, 256 MB Available from it
   20d80:	01100034 	movhi	r4,16384
   20d84:	0020b4c0 	call	20b4c <Camera_Acquisition_Module_SETUP_Address_Memory>
 	Camera_Acquisition_Module_SETUP_Length_Frame(76800);//320*240
   20d88:	01000074 	movhi	r4,1
   20d8c:	210b0004 	addi	r4,r4,11264
   20d90:	0020ba00 	call	20ba0 <Camera_Acquisition_Module_SETUP_Length_Frame>
 	Camera_Acquisition_Module_Start();//Set a one in the start register
   20d94:	0020c0c0 	call	20c0c <Camera_Acquisition_Module_Start>
 			Capture_Image_Computer(HPS_0_BRIDGES_BASE,1);
 			Capture_Image_Computer(HPS_0_BRIDGES_BASE,0);
 		#endif


 }
   20d98:	0001883a 	nop
   20d9c:	e037883a 	mov	sp,fp
   20da0:	dfc00117 	ldw	ra,4(sp)
   20da4:	df000017 	ldw	fp,0(sp)
   20da8:	dec00204 	addi	sp,sp,8
   20dac:	f800283a 	ret

00020db0 <Capture_Image_Computer>:
 void Capture_Image_Computer(int Address, int Frame)
 {
   20db0:	deffda04 	addi	sp,sp,-152
   20db4:	dfc02515 	stw	ra,148(sp)
   20db8:	df002415 	stw	fp,144(sp)
   20dbc:	df002404 	addi	fp,sp,144
   20dc0:	e13ffe15 	stw	r4,-8(fp)
   20dc4:	e17fff15 	stw	r5,-4(fp)
 	char filename[80];
 	sprintf(filename, "/mnt/host/image%d.ppm",Frame);
   20dc8:	e0bfe404 	addi	r2,fp,-112
   20dcc:	e1bfff17 	ldw	r6,-4(fp)
   20dd0:	014000f4 	movhi	r5,3
   20dd4:	29583404 	addi	r5,r5,24784
   20dd8:	1009883a 	mov	r4,r2
   20ddc:	0024b840 	call	24b84 <sprintf>
 		FILE *foutput = fopen(filename, "w");
   20de0:	e0bfe404 	addi	r2,fp,-112
   20de4:	014000f4 	movhi	r5,3
   20de8:	29583a04 	addi	r5,r5,24808
   20dec:	1009883a 	mov	r4,r2
   20df0:	0022fe00 	call	22fe0 <fopen>
   20df4:	e0bfe215 	stw	r2,-120(fp)
 		if (foutput) {
   20df8:	e0bfe217 	ldw	r2,-120(fp)
   20dfc:	10005426 	beq	r2,zero,20f50 <Capture_Image_Computer+0x1a0>
 			/* Use fprintf function to write to file through file pointer */
 			fprintf(foutput, "P3\n320 240\n32\n");
   20e00:	e1ffe217 	ldw	r7,-120(fp)
   20e04:	01800384 	movi	r6,14
   20e08:	01400044 	movi	r5,1
   20e0c:	010000f4 	movhi	r4,3
   20e10:	21183b04 	addi	r4,r4,24812
   20e14:	0023ba80 	call	23ba8 <fwrite>
 			printf("Good: open \"%s\" for writing\n", filename);
   20e18:	e0bfe404 	addi	r2,fp,-112
   20e1c:	100b883a 	mov	r5,r2
   20e20:	010000f4 	movhi	r4,3
   20e24:	21183f04 	addi	r4,r4,24828
   20e28:	002475c0 	call	2475c <printf>
 			//
 			delay(5000000);
   20e2c:	01001334 	movhi	r4,76
   20e30:	2112d004 	addi	r4,r4,19264
   20e34:	0020f7c0 	call	20f7c <delay>
 			int Pixels[6];

 			for (int i=0;i<240;i++)
   20e38:	e03fe015 	stw	zero,-128(fp)
   20e3c:	00003e06 	br	20f38 <Capture_Image_Computer+0x188>
 			{
 				for(int j=0;j<160;j++)
   20e40:	e03fe115 	stw	zero,-124(fp)
   20e44:	00002406 	br	20ed8 <Capture_Image_Computer+0x128>
 				{
 					int32_t Data_Memory_Case=IORD_32DIRECT(Address, i*160*4+j*4+160*240*4*Frame);
   20e48:	e0bfe017 	ldw	r2,-128(fp)
   20e4c:	10c02824 	muli	r3,r2,160
   20e50:	e0bfe117 	ldw	r2,-124(fp)
   20e54:	1887883a 	add	r3,r3,r2
   20e58:	e13fff17 	ldw	r4,-4(fp)
   20e5c:	00a58014 	movui	r2,38400
   20e60:	2085383a 	mul	r2,r4,r2
   20e64:	1885883a 	add	r2,r3,r2
   20e68:	1085883a 	add	r2,r2,r2
   20e6c:	1085883a 	add	r2,r2,r2
   20e70:	1007883a 	mov	r3,r2
   20e74:	e0bffe17 	ldw	r2,-8(fp)
   20e78:	1885883a 	add	r2,r3,r2
   20e7c:	10800037 	ldwio	r2,0(r2)
   20e80:	e0bfe315 	stw	r2,-116(fp)
 					Convert_Pixels(Data_Memory_Case,Pixels);
   20e84:	e0bff804 	addi	r2,fp,-32
   20e88:	100b883a 	mov	r5,r2
   20e8c:	e13fe317 	ldw	r4,-116(fp)
   20e90:	0020fc00 	call	20fc0 <Convert_Pixels>
 					//printf( "%3d %3d %3d %3d %3d %3d ",Pixels[0,Pixels[1],Pixels[2],Pixels[3],Pixels[4],Pixels[5]);

 					fprintf(foutput, "%3d %3d %3d %3d %3d %3d ",Pixels[0],Pixels[1],Pixels[2],Pixels[3],Pixels[4],Pixels[5]);
   20e94:	e1bff817 	ldw	r6,-32(fp)
   20e98:	e1fff917 	ldw	r7,-28(fp)
   20e9c:	e0bffa17 	ldw	r2,-24(fp)
   20ea0:	e0fffb17 	ldw	r3,-20(fp)
   20ea4:	e13ffc17 	ldw	r4,-16(fp)
   20ea8:	e17ffd17 	ldw	r5,-12(fp)
   20eac:	d9400315 	stw	r5,12(sp)
   20eb0:	d9000215 	stw	r4,8(sp)
   20eb4:	d8c00115 	stw	r3,4(sp)
   20eb8:	d8800015 	stw	r2,0(sp)
   20ebc:	014000f4 	movhi	r5,3
   20ec0:	29584704 	addi	r5,r5,24860
   20ec4:	e13fe217 	ldw	r4,-120(fp)
   20ec8:	00230200 	call	23020 <fprintf>
 			delay(5000000);
 			int Pixels[6];

 			for (int i=0;i<240;i++)
 			{
 				for(int j=0;j<160;j++)
   20ecc:	e0bfe117 	ldw	r2,-124(fp)
   20ed0:	10800044 	addi	r2,r2,1
   20ed4:	e0bfe115 	stw	r2,-124(fp)
   20ed8:	e0bfe117 	ldw	r2,-124(fp)
   20edc:	10802810 	cmplti	r2,r2,160
   20ee0:	103fd91e 	bne	r2,zero,20e48 <__alt_mem_sdram_controller_0+0xc0020e48>

 					fprintf(foutput, "%3d %3d %3d %3d %3d %3d ",Pixels[0],Pixels[1],Pixels[2],Pixels[3],Pixels[4],Pixels[5]);

 				}
 				//printf( "\n");
 				printf( "%3d %3d %3d %3d %3d %3d ",Pixels[0],Pixels[1],Pixels[2],Pixels[3],Pixels[4],Pixels[5]);
   20ee4:	e17ff817 	ldw	r5,-32(fp)
   20ee8:	e1bff917 	ldw	r6,-28(fp)
   20eec:	e1fffa17 	ldw	r7,-24(fp)
   20ef0:	e0bffb17 	ldw	r2,-20(fp)
   20ef4:	e0fffc17 	ldw	r3,-16(fp)
   20ef8:	e13ffd17 	ldw	r4,-12(fp)
   20efc:	d9000215 	stw	r4,8(sp)
   20f00:	d8c00115 	stw	r3,4(sp)
   20f04:	d8800015 	stw	r2,0(sp)
   20f08:	010000f4 	movhi	r4,3
   20f0c:	21184704 	addi	r4,r4,24860
   20f10:	002475c0 	call	2475c <printf>

 				fprintf(foutput, "\r\n");
   20f14:	e1ffe217 	ldw	r7,-120(fp)
   20f18:	01800084 	movi	r6,2
   20f1c:	01400044 	movi	r5,1
   20f20:	010000f4 	movhi	r4,3
   20f24:	21184e04 	addi	r4,r4,24888
   20f28:	0023ba80 	call	23ba8 <fwrite>
 			printf("Good: open \"%s\" for writing\n", filename);
 			//
 			delay(5000000);
 			int Pixels[6];

 			for (int i=0;i<240;i++)
   20f2c:	e0bfe017 	ldw	r2,-128(fp)
   20f30:	10800044 	addi	r2,r2,1
   20f34:	e0bfe015 	stw	r2,-128(fp)
   20f38:	e0bfe017 	ldw	r2,-128(fp)
   20f3c:	10803c10 	cmplti	r2,r2,240
   20f40:	103fbf1e 	bne	r2,zero,20e40 <__alt_mem_sdram_controller_0+0xc0020e40>
 				printf( "%3d %3d %3d %3d %3d %3d ",Pixels[0],Pixels[1],Pixels[2],Pixels[3],Pixels[4],Pixels[5]);

 				fprintf(foutput, "\r\n");

 			}
 			fclose(foutput);
   20f44:	e13fe217 	ldw	r4,-120(fp)
   20f48:	00228340 	call	22834 <fclose>
 		else
 		{
 			printf("Error: could not open \"%s\" for writing\n", filename);

 		}
 }
   20f4c:	00000506 	br	20f64 <Capture_Image_Computer+0x1b4>
 			}
 			fclose(foutput);
 		}
 		else
 		{
 			printf("Error: could not open \"%s\" for writing\n", filename);
   20f50:	e0bfe404 	addi	r2,fp,-112
   20f54:	100b883a 	mov	r5,r2
   20f58:	010000f4 	movhi	r4,3
   20f5c:	21184f04 	addi	r4,r4,24892
   20f60:	002475c0 	call	2475c <printf>

 		}
 }
   20f64:	0001883a 	nop
   20f68:	e037883a 	mov	sp,fp
   20f6c:	dfc00117 	ldw	ra,4(sp)
   20f70:	df000017 	ldw	fp,0(sp)
   20f74:	dec00204 	addi	sp,sp,8
   20f78:	f800283a 	ret

00020f7c <delay>:

 void delay(int duration )
 {
   20f7c:	defffd04 	addi	sp,sp,-12
   20f80:	df000215 	stw	fp,8(sp)
   20f84:	df000204 	addi	fp,sp,8
   20f88:	e13fff15 	stw	r4,-4(fp)
 	int i;
 	for (i=0;i<duration;i++);
   20f8c:	e03ffe15 	stw	zero,-8(fp)
   20f90:	00000306 	br	20fa0 <delay+0x24>
   20f94:	e0bffe17 	ldw	r2,-8(fp)
   20f98:	10800044 	addi	r2,r2,1
   20f9c:	e0bffe15 	stw	r2,-8(fp)
   20fa0:	e0fffe17 	ldw	r3,-8(fp)
   20fa4:	e0bfff17 	ldw	r2,-4(fp)
   20fa8:	18bffa16 	blt	r3,r2,20f94 <__alt_mem_sdram_controller_0+0xc0020f94>
 }
   20fac:	0001883a 	nop
   20fb0:	e037883a 	mov	sp,fp
   20fb4:	df000017 	ldw	fp,0(sp)
   20fb8:	dec00104 	addi	sp,sp,4
   20fbc:	f800283a 	ret

00020fc0 <Convert_Pixels>:
 void Convert_Pixels(int32_t Data,int* Storage)
 {
   20fc0:	defffc04 	addi	sp,sp,-16
   20fc4:	dfc00315 	stw	ra,12(sp)
   20fc8:	df000215 	stw	fp,8(sp)
   20fcc:	df000204 	addi	fp,sp,8
   20fd0:	e13ffe15 	stw	r4,-8(fp)
   20fd4:	e17fff15 	stw	r5,-4(fp)
 	Extract_Colors(Data&0xFFFF,Storage);
   20fd8:	e0bffe17 	ldw	r2,-8(fp)
   20fdc:	10bfffcc 	andi	r2,r2,65535
   20fe0:	10a0001c 	xori	r2,r2,32768
   20fe4:	10a00004 	addi	r2,r2,-32768
   20fe8:	e17fff17 	ldw	r5,-4(fp)
   20fec:	1009883a 	mov	r4,r2
   20ff0:	00210340 	call	21034 <Extract_Colors>
 	Extract_Colors((Data&0xFFFF0000)>>16,Storage+3);
   20ff4:	e0bffe17 	ldw	r2,-8(fp)
   20ff8:	1004d43a 	srli	r2,r2,16
   20ffc:	10ffffcc 	andi	r3,r2,65535
   21000:	18e0001c 	xori	r3,r3,32768
   21004:	18e00004 	addi	r3,r3,-32768
   21008:	e0bfff17 	ldw	r2,-4(fp)
   2100c:	10800304 	addi	r2,r2,12
   21010:	100b883a 	mov	r5,r2
   21014:	1809883a 	mov	r4,r3
   21018:	00210340 	call	21034 <Extract_Colors>

 }
   2101c:	0001883a 	nop
   21020:	e037883a 	mov	sp,fp
   21024:	dfc00117 	ldw	ra,4(sp)
   21028:	df000017 	ldw	fp,0(sp)
   2102c:	dec00204 	addi	sp,sp,8
   21030:	f800283a 	ret

00021034 <Extract_Colors>:
 void Extract_Colors(int16_t Data,int* Storage)
 {
   21034:	defff904 	addi	sp,sp,-28
   21038:	df000615 	stw	fp,24(sp)
   2103c:	df000604 	addi	fp,sp,24
   21040:	2005883a 	mov	r2,r4
   21044:	e17fff15 	stw	r5,-4(fp)
   21048:	e0bffe0d 	sth	r2,-8(fp)
 	int Red=0, Blue=0, Green=0;
   2104c:	e03ffa15 	stw	zero,-24(fp)
   21050:	e03ffb15 	stw	zero,-20(fp)
   21054:	e03ffc15 	stw	zero,-16(fp)
 	Red=(Data & 0xF800)>>11;
   21058:	e0bffe0f 	ldh	r2,-8(fp)
   2105c:	10be000c 	andi	r2,r2,63488
   21060:	1005d2fa 	srai	r2,r2,11
   21064:	e0bffa15 	stw	r2,-24(fp)
 	Blue=(Data & 0x001F);
   21068:	e0bffe0b 	ldhu	r2,-8(fp)
   2106c:	10bfffcc 	andi	r2,r2,65535
   21070:	108007cc 	andi	r2,r2,31
   21074:	e0bffb15 	stw	r2,-20(fp)
 	Green=(Data & 0x07E0)>>5;
   21078:	e0bffe0b 	ldhu	r2,-8(fp)
   2107c:	10bfffcc 	andi	r2,r2,65535
   21080:	1081f80c 	andi	r2,r2,2016
   21084:	1005d17a 	srai	r2,r2,5
   21088:	e0bffc15 	stw	r2,-16(fp)
 	int Color=Red;
   2108c:	e0bffa17 	ldw	r2,-24(fp)
   21090:	e0bffd15 	stw	r2,-12(fp)
 	if(Color>32)
   21094:	e0bffd17 	ldw	r2,-12(fp)
   21098:	10800850 	cmplti	r2,r2,33
   2109c:	1000041e 	bne	r2,zero,210b0 <Extract_Colors+0x7c>
 		Storage[0]=32;
   210a0:	e0bfff17 	ldw	r2,-4(fp)
   210a4:	00c00804 	movi	r3,32
   210a8:	10c00015 	stw	r3,0(r2)
   210ac:	00000306 	br	210bc <Extract_Colors+0x88>
 	else
 		Storage[0]=Color;
   210b0:	e0bfff17 	ldw	r2,-4(fp)
   210b4:	e0fffd17 	ldw	r3,-12(fp)
   210b8:	10c00015 	stw	r3,0(r2)
 	Color=Green/2;
   210bc:	e0bffc17 	ldw	r2,-16(fp)
   210c0:	1006d7fa 	srli	r3,r2,31
   210c4:	1885883a 	add	r2,r3,r2
   210c8:	1005d07a 	srai	r2,r2,1
   210cc:	e0bffd15 	stw	r2,-12(fp)
 	if(Color>32)
   210d0:	e0bffd17 	ldw	r2,-12(fp)
   210d4:	10800850 	cmplti	r2,r2,33
   210d8:	1000051e 	bne	r2,zero,210f0 <Extract_Colors+0xbc>
 		Storage[1]=32;
   210dc:	e0bfff17 	ldw	r2,-4(fp)
   210e0:	10800104 	addi	r2,r2,4
   210e4:	00c00804 	movi	r3,32
   210e8:	10c00015 	stw	r3,0(r2)
   210ec:	00000406 	br	21100 <Extract_Colors+0xcc>
 	else
 		Storage[1]=Color;
   210f0:	e0bfff17 	ldw	r2,-4(fp)
   210f4:	10800104 	addi	r2,r2,4
   210f8:	e0fffd17 	ldw	r3,-12(fp)
   210fc:	10c00015 	stw	r3,0(r2)
 	Color=Blue;
   21100:	e0bffb17 	ldw	r2,-20(fp)
   21104:	e0bffd15 	stw	r2,-12(fp)
 	if(Color>32)
   21108:	e0bffd17 	ldw	r2,-12(fp)
   2110c:	10800850 	cmplti	r2,r2,33
   21110:	1000051e 	bne	r2,zero,21128 <Extract_Colors+0xf4>
 		Storage[2]=32;
   21114:	e0bfff17 	ldw	r2,-4(fp)
   21118:	10800204 	addi	r2,r2,8
   2111c:	00c00804 	movi	r3,32
   21120:	10c00015 	stw	r3,0(r2)
 	else
 		Storage[2]=Color;
 	return ;
   21124:	00000506 	br	2113c <Extract_Colors+0x108>
 		Storage[1]=Color;
 	Color=Blue;
 	if(Color>32)
 		Storage[2]=32;
 	else
 		Storage[2]=Color;
   21128:	e0bfff17 	ldw	r2,-4(fp)
   2112c:	10800204 	addi	r2,r2,8
   21130:	e0fffd17 	ldw	r3,-12(fp)
   21134:	10c00015 	stw	r3,0(r2)
 	return ;
   21138:	0001883a 	nop
 }
   2113c:	e037883a 	mov	sp,fp
   21140:	df000017 	ldw	fp,0(sp)
   21144:	dec00104 	addi	sp,sp,4
   21148:	f800283a 	ret

0002114c <Test_Memory_Map>:
#define HPS_0_BRIDGES_SPAN 268435456 /* address_span_expander span from system.h (ADAPT TO YOUR DESIGN) */
#define HPS_0_BRIDGES_BASE 0x0
#define ONE_MB (1024 * 1024) //

int Test_Memory_Map()
{
   2114c:	defff904 	addi	sp,sp,-28
   21150:	dfc00615 	stw	ra,24(sp)
   21154:	df000515 	stw	fp,20(sp)
   21158:	df000504 	addi	fp,sp,20
		uint32_t megabyte_count = 0;
   2115c:	e03ffb15 	stw	zero,-20(fp)

	    for (uint32_t i = 0; i < HPS_0_BRIDGES_SPAN; i += sizeof(uint32_t)) {
   21160:	e03ffc15 	stw	zero,-16(fp)
   21164:	00002406 	br	211f8 <Test_Memory_Map+0xac>

	        // Print progress through 256 MB memory available through address span expander
	        if ((i % ONE_MB) == 0) {
   21168:	e0fffc17 	ldw	r3,-16(fp)
   2116c:	00800434 	movhi	r2,16
   21170:	10bfffc4 	addi	r2,r2,-1
   21174:	1884703a 	and	r2,r3,r2
   21178:	1000071e 	bne	r2,zero,21198 <Test_Memory_Map+0x4c>
	            printf("megabyte_count = %" PRIu32 "\n", megabyte_count);
   2117c:	e17ffb17 	ldw	r5,-20(fp)
   21180:	010000f4 	movhi	r4,3
   21184:	21185904 	addi	r4,r4,24932
   21188:	002475c0 	call	2475c <printf>
	            megabyte_count++;
   2118c:	e0bffb17 	ldw	r2,-20(fp)
   21190:	10800044 	addi	r2,r2,1
   21194:	e0bffb15 	stw	r2,-20(fp)
	        }

	        uint32_t addr = HPS_0_BRIDGES_BASE + i;
   21198:	e0bffc17 	ldw	r2,-16(fp)
   2119c:	e0bffd15 	stw	r2,-12(fp)

	        // Write through address span expander
	        uint32_t writedata = i;
   211a0:	e0bffc17 	ldw	r2,-16(fp)
   211a4:	e0bffe15 	stw	r2,-8(fp)
	        IOWR_32DIRECT(addr, 0, writedata);
   211a8:	e0bffd17 	ldw	r2,-12(fp)
   211ac:	e0fffe17 	ldw	r3,-8(fp)
   211b0:	10c00035 	stwio	r3,0(r2)

	        // Read through address span expander
	        uint32_t readdata = IORD_32DIRECT(addr, 0);
   211b4:	e0bffd17 	ldw	r2,-12(fp)
   211b8:	10800037 	ldwio	r2,0(r2)
   211bc:	e0bfff15 	stw	r2,-4(fp)

	        // Check if read data is equal to written data
	        assert(writedata == readdata);
   211c0:	e0fffe17 	ldw	r3,-8(fp)
   211c4:	e0bfff17 	ldw	r2,-4(fp)
   211c8:	18800826 	beq	r3,r2,211ec <Test_Memory_Map+0xa0>
   211cc:	01c000f4 	movhi	r7,3
   211d0:	39d85f04 	addi	r7,r7,24956
   211d4:	018000f4 	movhi	r6,3
   211d8:	31987a04 	addi	r6,r6,25064
   211dc:	01400784 	movi	r5,30
   211e0:	010000f4 	movhi	r4,3
   211e4:	21186504 	addi	r4,r4,24980
   211e8:	00226c80 	call	226c8 <__assert_func>

int Test_Memory_Map()
{
		uint32_t megabyte_count = 0;

	    for (uint32_t i = 0; i < HPS_0_BRIDGES_SPAN; i += sizeof(uint32_t)) {
   211ec:	e0bffc17 	ldw	r2,-16(fp)
   211f0:	10800104 	addi	r2,r2,4
   211f4:	e0bffc15 	stw	r2,-16(fp)
   211f8:	e0fffc17 	ldw	r3,-16(fp)
   211fc:	00840034 	movhi	r2,4096
   21200:	18bfd936 	bltu	r3,r2,21168 <__alt_mem_sdram_controller_0+0xc0021168>
	        uint32_t readdata = IORD_32DIRECT(addr, 0);

	        // Check if read data is equal to written data
	        assert(writedata == readdata);
	    }
	    printf("Memory PASS\n");
   21204:	010000f4 	movhi	r4,3
   21208:	21186e04 	addi	r4,r4,25016
   2120c:	00248580 	call	24858 <puts>
	    return EXIT_SUCCESS;
   21210:	0005883a 	mov	r2,zero
}
   21214:	e037883a 	mov	sp,fp
   21218:	dfc00117 	ldw	ra,4(sp)
   2121c:	df000017 	ldw	fp,0(sp)
   21220:	dec00204 	addi	sp,sp,8
   21224:	f800283a 	ret

00021228 <Quick_Test_Memory_Map>:
int Quick_Test_Memory_Map()
{
   21228:	defff804 	addi	sp,sp,-32
   2122c:	dfc00715 	stw	ra,28(sp)
   21230:	df000615 	stw	fp,24(sp)
   21234:	df000604 	addi	fp,sp,24
		uint32_t megabyte_count = 0;
   21238:	e03ffa15 	stw	zero,-24(fp)
		srand(time(NULL));
   2123c:	0009883a 	mov	r4,zero
   21240:	0026f9c0 	call	26f9c <time>
   21244:	1009883a 	mov	r4,r2
   21248:	002486c0 	call	2486c <srand>
		int r = rand()%255;//0 to 255
   2124c:	00248840 	call	24884 <rand>
   21250:	01403fc4 	movi	r5,255
   21254:	1009883a 	mov	r4,r2
   21258:	00225980 	call	22598 <__modsi3>
   2125c:	e0bffc15 	stw	r2,-16(fp)
	    for (uint32_t i = r*ONE_MB; i < (r+1)*ONE_MB; i += sizeof(uint32_t)) {
   21260:	e0bffc17 	ldw	r2,-16(fp)
   21264:	1004953a 	slli	r2,r2,20
   21268:	e0bffb15 	stw	r2,-20(fp)
   2126c:	00002406 	br	21300 <Quick_Test_Memory_Map+0xd8>

	        // Print progress through 256 MB memory available through address span expander
	        if ((i % ONE_MB) == 0) {
   21270:	e0fffb17 	ldw	r3,-20(fp)
   21274:	00800434 	movhi	r2,16
   21278:	10bfffc4 	addi	r2,r2,-1
   2127c:	1884703a 	and	r2,r3,r2
   21280:	1000071e 	bne	r2,zero,212a0 <Quick_Test_Memory_Map+0x78>
	            printf("MB tested = %d\n", r);
   21284:	e17ffc17 	ldw	r5,-16(fp)
   21288:	010000f4 	movhi	r4,3
   2128c:	21187104 	addi	r4,r4,25028
   21290:	002475c0 	call	2475c <printf>
	            megabyte_count++;
   21294:	e0bffa17 	ldw	r2,-24(fp)
   21298:	10800044 	addi	r2,r2,1
   2129c:	e0bffa15 	stw	r2,-24(fp)
	        }
	        uint32_t addr = HPS_0_BRIDGES_BASE + i;
   212a0:	e0bffb17 	ldw	r2,-20(fp)
   212a4:	e0bffd15 	stw	r2,-12(fp)

	        // Write through address span expander
	        uint32_t writedata = i;
   212a8:	e0bffb17 	ldw	r2,-20(fp)
   212ac:	e0bffe15 	stw	r2,-8(fp)
	        IOWR_32DIRECT(addr, 0, writedata);
   212b0:	e0bffd17 	ldw	r2,-12(fp)
   212b4:	e0fffe17 	ldw	r3,-8(fp)
   212b8:	10c00035 	stwio	r3,0(r2)

	        // Read through address span expander
	        uint32_t readdata = IORD_32DIRECT(addr, 0);
   212bc:	e0bffd17 	ldw	r2,-12(fp)
   212c0:	10800037 	ldwio	r2,0(r2)
   212c4:	e0bfff15 	stw	r2,-4(fp)

	        // Check if read data is equal to written data
	        assert(writedata == readdata);
   212c8:	e0fffe17 	ldw	r3,-8(fp)
   212cc:	e0bfff17 	ldw	r2,-4(fp)
   212d0:	18800826 	beq	r3,r2,212f4 <Quick_Test_Memory_Map+0xcc>
   212d4:	01c000f4 	movhi	r7,3
   212d8:	39d85f04 	addi	r7,r7,24956
   212dc:	018000f4 	movhi	r6,3
   212e0:	31987e04 	addi	r6,r6,25080
   212e4:	01400e44 	movi	r5,57
   212e8:	010000f4 	movhi	r4,3
   212ec:	21186504 	addi	r4,r4,24980
   212f0:	00226c80 	call	226c8 <__assert_func>
int Quick_Test_Memory_Map()
{
		uint32_t megabyte_count = 0;
		srand(time(NULL));
		int r = rand()%255;//0 to 255
	    for (uint32_t i = r*ONE_MB; i < (r+1)*ONE_MB; i += sizeof(uint32_t)) {
   212f4:	e0bffb17 	ldw	r2,-20(fp)
   212f8:	10800104 	addi	r2,r2,4
   212fc:	e0bffb15 	stw	r2,-20(fp)
   21300:	e0bffc17 	ldw	r2,-16(fp)
   21304:	10800044 	addi	r2,r2,1
   21308:	1004953a 	slli	r2,r2,20
   2130c:	1007883a 	mov	r3,r2
   21310:	e0bffb17 	ldw	r2,-20(fp)
   21314:	10ffd636 	bltu	r2,r3,21270 <__alt_mem_sdram_controller_0+0xc0021270>
	        uint32_t readdata = IORD_32DIRECT(addr, 0);

	        // Check if read data is equal to written data
	        assert(writedata == readdata);
	    }
	    printf("Memory Quick PASS\r\n");
   21318:	010000f4 	movhi	r4,3
   2131c:	21187504 	addi	r4,r4,25044
   21320:	00248580 	call	24858 <puts>
	    return EXIT_SUCCESS;
   21324:	0005883a 	mov	r2,zero
}
   21328:	e037883a 	mov	sp,fp
   2132c:	dfc00117 	ldw	ra,4(sp)
   21330:	df000017 	ldw	fp,0(sp)
   21334:	dec00204 	addi	sp,sp,8
   21338:	f800283a 	ret

0002133c <TRDB_D5M_log2>:
///////////////////////
// GENERAL FUNCTIONS //
///////////////////////

// Calculates log2 of a number. Attention: the number must be a power of 2
static uint16_t TRDB_D5M_log2(uint16_t power_of_2) {
   2133c:	defffe04 	addi	sp,sp,-8
   21340:	df000115 	stw	fp,4(sp)
   21344:	df000104 	addi	fp,sp,4
   21348:	2005883a 	mov	r2,r4
   2134c:	e0bfff0d 	sth	r2,-4(fp)
    if      (power_of_2 == 0x0001) return 0;
   21350:	e0bfff0b 	ldhu	r2,-4(fp)
   21354:	10800058 	cmpnei	r2,r2,1
   21358:	1000021e 	bne	r2,zero,21364 <TRDB_D5M_log2+0x28>
   2135c:	0005883a 	mov	r2,zero
   21360:	00004706 	br	21480 <TRDB_D5M_log2+0x144>
    else if (power_of_2 == 0x0002) return 1;
   21364:	e0bfff0b 	ldhu	r2,-4(fp)
   21368:	10800098 	cmpnei	r2,r2,2
   2136c:	1000021e 	bne	r2,zero,21378 <TRDB_D5M_log2+0x3c>
   21370:	00800044 	movi	r2,1
   21374:	00004206 	br	21480 <TRDB_D5M_log2+0x144>
    else if (power_of_2 == 0x0004) return 2;
   21378:	e0bfff0b 	ldhu	r2,-4(fp)
   2137c:	10800118 	cmpnei	r2,r2,4
   21380:	1000021e 	bne	r2,zero,2138c <TRDB_D5M_log2+0x50>
   21384:	00800084 	movi	r2,2
   21388:	00003d06 	br	21480 <TRDB_D5M_log2+0x144>
    else if (power_of_2 == 0x0008) return 3;
   2138c:	e0bfff0b 	ldhu	r2,-4(fp)
   21390:	10800218 	cmpnei	r2,r2,8
   21394:	1000021e 	bne	r2,zero,213a0 <TRDB_D5M_log2+0x64>
   21398:	008000c4 	movi	r2,3
   2139c:	00003806 	br	21480 <TRDB_D5M_log2+0x144>
    else if (power_of_2 == 0x0010) return 4;
   213a0:	e0bfff0b 	ldhu	r2,-4(fp)
   213a4:	10800418 	cmpnei	r2,r2,16
   213a8:	1000021e 	bne	r2,zero,213b4 <TRDB_D5M_log2+0x78>
   213ac:	00800104 	movi	r2,4
   213b0:	00003306 	br	21480 <TRDB_D5M_log2+0x144>
    else if (power_of_2 == 0x0020) return 5;
   213b4:	e0bfff0b 	ldhu	r2,-4(fp)
   213b8:	10800818 	cmpnei	r2,r2,32
   213bc:	1000021e 	bne	r2,zero,213c8 <TRDB_D5M_log2+0x8c>
   213c0:	00800144 	movi	r2,5
   213c4:	00002e06 	br	21480 <TRDB_D5M_log2+0x144>
    else if (power_of_2 == 0x0040) return 6;
   213c8:	e0bfff0b 	ldhu	r2,-4(fp)
   213cc:	10801018 	cmpnei	r2,r2,64
   213d0:	1000021e 	bne	r2,zero,213dc <TRDB_D5M_log2+0xa0>
   213d4:	00800184 	movi	r2,6
   213d8:	00002906 	br	21480 <TRDB_D5M_log2+0x144>
    else if (power_of_2 == 0x0080) return 7;
   213dc:	e0bfff0b 	ldhu	r2,-4(fp)
   213e0:	10802018 	cmpnei	r2,r2,128
   213e4:	1000021e 	bne	r2,zero,213f0 <TRDB_D5M_log2+0xb4>
   213e8:	008001c4 	movi	r2,7
   213ec:	00002406 	br	21480 <TRDB_D5M_log2+0x144>
    else if (power_of_2 == 0x0100) return 8;
   213f0:	e0bfff0b 	ldhu	r2,-4(fp)
   213f4:	10804018 	cmpnei	r2,r2,256
   213f8:	1000021e 	bne	r2,zero,21404 <TRDB_D5M_log2+0xc8>
   213fc:	00800204 	movi	r2,8
   21400:	00001f06 	br	21480 <TRDB_D5M_log2+0x144>
    else if (power_of_2 == 0x0200) return 9;
   21404:	e0bfff0b 	ldhu	r2,-4(fp)
   21408:	10808018 	cmpnei	r2,r2,512
   2140c:	1000021e 	bne	r2,zero,21418 <TRDB_D5M_log2+0xdc>
   21410:	00800244 	movi	r2,9
   21414:	00001a06 	br	21480 <TRDB_D5M_log2+0x144>
    else if (power_of_2 == 0x0400) return 10;
   21418:	e0bfff0b 	ldhu	r2,-4(fp)
   2141c:	10810018 	cmpnei	r2,r2,1024
   21420:	1000021e 	bne	r2,zero,2142c <TRDB_D5M_log2+0xf0>
   21424:	00800284 	movi	r2,10
   21428:	00001506 	br	21480 <TRDB_D5M_log2+0x144>
    else if (power_of_2 == 0x0800) return 11;
   2142c:	e0bfff0b 	ldhu	r2,-4(fp)
   21430:	10820018 	cmpnei	r2,r2,2048
   21434:	1000021e 	bne	r2,zero,21440 <TRDB_D5M_log2+0x104>
   21438:	008002c4 	movi	r2,11
   2143c:	00001006 	br	21480 <TRDB_D5M_log2+0x144>
    else if (power_of_2 == 0x1000) return 12;
   21440:	e0bfff0b 	ldhu	r2,-4(fp)
   21444:	10840018 	cmpnei	r2,r2,4096
   21448:	1000021e 	bne	r2,zero,21454 <TRDB_D5M_log2+0x118>
   2144c:	00800304 	movi	r2,12
   21450:	00000b06 	br	21480 <TRDB_D5M_log2+0x144>
    else if (power_of_2 == 0x2000) return 13;
   21454:	e0bfff0b 	ldhu	r2,-4(fp)
   21458:	10880018 	cmpnei	r2,r2,8192
   2145c:	1000021e 	bne	r2,zero,21468 <TRDB_D5M_log2+0x12c>
   21460:	00800344 	movi	r2,13
   21464:	00000606 	br	21480 <TRDB_D5M_log2+0x144>
    else if (power_of_2 == 0x4000) return 14;
   21468:	e0bfff0b 	ldhu	r2,-4(fp)
   2146c:	10900018 	cmpnei	r2,r2,16384
   21470:	1000021e 	bne	r2,zero,2147c <TRDB_D5M_log2+0x140>
   21474:	00800384 	movi	r2,14
   21478:	00000106 	br	21480 <TRDB_D5M_log2+0x144>
    else                           return 15;
   2147c:	008003c4 	movi	r2,15
}
   21480:	e037883a 	mov	sp,fp
   21484:	df000017 	ldw	fp,0(sp)
   21488:	dec00104 	addi	sp,sp,4
   2148c:	f800283a 	ret

00021490 <TRDB_D5M_shift_amount>:

static uint16_t TRDB_D5M_shift_amount(uint16_t mask) {
   21490:	defffd04 	addi	sp,sp,-12
   21494:	dfc00215 	stw	ra,8(sp)
   21498:	df000115 	stw	fp,4(sp)
   2149c:	df000104 	addi	fp,sp,4
   214a0:	2005883a 	mov	r2,r4
   214a4:	e0bfff0d 	sth	r2,-4(fp)
    // (mask & -mask) clears all but the lowest bit of x
    return TRDB_D5M_log2(mask & (~mask + 1));
   214a8:	e0bfff0b 	ldhu	r2,-4(fp)
   214ac:	0085c83a 	sub	r2,zero,r2
   214b0:	1007883a 	mov	r3,r2
   214b4:	e0bfff0b 	ldhu	r2,-4(fp)
   214b8:	1884703a 	and	r2,r3,r2
   214bc:	10bfffcc 	andi	r2,r2,65535
   214c0:	1009883a 	mov	r4,r2
   214c4:	002133c0 	call	2133c <TRDB_D5M_log2>
}
   214c8:	e037883a 	mov	sp,fp
   214cc:	dfc00117 	ldw	ra,4(sp)
   214d0:	df000017 	ldw	fp,0(sp)
   214d4:	dec00204 	addi	sp,sp,8
   214d8:	f800283a 	ret

000214dc <TRDB_D5M_READ>:

static uint16_t TRDB_D5M_READ(uint16_t full_reg_value, uint16_t mask) {
   214dc:	defffb04 	addi	sp,sp,-20
   214e0:	dfc00415 	stw	ra,16(sp)
   214e4:	df000315 	stw	fp,12(sp)
   214e8:	dc000215 	stw	r16,8(sp)
   214ec:	df000304 	addi	fp,sp,12
   214f0:	2007883a 	mov	r3,r4
   214f4:	2805883a 	mov	r2,r5
   214f8:	e0fffd0d 	sth	r3,-12(fp)
   214fc:	e0bffe0d 	sth	r2,-8(fp)
    return (full_reg_value & mask) >> TRDB_D5M_shift_amount(mask);
   21500:	e0fffd0b 	ldhu	r3,-12(fp)
   21504:	e0bffe0b 	ldhu	r2,-8(fp)
   21508:	1884703a 	and	r2,r3,r2
   2150c:	143fffcc 	andi	r16,r2,65535
   21510:	e0bffe0b 	ldhu	r2,-8(fp)
   21514:	1009883a 	mov	r4,r2
   21518:	00214900 	call	21490 <TRDB_D5M_shift_amount>
   2151c:	10bfffcc 	andi	r2,r2,65535
   21520:	8085d83a 	sra	r2,r16,r2
}
   21524:	e6ffff04 	addi	sp,fp,-4
   21528:	dfc00217 	ldw	ra,8(sp)
   2152c:	df000117 	ldw	fp,4(sp)
   21530:	dc000017 	ldw	r16,0(sp)
   21534:	dec00304 	addi	sp,sp,12
   21538:	f800283a 	ret

0002153c <TRDB_D5M_WRITE>:

static uint16_t TRDB_D5M_WRITE(uint16_t full_reg_value, uint16_t mask, uint16_t write_value) {
   2153c:	defffa04 	addi	sp,sp,-24
   21540:	dfc00515 	stw	ra,20(sp)
   21544:	df000415 	stw	fp,16(sp)
   21548:	dc000315 	stw	r16,12(sp)
   2154c:	df000404 	addi	fp,sp,16
   21550:	2807883a 	mov	r3,r5
   21554:	3005883a 	mov	r2,r6
   21558:	e13ffc0d 	sth	r4,-16(fp)
   2155c:	e0fffd0d 	sth	r3,-12(fp)
   21560:	e0bffe0d 	sth	r2,-8(fp)
    return (full_reg_value & (~mask)) | ((write_value << TRDB_D5M_shift_amount(mask)) & mask);
   21564:	e43ffe0b 	ldhu	r16,-8(fp)
   21568:	e0bffd0b 	ldhu	r2,-12(fp)
   2156c:	1009883a 	mov	r4,r2
   21570:	00214900 	call	21490 <TRDB_D5M_shift_amount>
   21574:	10bfffcc 	andi	r2,r2,65535
   21578:	8084983a 	sll	r2,r16,r2
   2157c:	1007883a 	mov	r3,r2
   21580:	e0bffc0b 	ldhu	r2,-16(fp)
   21584:	1884f03a 	xor	r2,r3,r2
   21588:	1007883a 	mov	r3,r2
   2158c:	e0bffd0b 	ldhu	r2,-12(fp)
   21590:	1884703a 	and	r2,r3,r2
   21594:	1007883a 	mov	r3,r2
   21598:	e0bffc0b 	ldhu	r2,-16(fp)
   2159c:	1884f03a 	xor	r2,r3,r2
}
   215a0:	e6ffff04 	addi	sp,fp,-4
   215a4:	dfc00217 	ldw	ra,8(sp)
   215a8:	df000117 	ldw	fp,4(sp)
   215ac:	dc000017 	ldw	r16,0(sp)
   215b0:	dec00304 	addi	sp,sp,12
   215b4:	f800283a 	ret

000215b8 <trdb_d5m_write>:
#define I2C_FREQ              (50000000) /* Clock frequency driving the i2c core: 50 MHz in this example (ADAPT TO YOUR DESIGN) */
#define TRDB_D5M_I2C_ADDRESS  (0xca)

#define TRDB_D5M_0_I2C_0_BASE I2C_COMPONENT_BASE   /* i2c base address from system.h (ADAPT TO YOUR DESIGN) */
i2c_dev i2c;
bool trdb_d5m_write(i2c_dev *i2c, uint8_t register_offset, uint16_t data) {
   215b8:	defff804 	addi	sp,sp,-32
   215bc:	dfc00715 	stw	ra,28(sp)
   215c0:	df000615 	stw	fp,24(sp)
   215c4:	df000604 	addi	fp,sp,24
   215c8:	e13ffd15 	stw	r4,-12(fp)
   215cc:	2807883a 	mov	r3,r5
   215d0:	3005883a 	mov	r2,r6
   215d4:	e0fffe05 	stb	r3,-8(fp)
   215d8:	e0bfff0d 	sth	r2,-4(fp)
    uint8_t byte_data[2] = {(data >> 8) & 0xff, data & 0xff};
   215dc:	e0bfff0b 	ldhu	r2,-4(fp)
   215e0:	1004d23a 	srli	r2,r2,8
   215e4:	e0bffc05 	stb	r2,-16(fp)
   215e8:	e0bfff0b 	ldhu	r2,-4(fp)
   215ec:	e0bffc45 	stb	r2,-15(fp)

    int success = i2c_write_array(i2c, TRDB_D5M_I2C_ADDRESS, register_offset, byte_data, sizeof(byte_data));
   215f0:	e0fffe03 	ldbu	r3,-8(fp)
   215f4:	e13ffc04 	addi	r4,fp,-16
   215f8:	00800084 	movi	r2,2
   215fc:	d8800015 	stw	r2,0(sp)
   21600:	200f883a 	mov	r7,r4
   21604:	180d883a 	mov	r6,r3
   21608:	01403284 	movi	r5,202
   2160c:	e13ffd17 	ldw	r4,-12(fp)
   21610:	0021f0c0 	call	21f0c <i2c_write_array>
   21614:	e0bffb15 	stw	r2,-20(fp)

    if (success != I2C_SUCCESS) {
   21618:	e0bffb17 	ldw	r2,-20(fp)
   2161c:	10000226 	beq	r2,zero,21628 <trdb_d5m_write+0x70>
        return false;
   21620:	0005883a 	mov	r2,zero
   21624:	00000106 	br	2162c <trdb_d5m_write+0x74>
    } else {
        return true;
   21628:	00800044 	movi	r2,1
    }
}
   2162c:	e037883a 	mov	sp,fp
   21630:	dfc00117 	ldw	ra,4(sp)
   21634:	df000017 	ldw	fp,0(sp)
   21638:	dec00204 	addi	sp,sp,8
   2163c:	f800283a 	ret

00021640 <trdb_d5m_read>:

bool trdb_d5m_read(i2c_dev *i2c, uint8_t register_offset, uint16_t *data) {
   21640:	defff804 	addi	sp,sp,-32
   21644:	dfc00715 	stw	ra,28(sp)
   21648:	df000615 	stw	fp,24(sp)
   2164c:	df000604 	addi	fp,sp,24
   21650:	e13ffd15 	stw	r4,-12(fp)
   21654:	2805883a 	mov	r2,r5
   21658:	e1bfff15 	stw	r6,-4(fp)
   2165c:	e0bffe05 	stb	r2,-8(fp)
    uint8_t byte_data[2] = {0, 0};
   21660:	e03ffc05 	stb	zero,-16(fp)
   21664:	e03ffc45 	stb	zero,-15(fp)

    int success = i2c_read_array(i2c, TRDB_D5M_I2C_ADDRESS, register_offset, byte_data, sizeof(byte_data));
   21668:	e0fffe03 	ldbu	r3,-8(fp)
   2166c:	e13ffc04 	addi	r4,fp,-16
   21670:	00800084 	movi	r2,2
   21674:	d8800015 	stw	r2,0(sp)
   21678:	200f883a 	mov	r7,r4
   2167c:	180d883a 	mov	r6,r3
   21680:	01403284 	movi	r5,202
   21684:	e13ffd17 	ldw	r4,-12(fp)
   21688:	00220a00 	call	220a0 <i2c_read_array>
   2168c:	e0bffb15 	stw	r2,-20(fp)

    if (success != I2C_SUCCESS) {
   21690:	e0bffb17 	ldw	r2,-20(fp)
   21694:	10000226 	beq	r2,zero,216a0 <trdb_d5m_read+0x60>
        return false;
   21698:	0005883a 	mov	r2,zero
   2169c:	00000b06 	br	216cc <trdb_d5m_read+0x8c>
    } else {
        *data = ((uint16_t) byte_data[0] << 8) + byte_data[1];
   216a0:	e0bffc03 	ldbu	r2,-16(fp)
   216a4:	10803fcc 	andi	r2,r2,255
   216a8:	1004923a 	slli	r2,r2,8
   216ac:	1007883a 	mov	r3,r2
   216b0:	e0bffc43 	ldbu	r2,-15(fp)
   216b4:	10803fcc 	andi	r2,r2,255
   216b8:	1885883a 	add	r2,r3,r2
   216bc:	1007883a 	mov	r3,r2
   216c0:	e0bfff17 	ldw	r2,-4(fp)
   216c4:	10c0000d 	sth	r3,0(r2)
        return true;
   216c8:	00800044 	movi	r2,1
    }
}
   216cc:	e037883a 	mov	sp,fp
   216d0:	dfc00117 	ldw	ra,4(sp)
   216d4:	df000017 	ldw	fp,0(sp)
   216d8:	dec00204 	addi	sp,sp,8
   216dc:	f800283a 	ret

000216e0 <Test_i2c>:
bool Test_i2c()
{
   216e0:	defffe04 	addi	sp,sp,-8
   216e4:	dfc00115 	stw	ra,4(sp)
   216e8:	df000015 	stw	fp,0(sp)
   216ec:	d839883a 	mov	fp,sp
	init_I2C();
   216f0:	00217440 	call	21744 <init_I2C>
    if (Write_and_Read_I2C(&i2c,10,23)) {
   216f4:	018005c4 	movi	r6,23
   216f8:	01400284 	movi	r5,10
   216fc:	d126cb04 	addi	r4,gp,-25812
   21700:	00217880 	call	21788 <Write_and_Read_I2C>
   21704:	10803fcc 	andi	r2,r2,255
   21708:	10000526 	beq	r2,zero,21720 <Test_i2c+0x40>
    	printf("I2C PASS\r\n");
   2170c:	010000f4 	movhi	r4,3
   21710:	21188404 	addi	r4,r4,25104
   21714:	00248580 	call	24858 <puts>
        return EXIT_SUCCESS;
   21718:	0005883a 	mov	r2,zero
   2171c:	00000406 	br	21730 <Test_i2c+0x50>
    } else {
    	printf("I2C FAIL\r\n");
   21720:	010000f4 	movhi	r4,3
   21724:	21188704 	addi	r4,r4,25116
   21728:	00248580 	call	24858 <puts>
        return EXIT_FAILURE;
   2172c:	00800044 	movi	r2,1
    }
}
   21730:	e037883a 	mov	sp,fp
   21734:	dfc00117 	ldw	ra,4(sp)
   21738:	df000017 	ldw	fp,0(sp)
   2173c:	dec00204 	addi	sp,sp,8
   21740:	f800283a 	ret

00021744 <init_I2C>:
void init_I2C()
{
   21744:	defffe04 	addi	sp,sp,-8
   21748:	dfc00115 	stw	ra,4(sp)
   2174c:	df000015 	stw	fp,0(sp)
   21750:	d839883a 	mov	fp,sp
	i2c = i2c_inst((void *) TRDB_D5M_0_I2C_0_BASE);
   21754:	01001004 	movi	r4,64
   21758:	0021b880 	call	21b88 <i2c_inst>
   2175c:	d0a6cb15 	stw	r2,-25812(gp)
	i2c_init(&i2c, I2C_FREQ);
   21760:	0140bef4 	movhi	r5,763
   21764:	297c2004 	addi	r5,r5,-3968
   21768:	d126cb04 	addi	r4,gp,-25812
   2176c:	0021bb40 	call	21bb4 <i2c_init>
}
   21770:	0001883a 	nop
   21774:	e037883a 	mov	sp,fp
   21778:	dfc00117 	ldw	ra,4(sp)
   2177c:	df000017 	ldw	fp,0(sp)
   21780:	dec00204 	addi	sp,sp,8
   21784:	f800283a 	ret

00021788 <Write_and_Read_I2C>:
bool Write_and_Read_I2C(i2c_dev *i2c,uint8_t register_offset, uint16_t data)
{
   21788:	defffa04 	addi	sp,sp,-24
   2178c:	dfc00515 	stw	ra,20(sp)
   21790:	df000415 	stw	fp,16(sp)
   21794:	df000404 	addi	fp,sp,16
   21798:	e13ffd15 	stw	r4,-12(fp)
   2179c:	2807883a 	mov	r3,r5
   217a0:	3005883a 	mov	r2,r6
   217a4:	e0fffe05 	stb	r3,-8(fp)
   217a8:	e0bfff0d 	sth	r2,-4(fp)
	 	bool success = true;
   217ac:	00800044 	movi	r2,1
   217b0:	e0bffc05 	stb	r2,-16(fp)
	 	 /* write the 16-bit value 23 to register 10 */
	    success &= trdb_d5m_write(i2c, register_offset, data);
   217b4:	e0bffe03 	ldbu	r2,-8(fp)
   217b8:	e0ffff0b 	ldhu	r3,-4(fp)
   217bc:	180d883a 	mov	r6,r3
   217c0:	100b883a 	mov	r5,r2
   217c4:	e13ffd17 	ldw	r4,-12(fp)
   217c8:	00215b80 	call	215b8 <trdb_d5m_write>
   217cc:	e0fffc03 	ldbu	r3,-16(fp)
   217d0:	10803fcc 	andi	r2,r2,255
   217d4:	1884703a 	and	r2,r3,r2
   217d8:	1004c03a 	cmpne	r2,r2,zero
   217dc:	e0bffc05 	stb	r2,-16(fp)

	    /* read from register 10, put data in readdata */
	    uint16_t readdata = 0;
   217e0:	e03ffc8d 	sth	zero,-14(fp)
	    success &= trdb_d5m_read(i2c, register_offset, &readdata);
   217e4:	e0bffe03 	ldbu	r2,-8(fp)
   217e8:	e0fffc84 	addi	r3,fp,-14
   217ec:	180d883a 	mov	r6,r3
   217f0:	100b883a 	mov	r5,r2
   217f4:	e13ffd17 	ldw	r4,-12(fp)
   217f8:	00216400 	call	21640 <trdb_d5m_read>
   217fc:	e0fffc03 	ldbu	r3,-16(fp)
   21800:	10803fcc 	andi	r2,r2,255
   21804:	1884703a 	and	r2,r3,r2
   21808:	1004c03a 	cmpne	r2,r2,zero
   2180c:	e0bffc05 	stb	r2,-16(fp)

	    if (success && readdata==data ) {
   21810:	e0bffc03 	ldbu	r2,-16(fp)
   21814:	10000626 	beq	r2,zero,21830 <Write_and_Read_I2C+0xa8>
   21818:	e0bffc8b 	ldhu	r2,-14(fp)
   2181c:	10ffffcc 	andi	r3,r2,65535
   21820:	e0bfff0b 	ldhu	r2,-4(fp)
   21824:	1880021e 	bne	r3,r2,21830 <Write_and_Read_I2C+0xa8>
	        return true;
   21828:	00800044 	movi	r2,1
   2182c:	00000106 	br	21834 <Write_and_Read_I2C+0xac>
	    } else {
	        return false;
   21830:	0005883a 	mov	r2,zero
	    }
}
   21834:	e037883a 	mov	sp,fp
   21838:	dfc00117 	ldw	ra,4(sp)
   2183c:	df000017 	ldw	fp,0(sp)
   21840:	dec00204 	addi	sp,sp,8
   21844:	f800283a 	ret

00021848 <Camera_Configuration>:
bool Camera_Configuration()
{
   21848:	defffd04 	addi	sp,sp,-12
   2184c:	dfc00215 	stw	ra,8(sp)
   21850:	df000115 	stw	fp,4(sp)
   21854:	df000104 	addi	fp,sp,4
	init_I2C();
   21858:	00217440 	call	21744 <init_I2C>

    bool success = true;
   2185c:	00800044 	movi	r2,1
   21860:	e0bfff05 	stb	r2,-4(fp)
    uint16_t data=0;
   21864:	e03fff8d 	sth	zero,-2(fp)
    trdb_d5m_read(&i2c, 0, &data);
   21868:	e0bfff84 	addi	r2,fp,-2
   2186c:	100d883a 	mov	r6,r2
   21870:	000b883a 	mov	r5,zero
   21874:	d126cb04 	addi	r4,gp,-25812
   21878:	00216400 	call	21640 <trdb_d5m_read>
    printf("Camera version :  %d\r\n",data);
   2187c:	e0bfff8b 	ldhu	r2,-2(fp)
   21880:	10bfffcc 	andi	r2,r2,65535
   21884:	100b883a 	mov	r5,r2
   21888:	010000f4 	movhi	r4,3
   2188c:	21188a04 	addi	r4,r4,25128
   21890:	002475c0 	call	2475c <printf>
    success &= Write_and_Read_I2C(&i2c,TRDB_D5M_COLUMN_SIZE_REG,2559);//Resolution for lt24 with binning
   21894:	01827fc4 	movi	r6,2559
   21898:	01400104 	movi	r5,4
   2189c:	d126cb04 	addi	r4,gp,-25812
   218a0:	00217880 	call	21788 <Write_and_Read_I2C>
   218a4:	e0ffff03 	ldbu	r3,-4(fp)
   218a8:	10803fcc 	andi	r2,r2,255
   218ac:	1884703a 	and	r2,r3,r2
   218b0:	1004c03a 	cmpne	r2,r2,zero
   218b4:	e0bfff05 	stb	r2,-4(fp)
    success &= Write_and_Read_I2C(&i2c,TRDB_D5M_ROW_SIZE_REG,1919);// Resolution for lt24 with binning
   218b8:	0181dfc4 	movi	r6,1919
   218bc:	014000c4 	movi	r5,3
   218c0:	d126cb04 	addi	r4,gp,-25812
   218c4:	00217880 	call	21788 <Write_and_Read_I2C>
   218c8:	e0ffff03 	ldbu	r3,-4(fp)
   218cc:	10803fcc 	andi	r2,r2,255
   218d0:	1884703a 	and	r2,r3,r2
   218d4:	1004c03a 	cmpne	r2,r2,zero
   218d8:	e0bfff05 	stb	r2,-4(fp)
    success &= Write_and_Read_I2C(&i2c,TRDB_D5M_SHUTTER_WIDTH_UPPER_REG,0000);//Control light
   218dc:	000d883a 	mov	r6,zero
   218e0:	01400204 	movi	r5,8
   218e4:	d126cb04 	addi	r4,gp,-25812
   218e8:	00217880 	call	21788 <Write_and_Read_I2C>
   218ec:	e0ffff03 	ldbu	r3,-4(fp)
   218f0:	10803fcc 	andi	r2,r2,255
   218f4:	1884703a 	and	r2,r3,r2
   218f8:	1004c03a 	cmpne	r2,r2,zero
   218fc:	e0bfff05 	stb	r2,-4(fp)
    success &= Write_and_Read_I2C(&i2c,TRDB_D5M_SHUTTER_WIDTH_LOWER_REG,3500);//Control light
   21900:	01836b04 	movi	r6,3500
   21904:	01400244 	movi	r5,9
   21908:	d126cb04 	addi	r4,gp,-25812
   2190c:	00217880 	call	21788 <Write_and_Read_I2C>
   21910:	e0ffff03 	ldbu	r3,-4(fp)
   21914:	10803fcc 	andi	r2,r2,255
   21918:	1884703a 	and	r2,r3,r2
   2191c:	1004c03a 	cmpne	r2,r2,zero
   21920:	e0bfff05 	stb	r2,-4(fp)
    success &= Write_and_Read_I2C(&i2c,TRDB_D5M_ROW_ADDRESS_MODE_REG,0x0033);//Binning x4
   21924:	01800cc4 	movi	r6,51
   21928:	01400884 	movi	r5,34
   2192c:	d126cb04 	addi	r4,gp,-25812
   21930:	00217880 	call	21788 <Write_and_Read_I2C>
   21934:	e0ffff03 	ldbu	r3,-4(fp)
   21938:	10803fcc 	andi	r2,r2,255
   2193c:	1884703a 	and	r2,r3,r2
   21940:	1004c03a 	cmpne	r2,r2,zero
   21944:	e0bfff05 	stb	r2,-4(fp)
    success &= Write_and_Read_I2C(&i2c,TRDB_D5M_COLUMN_ADDRESS_MODE_REG,0x0033);//Binning x4
   21948:	01800cc4 	movi	r6,51
   2194c:	014008c4 	movi	r5,35
   21950:	d126cb04 	addi	r4,gp,-25812
   21954:	00217880 	call	21788 <Write_and_Read_I2C>
   21958:	e0ffff03 	ldbu	r3,-4(fp)
   2195c:	10803fcc 	andi	r2,r2,255
   21960:	1884703a 	and	r2,r3,r2
   21964:	1004c03a 	cmpne	r2,r2,zero
   21968:	e0bfff05 	stb	r2,-4(fp)
#if LCD_Connected
    success &= Write_and_Read_I2C(&i2c,TRDB_D5M_RED_GAIN_REG,15);//Binning x4
   2196c:	018003c4 	movi	r6,15
   21970:	01400b44 	movi	r5,45
   21974:	d126cb04 	addi	r4,gp,-25812
   21978:	00217880 	call	21788 <Write_and_Read_I2C>
   2197c:	e0ffff03 	ldbu	r3,-4(fp)
   21980:	10803fcc 	andi	r2,r2,255
   21984:	1884703a 	and	r2,r3,r2
   21988:	1004c03a 	cmpne	r2,r2,zero
   2198c:	e0bfff05 	stb	r2,-4(fp)
   success &= Write_and_Read_I2C(&i2c,TRDB_D5M_GREEN_1_GAIN_REG,12);//Binning x4
   21990:	01800304 	movi	r6,12
   21994:	01400ac4 	movi	r5,43
   21998:	d126cb04 	addi	r4,gp,-25812
   2199c:	00217880 	call	21788 <Write_and_Read_I2C>
   219a0:	e0ffff03 	ldbu	r3,-4(fp)
   219a4:	10803fcc 	andi	r2,r2,255
   219a8:	1884703a 	and	r2,r3,r2
   219ac:	1004c03a 	cmpne	r2,r2,zero
   219b0:	e0bfff05 	stb	r2,-4(fp)
   success &= Write_and_Read_I2C(&i2c,TRDB_D5M_GREEN_2_GAIN_REG,12);//Binning x4
   219b4:	01800304 	movi	r6,12
   219b8:	01400b84 	movi	r5,46
   219bc:	d126cb04 	addi	r4,gp,-25812
   219c0:	00217880 	call	21788 <Write_and_Read_I2C>
   219c4:	e0ffff03 	ldbu	r3,-4(fp)
   219c8:	10803fcc 	andi	r2,r2,255
   219cc:	1884703a 	and	r2,r3,r2
   219d0:	1004c03a 	cmpne	r2,r2,zero
   219d4:	e0bfff05 	stb	r2,-4(fp)
   success &= Write_and_Read_I2C(&i2c,TRDB_D5M_BLUE_GAIN_REG,14);//Binning x4
   219d8:	01800384 	movi	r6,14
   219dc:	01400b04 	movi	r5,44
   219e0:	d126cb04 	addi	r4,gp,-25812
   219e4:	00217880 	call	21788 <Write_and_Read_I2C>
   219e8:	e0ffff03 	ldbu	r3,-4(fp)
   219ec:	10803fcc 	andi	r2,r2,255
   219f0:	1884703a 	and	r2,r3,r2
   219f4:	1004c03a 	cmpne	r2,r2,zero
   219f8:	e0bfff05 	stb	r2,-4(fp)
     *success &= Write_and_Read_I2C(&i2c,TRDB_D5M_PLL_CONFIG_1_REG,0x4C14);//N=10, 0x14, M=76, 0x4C
     *success &= Write_and_Read_I2C(&i2c,TRDB_D5M_PLL_CONFIG_2_REG,0x0002);//P1=2 , 0x02
     */


    if (success  ) {
   219fc:	e0bfff03 	ldbu	r2,-4(fp)
   21a00:	10000526 	beq	r2,zero,21a18 <Camera_Configuration+0x1d0>
    	printf("I2C Configuration PASS\r\n");
   21a04:	010000f4 	movhi	r4,3
   21a08:	21189004 	addi	r4,r4,25152
   21a0c:	00248580 	call	24858 <puts>
        return true;
   21a10:	00800044 	movi	r2,1
   21a14:	00000406 	br	21a28 <Camera_Configuration+0x1e0>
    } else {
    	printf("I2C Configuration FAIL\r\n");
   21a18:	010000f4 	movhi	r4,3
   21a1c:	21189604 	addi	r4,r4,25176
   21a20:	00248580 	call	24858 <puts>
        return false;
   21a24:	0005883a 	mov	r2,zero
    }
}
   21a28:	e037883a 	mov	sp,fp
   21a2c:	dfc00117 	ldw	ra,4(sp)
   21a30:	df000017 	ldw	fp,0(sp)
   21a34:	dec00204 	addi	sp,sp,8
   21a38:	f800283a 	ret

00021a3c <i2c_usleep>:
static void wait_end_of_transfer(i2c_dev *dev);
static void set_data_control(i2c_dev *dev, uint8_t data, uint8_t control);
static uint8_t get_data_set_control(i2c_dev *dev, uint8_t control);

/* Function to put the host processor to sleep for microseconds */
static void i2c_usleep(unsigned int useconds) {
   21a3c:	defffd04 	addi	sp,sp,-12
   21a40:	dfc00215 	stw	ra,8(sp)
   21a44:	df000115 	stw	fp,4(sp)
   21a48:	df000104 	addi	fp,sp,4
   21a4c:	e13fff15 	stw	r4,-4(fp)
#if defined(__KERNEL__) || defined(MODULE)
    udelay(useconds);
#else
    usleep(useconds);
   21a50:	e13fff17 	ldw	r4,-4(fp)
   21a54:	00344000 	call	34400 <usleep>
#endif
}
   21a58:	0001883a 	nop
   21a5c:	e037883a 	mov	sp,fp
   21a60:	dfc00117 	ldw	ra,4(sp)
   21a64:	df000017 	ldw	fp,0(sp)
   21a68:	dec00204 	addi	sp,sp,8
   21a6c:	f800283a 	ret

00021a70 <wait_end_of_transfer>:
/*
 * wait_end_of_transfer
 *
 * Waits until the current i2c transfer is finished.
 */
static void wait_end_of_transfer(i2c_dev *dev) {
   21a70:	defffe04 	addi	sp,sp,-8
   21a74:	df000115 	stw	fp,4(sp)
   21a78:	df000104 	addi	fp,sp,4
   21a7c:	e13fff15 	stw	r4,-4(fp)
    while (I2C_RD_STATUS(dev->base) & I2C_STATUS_TRANSFER_IN_PROGRESS_MSK);
   21a80:	0001883a 	nop
   21a84:	e0bfff17 	ldw	r2,-4(fp)
   21a88:	10800017 	ldw	r2,0(r2)
   21a8c:	10800084 	addi	r2,r2,2
   21a90:	10800023 	ldbuio	r2,0(r2)
   21a94:	10803fcc 	andi	r2,r2,255
   21a98:	1080020c 	andi	r2,r2,8
   21a9c:	103ff91e 	bne	r2,zero,21a84 <__alt_mem_sdram_controller_0+0xc0021a84>
}
   21aa0:	0001883a 	nop
   21aa4:	e037883a 	mov	sp,fp
   21aa8:	df000017 	ldw	fp,0(sp)
   21aac:	dec00104 	addi	sp,sp,4
   21ab0:	f800283a 	ret

00021ab4 <set_data_control>:
 * set_data_control
 *
 * Writes the supplied "data" argument to SDA while using the control sequences
 * provided in argument "control".
 */
static void set_data_control(i2c_dev *dev, uint8_t data, uint8_t control) {
   21ab4:	defffb04 	addi	sp,sp,-20
   21ab8:	dfc00415 	stw	ra,16(sp)
   21abc:	df000315 	stw	fp,12(sp)
   21ac0:	df000304 	addi	fp,sp,12
   21ac4:	e13ffd15 	stw	r4,-12(fp)
   21ac8:	2807883a 	mov	r3,r5
   21acc:	3005883a 	mov	r2,r6
   21ad0:	e0fffe05 	stb	r3,-8(fp)
   21ad4:	e0bfff05 	stb	r2,-4(fp)
    wait_end_of_transfer(dev);
   21ad8:	e13ffd17 	ldw	r4,-12(fp)
   21adc:	0021a700 	call	21a70 <wait_end_of_transfer>
    I2C_WR_DATA(dev->base, data);
   21ae0:	e0bffd17 	ldw	r2,-12(fp)
   21ae4:	10800017 	ldw	r2,0(r2)
   21ae8:	e0fffe03 	ldbu	r3,-8(fp)
   21aec:	10c00025 	stbio	r3,0(r2)
    I2C_WR_CONTROL(dev->base, control);
   21af0:	e0bffd17 	ldw	r2,-12(fp)
   21af4:	10800017 	ldw	r2,0(r2)
   21af8:	10800044 	addi	r2,r2,1
   21afc:	e0ffff03 	ldbu	r3,-4(fp)
   21b00:	10c00025 	stbio	r3,0(r2)
    wait_end_of_transfer(dev);
   21b04:	e13ffd17 	ldw	r4,-12(fp)
   21b08:	0021a700 	call	21a70 <wait_end_of_transfer>
}
   21b0c:	0001883a 	nop
   21b10:	e037883a 	mov	sp,fp
   21b14:	dfc00117 	ldw	ra,4(sp)
   21b18:	df000017 	ldw	fp,0(sp)
   21b1c:	dec00204 	addi	sp,sp,8
   21b20:	f800283a 	ret

00021b24 <get_data_set_control>:
 * get_data_set_control
 *
 * Reads data from SDA while using the control sequences provided in argument
 * "control".
 */
static uint8_t get_data_set_control(i2c_dev *dev, uint8_t control) {
   21b24:	defffc04 	addi	sp,sp,-16
   21b28:	dfc00315 	stw	ra,12(sp)
   21b2c:	df000215 	stw	fp,8(sp)
   21b30:	df000204 	addi	fp,sp,8
   21b34:	e13ffe15 	stw	r4,-8(fp)
   21b38:	2805883a 	mov	r2,r5
   21b3c:	e0bfff05 	stb	r2,-4(fp)
    wait_end_of_transfer(dev);
   21b40:	e13ffe17 	ldw	r4,-8(fp)
   21b44:	0021a700 	call	21a70 <wait_end_of_transfer>
    I2C_WR_CONTROL(dev->base, control);
   21b48:	e0bffe17 	ldw	r2,-8(fp)
   21b4c:	10800017 	ldw	r2,0(r2)
   21b50:	10800044 	addi	r2,r2,1
   21b54:	e0ffff03 	ldbu	r3,-4(fp)
   21b58:	10c00025 	stbio	r3,0(r2)
    wait_end_of_transfer(dev);
   21b5c:	e13ffe17 	ldw	r4,-8(fp)
   21b60:	0021a700 	call	21a70 <wait_end_of_transfer>
    return I2C_RD_DATA(dev->base);
   21b64:	e0bffe17 	ldw	r2,-8(fp)
   21b68:	10800017 	ldw	r2,0(r2)
   21b6c:	10800023 	ldbuio	r2,0(r2)
   21b70:	10803fcc 	andi	r2,r2,255
}
   21b74:	e037883a 	mov	sp,fp
   21b78:	dfc00117 	ldw	ra,4(sp)
   21b7c:	df000017 	ldw	fp,0(sp)
   21b80:	dec00204 	addi	sp,sp,8
   21b84:	f800283a 	ret

00021b88 <i2c_inst>:
/*
 * i2c_inst
 *
 * Constructs a device structure.
 */
i2c_dev i2c_inst(void *base) {
   21b88:	defffd04 	addi	sp,sp,-12
   21b8c:	df000215 	stw	fp,8(sp)
   21b90:	df000204 	addi	fp,sp,8
   21b94:	e13fff15 	stw	r4,-4(fp)
    i2c_dev dev;

    dev.base = base;
   21b98:	e0bfff17 	ldw	r2,-4(fp)
   21b9c:	e0bffe15 	stw	r2,-8(fp)

    return dev;
   21ba0:	e0bffe17 	ldw	r2,-8(fp)
}
   21ba4:	e037883a 	mov	sp,fp
   21ba8:	df000017 	ldw	fp,0(sp)
   21bac:	dec00104 	addi	sp,sp,4
   21bb0:	f800283a 	ret

00021bb4 <i2c_init>:
 * standard data rate for an I2C transfer is 100 kbits/s. However, in order to
 * meet the timing constraints of the protocol, the I2C controller needs to
 * operate 4 times faster. Therefore, one must set the clock divisor register to
 * i2c_frequency / (4 * 100 KHz).
 */
void i2c_init(i2c_dev *dev, uint32_t i2c_frequency) {
   21bb4:	defffb04 	addi	sp,sp,-20
   21bb8:	dfc00415 	stw	ra,16(sp)
   21bbc:	df000315 	stw	fp,12(sp)
   21bc0:	dc000215 	stw	r16,8(sp)
   21bc4:	df000304 	addi	fp,sp,12
   21bc8:	e13ffd15 	stw	r4,-12(fp)
   21bcc:	e17ffe15 	stw	r5,-8(fp)
    I2C_WR_CLOCK_DIVISOR(dev->base, i2c_frequency / (4 * 100000));
   21bd0:	e0bffd17 	ldw	r2,-12(fp)
   21bd4:	10800017 	ldw	r2,0(r2)
   21bd8:	140000c4 	addi	r16,r2,3
   21bdc:	e0bffe17 	ldw	r2,-8(fp)
   21be0:	014001b4 	movhi	r5,6
   21be4:	2946a004 	addi	r5,r5,6784
   21be8:	1009883a 	mov	r4,r2
   21bec:	002260c0 	call	2260c <__udivsi3>
   21bf0:	80800025 	stbio	r2,0(r16)
    i2c_usleep(I2C_SLEEP_US);
   21bf4:	0104e204 	movi	r4,5000
   21bf8:	0021a3c0 	call	21a3c <i2c_usleep>
}
   21bfc:	0001883a 	nop
   21c00:	e6ffff04 	addi	sp,fp,-4
   21c04:	dfc00217 	ldw	ra,8(sp)
   21c08:	df000117 	ldw	fp,4(sp)
   21c0c:	dc000017 	ldw	r16,0(sp)
   21c10:	dec00304 	addi	sp,sp,12
   21c14:	f800283a 	ret

00021c18 <i2c_configure>:
 * Configure the controller.
 *
 * Setting the irq paramater to true enables interrupt generation at the end of
 * a read/write transfer, and false disables interrupt generation.
 */
void i2c_configure(i2c_dev *dev, bool irq) {
   21c18:	defffc04 	addi	sp,sp,-16
   21c1c:	df000315 	stw	fp,12(sp)
   21c20:	df000304 	addi	fp,sp,12
   21c24:	e13ffe15 	stw	r4,-8(fp)
   21c28:	2805883a 	mov	r2,r5
   21c2c:	e0bfff05 	stb	r2,-4(fp)
    uint32_t config = 0;
   21c30:	e03ffd15 	stw	zero,-12(fp)

    if (irq) {
   21c34:	e0bfff03 	ldbu	r2,-4(fp)
   21c38:	10000426 	beq	r2,zero,21c4c <i2c_configure+0x34>
        config |= I2C_CONTROL_INTERRUPT_ENABLE_MSK;
   21c3c:	e0bffd17 	ldw	r2,-12(fp)
   21c40:	10800814 	ori	r2,r2,32
   21c44:	e0bffd15 	stw	r2,-12(fp)
   21c48:	00000406 	br	21c5c <i2c_configure+0x44>
    } else {
        config &= ~I2C_CONTROL_INTERRUPT_ENABLE_MSK;
   21c4c:	e0fffd17 	ldw	r3,-12(fp)
   21c50:	00bff7c4 	movi	r2,-33
   21c54:	1884703a 	and	r2,r3,r2
   21c58:	e0bffd15 	stw	r2,-12(fp)
    }

    I2C_WR_CONTROL(dev->base, I2C_CONTROL_GENERATE_STOP_SEQUENCE_MSK);
   21c5c:	e0bffe17 	ldw	r2,-8(fp)
   21c60:	10800017 	ldw	r2,0(r2)
   21c64:	10800044 	addi	r2,r2,1
   21c68:	00c00084 	movi	r3,2
   21c6c:	10c00025 	stbio	r3,0(r2)
    I2C_WR_CONTROL(dev->base, config);
   21c70:	e0bffe17 	ldw	r2,-8(fp)
   21c74:	10800017 	ldw	r2,0(r2)
   21c78:	10800044 	addi	r2,r2,1
   21c7c:	e0fffd17 	ldw	r3,-12(fp)
   21c80:	10c00025 	stbio	r3,0(r2)
}
   21c84:	0001883a 	nop
   21c88:	e037883a 	mov	sp,fp
   21c8c:	df000017 	ldw	fp,0(sp)
   21c90:	dec00104 	addi	sp,sp,4
   21c94:	f800283a 	ret

00021c98 <i2c_write>:
 *
 * Returns: I2C_SUCCESS -> success
 *          I2C_ENODEV  -> device does not answer
 *          I2C_EBADACK -> bad acknowledge received
 */
int i2c_write(i2c_dev *dev, uint8_t device, uint8_t index, uint8_t value) {
   21c98:	defffa04 	addi	sp,sp,-24
   21c9c:	dfc00515 	stw	ra,20(sp)
   21ca0:	df000415 	stw	fp,16(sp)
   21ca4:	df000404 	addi	fp,sp,16
   21ca8:	e13ffc15 	stw	r4,-16(fp)
   21cac:	2809883a 	mov	r4,r5
   21cb0:	3007883a 	mov	r3,r6
   21cb4:	3805883a 	mov	r2,r7
   21cb8:	e13ffd05 	stb	r4,-12(fp)
   21cbc:	e0fffe05 	stb	r3,-8(fp)
   21cc0:	e0bfff05 	stb	r2,-4(fp)
    /* write to the device with the R/W bit set to 0 (write mode) */
    set_data_control(dev, device & 0xFE, I2C_CONTROL_GENERATE_START_SEQUENCE_MSK | I2C_CONTROL_WRITE_COMMAND_MSK);
   21cc4:	e0bffd03 	ldbu	r2,-12(fp)
   21cc8:	10803f8c 	andi	r2,r2,254
   21ccc:	01800504 	movi	r6,20
   21cd0:	100b883a 	mov	r5,r2
   21cd4:	e13ffc17 	ldw	r4,-16(fp)
   21cd8:	0021ab40 	call	21ab4 <set_data_control>

    /* error: device does not answer */
    if (I2C_RD_STATUS(dev->base) & I2C_STATUS_LAST_ACKNOWLEDGE_RECEIVED_MSK) {
   21cdc:	e0bffc17 	ldw	r2,-16(fp)
   21ce0:	10800017 	ldw	r2,0(r2)
   21ce4:	10800084 	addi	r2,r2,2
   21ce8:	10800023 	ldbuio	r2,0(r2)
   21cec:	10803fcc 	andi	r2,r2,255
   21cf0:	1080004c 	andi	r2,r2,1
   21cf4:	10000726 	beq	r2,zero,21d14 <i2c_write+0x7c>
        I2C_WR_CONTROL(dev->base, I2C_CONTROL_GENERATE_STOP_SEQUENCE_MSK);
   21cf8:	e0bffc17 	ldw	r2,-16(fp)
   21cfc:	10800017 	ldw	r2,0(r2)
   21d00:	10800044 	addi	r2,r2,1
   21d04:	00c00084 	movi	r3,2
   21d08:	10c00025 	stbio	r3,0(r2)
        return I2C_ENODEV;
   21d0c:	00800044 	movi	r2,1
   21d10:	00002706 	br	21db0 <i2c_write+0x118>
    }

    /* write register index to device */
    set_data_control(dev, index, I2C_CONTROL_WRITE_COMMAND_MSK);
   21d14:	e0bffe03 	ldbu	r2,-8(fp)
   21d18:	01800404 	movi	r6,16
   21d1c:	100b883a 	mov	r5,r2
   21d20:	e13ffc17 	ldw	r4,-16(fp)
   21d24:	0021ab40 	call	21ab4 <set_data_control>

    /* error: bad acknowledge */
    if (I2C_RD_STATUS(dev->base) & I2C_STATUS_LAST_ACKNOWLEDGE_RECEIVED_MSK) {
   21d28:	e0bffc17 	ldw	r2,-16(fp)
   21d2c:	10800017 	ldw	r2,0(r2)
   21d30:	10800084 	addi	r2,r2,2
   21d34:	10800023 	ldbuio	r2,0(r2)
   21d38:	10803fcc 	andi	r2,r2,255
   21d3c:	1080004c 	andi	r2,r2,1
   21d40:	10000726 	beq	r2,zero,21d60 <i2c_write+0xc8>
        I2C_WR_CONTROL(dev->base, I2C_CONTROL_GENERATE_STOP_SEQUENCE_MSK);
   21d44:	e0bffc17 	ldw	r2,-16(fp)
   21d48:	10800017 	ldw	r2,0(r2)
   21d4c:	10800044 	addi	r2,r2,1
   21d50:	00c00084 	movi	r3,2
   21d54:	10c00025 	stbio	r3,0(r2)
        return I2C_EBADACK;
   21d58:	00800084 	movi	r2,2
   21d5c:	00001406 	br	21db0 <i2c_write+0x118>
    }

    /* write register data to device */
    set_data_control(dev, value, I2C_CONTROL_GENERATE_STOP_SEQUENCE_MSK | I2C_CONTROL_WRITE_COMMAND_MSK);
   21d60:	e0bfff03 	ldbu	r2,-4(fp)
   21d64:	01800484 	movi	r6,18
   21d68:	100b883a 	mov	r5,r2
   21d6c:	e13ffc17 	ldw	r4,-16(fp)
   21d70:	0021ab40 	call	21ab4 <set_data_control>

    /* error: bad acknowledge */
    if (I2C_RD_STATUS(dev->base) & I2C_STATUS_LAST_ACKNOWLEDGE_RECEIVED_MSK) {
   21d74:	e0bffc17 	ldw	r2,-16(fp)
   21d78:	10800017 	ldw	r2,0(r2)
   21d7c:	10800084 	addi	r2,r2,2
   21d80:	10800023 	ldbuio	r2,0(r2)
   21d84:	10803fcc 	andi	r2,r2,255
   21d88:	1080004c 	andi	r2,r2,1
   21d8c:	10000726 	beq	r2,zero,21dac <i2c_write+0x114>
        I2C_WR_CONTROL(dev->base, I2C_CONTROL_GENERATE_STOP_SEQUENCE_MSK);
   21d90:	e0bffc17 	ldw	r2,-16(fp)
   21d94:	10800017 	ldw	r2,0(r2)
   21d98:	10800044 	addi	r2,r2,1
   21d9c:	00c00084 	movi	r3,2
   21da0:	10c00025 	stbio	r3,0(r2)
        return I2C_EBADACK;
   21da4:	00800084 	movi	r2,2
   21da8:	00000106 	br	21db0 <i2c_write+0x118>
    }

    return I2C_SUCCESS;
   21dac:	0005883a 	mov	r2,zero
}
   21db0:	e037883a 	mov	sp,fp
   21db4:	dfc00117 	ldw	ra,4(sp)
   21db8:	df000017 	ldw	fp,0(sp)
   21dbc:	dec00204 	addi	sp,sp,8
   21dc0:	f800283a 	ret

00021dc4 <i2c_read>:
 *
 * Returns: I2C_SUCCESS -> success
 *          I2C_ENODEV  -> device does not answer
 *          I2C_EBADACK -> bad acknowledge received
 */
int i2c_read(i2c_dev *dev, uint8_t device, uint8_t index, uint8_t *value) {
   21dc4:	defffa04 	addi	sp,sp,-24
   21dc8:	dfc00515 	stw	ra,20(sp)
   21dcc:	df000415 	stw	fp,16(sp)
   21dd0:	df000404 	addi	fp,sp,16
   21dd4:	e13ffc15 	stw	r4,-16(fp)
   21dd8:	2807883a 	mov	r3,r5
   21ddc:	3005883a 	mov	r2,r6
   21de0:	e1ffff15 	stw	r7,-4(fp)
   21de4:	e0fffd05 	stb	r3,-12(fp)
   21de8:	e0bffe05 	stb	r2,-8(fp)
    /* write to the device with the R/W bit set to 0 (write mode) */
    set_data_control(dev, device & 0xFE, I2C_CONTROL_GENERATE_START_SEQUENCE_MSK | I2C_CONTROL_WRITE_COMMAND_MSK);
   21dec:	e0bffd03 	ldbu	r2,-12(fp)
   21df0:	10803f8c 	andi	r2,r2,254
   21df4:	01800504 	movi	r6,20
   21df8:	100b883a 	mov	r5,r2
   21dfc:	e13ffc17 	ldw	r4,-16(fp)
   21e00:	0021ab40 	call	21ab4 <set_data_control>

    /* error: device does not answer */
    if (I2C_RD_STATUS(dev->base) & I2C_STATUS_LAST_ACKNOWLEDGE_RECEIVED_MSK) {
   21e04:	e0bffc17 	ldw	r2,-16(fp)
   21e08:	10800017 	ldw	r2,0(r2)
   21e0c:	10800084 	addi	r2,r2,2
   21e10:	10800023 	ldbuio	r2,0(r2)
   21e14:	10803fcc 	andi	r2,r2,255
   21e18:	1080004c 	andi	r2,r2,1
   21e1c:	10000726 	beq	r2,zero,21e3c <i2c_read+0x78>
        I2C_WR_CONTROL(dev->base, I2C_CONTROL_GENERATE_STOP_SEQUENCE_MSK);
   21e20:	e0bffc17 	ldw	r2,-16(fp)
   21e24:	10800017 	ldw	r2,0(r2)
   21e28:	10800044 	addi	r2,r2,1
   21e2c:	00c00084 	movi	r3,2
   21e30:	10c00025 	stbio	r3,0(r2)
        return I2C_ENODEV;
   21e34:	00800044 	movi	r2,1
   21e38:	00002f06 	br	21ef8 <i2c_read+0x134>
    }

    /* write register index to device */
    set_data_control(dev, index, I2C_CONTROL_WRITE_COMMAND_MSK);
   21e3c:	e0bffe03 	ldbu	r2,-8(fp)
   21e40:	01800404 	movi	r6,16
   21e44:	100b883a 	mov	r5,r2
   21e48:	e13ffc17 	ldw	r4,-16(fp)
   21e4c:	0021ab40 	call	21ab4 <set_data_control>

    /* error: bad acknowledge */
    if (I2C_RD_STATUS(dev->base) & I2C_STATUS_LAST_ACKNOWLEDGE_RECEIVED_MSK) {
   21e50:	e0bffc17 	ldw	r2,-16(fp)
   21e54:	10800017 	ldw	r2,0(r2)
   21e58:	10800084 	addi	r2,r2,2
   21e5c:	10800023 	ldbuio	r2,0(r2)
   21e60:	10803fcc 	andi	r2,r2,255
   21e64:	1080004c 	andi	r2,r2,1
   21e68:	10000726 	beq	r2,zero,21e88 <i2c_read+0xc4>
        I2C_WR_CONTROL(dev->base, I2C_CONTROL_GENERATE_STOP_SEQUENCE_MSK);
   21e6c:	e0bffc17 	ldw	r2,-16(fp)
   21e70:	10800017 	ldw	r2,0(r2)
   21e74:	10800044 	addi	r2,r2,1
   21e78:	00c00084 	movi	r3,2
   21e7c:	10c00025 	stbio	r3,0(r2)
        return I2C_EBADACK;
   21e80:	00800084 	movi	r2,2
   21e84:	00001c06 	br	21ef8 <i2c_read+0x134>
    }

    /* write to the device with the R/W bit set to 1 (read mode) */
    set_data_control(dev, device | 0x01, I2C_CONTROL_GENERATE_START_SEQUENCE_MSK | I2C_CONTROL_WRITE_COMMAND_MSK);
   21e88:	e0bffd03 	ldbu	r2,-12(fp)
   21e8c:	10800054 	ori	r2,r2,1
   21e90:	10803fcc 	andi	r2,r2,255
   21e94:	01800504 	movi	r6,20
   21e98:	100b883a 	mov	r5,r2
   21e9c:	e13ffc17 	ldw	r4,-16(fp)
   21ea0:	0021ab40 	call	21ab4 <set_data_control>

    /* error: device does not answer */
    if (I2C_RD_STATUS(dev->base) & I2C_STATUS_LAST_ACKNOWLEDGE_RECEIVED_MSK) {
   21ea4:	e0bffc17 	ldw	r2,-16(fp)
   21ea8:	10800017 	ldw	r2,0(r2)
   21eac:	10800084 	addi	r2,r2,2
   21eb0:	10800023 	ldbuio	r2,0(r2)
   21eb4:	10803fcc 	andi	r2,r2,255
   21eb8:	1080004c 	andi	r2,r2,1
   21ebc:	10000726 	beq	r2,zero,21edc <i2c_read+0x118>
        I2C_WR_CONTROL(dev->base, I2C_CONTROL_GENERATE_STOP_SEQUENCE_MSK);
   21ec0:	e0bffc17 	ldw	r2,-16(fp)
   21ec4:	10800017 	ldw	r2,0(r2)
   21ec8:	10800044 	addi	r2,r2,1
   21ecc:	00c00084 	movi	r3,2
   21ed0:	10c00025 	stbio	r3,0(r2)
        return I2C_ENODEV;
   21ed4:	00800044 	movi	r2,1
   21ed8:	00000706 	br	21ef8 <i2c_read+0x134>
    }

    /* Read the data. Attention: write I2C_CONTROL_ACKNOWLEDGE_READ_MSK to control register to send a N0_ACK */
    *value = get_data_set_control(dev, I2C_CONTROL_GENERATE_STOP_SEQUENCE_MSK | I2C_CONTROL_READ_COMMAND_MSK | I2C_CONTROL_ACKNOWLEDGE_READ_MSK);
   21edc:	014002c4 	movi	r5,11
   21ee0:	e13ffc17 	ldw	r4,-16(fp)
   21ee4:	0021b240 	call	21b24 <get_data_set_control>
   21ee8:	1007883a 	mov	r3,r2
   21eec:	e0bfff17 	ldw	r2,-4(fp)
   21ef0:	10c00005 	stb	r3,0(r2)

    return I2C_SUCCESS;
   21ef4:	0005883a 	mov	r2,zero
}
   21ef8:	e037883a 	mov	sp,fp
   21efc:	dfc00117 	ldw	ra,4(sp)
   21f00:	df000017 	ldw	fp,0(sp)
   21f04:	dec00204 	addi	sp,sp,8
   21f08:	f800283a 	ret

00021f0c <i2c_write_array>:
 *
 * Returns: I2C_SUCCESS -> success
 *          I2C_ENODEV  -> device does not answer
 *          I2C_EBADACK -> bad acknowledge received
 */
int i2c_write_array(i2c_dev *dev, uint8_t device, uint8_t index, uint8_t *value, unsigned int size) {
   21f0c:	defff904 	addi	sp,sp,-28
   21f10:	dfc00615 	stw	ra,24(sp)
   21f14:	df000515 	stw	fp,20(sp)
   21f18:	df000504 	addi	fp,sp,20
   21f1c:	e13ffc15 	stw	r4,-16(fp)
   21f20:	2807883a 	mov	r3,r5
   21f24:	3005883a 	mov	r2,r6
   21f28:	e1ffff15 	stw	r7,-4(fp)
   21f2c:	e0fffd05 	stb	r3,-12(fp)
   21f30:	e0bffe05 	stb	r2,-8(fp)
    /* write to the device with the R/W bit set to 0 (write mode) */
    set_data_control(dev, device & 0xFE, I2C_CONTROL_GENERATE_START_SEQUENCE_MSK | I2C_CONTROL_WRITE_COMMAND_MSK);
   21f34:	e0bffd03 	ldbu	r2,-12(fp)
   21f38:	10803f8c 	andi	r2,r2,254
   21f3c:	01800504 	movi	r6,20
   21f40:	100b883a 	mov	r5,r2
   21f44:	e13ffc17 	ldw	r4,-16(fp)
   21f48:	0021ab40 	call	21ab4 <set_data_control>

    /* error: device does not answer */
    if (I2C_RD_STATUS(dev->base) & I2C_STATUS_LAST_ACKNOWLEDGE_RECEIVED_MSK) {
   21f4c:	e0bffc17 	ldw	r2,-16(fp)
   21f50:	10800017 	ldw	r2,0(r2)
   21f54:	10800084 	addi	r2,r2,2
   21f58:	10800023 	ldbuio	r2,0(r2)
   21f5c:	10803fcc 	andi	r2,r2,255
   21f60:	1080004c 	andi	r2,r2,1
   21f64:	10000726 	beq	r2,zero,21f84 <i2c_write_array+0x78>
        I2C_WR_CONTROL(dev->base, I2C_CONTROL_GENERATE_STOP_SEQUENCE_MSK);
   21f68:	e0bffc17 	ldw	r2,-16(fp)
   21f6c:	10800017 	ldw	r2,0(r2)
   21f70:	10800044 	addi	r2,r2,1
   21f74:	00c00084 	movi	r3,2
   21f78:	10c00025 	stbio	r3,0(r2)
        return I2C_ENODEV;
   21f7c:	00800044 	movi	r2,1
   21f80:	00004206 	br	2208c <i2c_write_array+0x180>
    }

    /* write register index to device */
    set_data_control(dev, index, I2C_CONTROL_WRITE_COMMAND_MSK);
   21f84:	e0bffe03 	ldbu	r2,-8(fp)
   21f88:	01800404 	movi	r6,16
   21f8c:	100b883a 	mov	r5,r2
   21f90:	e13ffc17 	ldw	r4,-16(fp)
   21f94:	0021ab40 	call	21ab4 <set_data_control>

    /* error: bad acknowledge */
    if (I2C_RD_STATUS(dev->base) & I2C_STATUS_LAST_ACKNOWLEDGE_RECEIVED_MSK) {
   21f98:	e0bffc17 	ldw	r2,-16(fp)
   21f9c:	10800017 	ldw	r2,0(r2)
   21fa0:	10800084 	addi	r2,r2,2
   21fa4:	10800023 	ldbuio	r2,0(r2)
   21fa8:	10803fcc 	andi	r2,r2,255
   21fac:	1080004c 	andi	r2,r2,1
   21fb0:	10000726 	beq	r2,zero,21fd0 <i2c_write_array+0xc4>
        I2C_WR_CONTROL(dev->base, I2C_CONTROL_GENERATE_STOP_SEQUENCE_MSK);
   21fb4:	e0bffc17 	ldw	r2,-16(fp)
   21fb8:	10800017 	ldw	r2,0(r2)
   21fbc:	10800044 	addi	r2,r2,1
   21fc0:	00c00084 	movi	r3,2
   21fc4:	10c00025 	stbio	r3,0(r2)
        return I2C_EBADACK;
   21fc8:	00800084 	movi	r2,2
   21fcc:	00002f06 	br	2208c <i2c_write_array+0x180>
    }

    unsigned int i = 0;
   21fd0:	e03ffb15 	stw	zero,-20(fp)
    for (i = 0; i < size; i++) {
   21fd4:	e03ffb15 	stw	zero,-20(fp)
   21fd8:	00002806 	br	2207c <i2c_write_array+0x170>
        /* write register data to device */
        if (i < size - 1) {
   21fdc:	e0800217 	ldw	r2,8(fp)
   21fe0:	10bfffc4 	addi	r2,r2,-1
   21fe4:	e0fffb17 	ldw	r3,-20(fp)
   21fe8:	18800a2e 	bgeu	r3,r2,22014 <i2c_write_array+0x108>
            set_data_control(dev, value[i], I2C_CONTROL_WRITE_COMMAND_MSK);
   21fec:	e0ffff17 	ldw	r3,-4(fp)
   21ff0:	e0bffb17 	ldw	r2,-20(fp)
   21ff4:	1885883a 	add	r2,r3,r2
   21ff8:	10800003 	ldbu	r2,0(r2)
   21ffc:	10803fcc 	andi	r2,r2,255
   22000:	01800404 	movi	r6,16
   22004:	100b883a 	mov	r5,r2
   22008:	e13ffc17 	ldw	r4,-16(fp)
   2200c:	0021ab40 	call	21ab4 <set_data_control>
   22010:	00000906 	br	22038 <i2c_write_array+0x12c>
        } else {
            set_data_control(dev, value[i], I2C_CONTROL_GENERATE_STOP_SEQUENCE_MSK | I2C_CONTROL_WRITE_COMMAND_MSK);
   22014:	e0ffff17 	ldw	r3,-4(fp)
   22018:	e0bffb17 	ldw	r2,-20(fp)
   2201c:	1885883a 	add	r2,r3,r2
   22020:	10800003 	ldbu	r2,0(r2)
   22024:	10803fcc 	andi	r2,r2,255
   22028:	01800484 	movi	r6,18
   2202c:	100b883a 	mov	r5,r2
   22030:	e13ffc17 	ldw	r4,-16(fp)
   22034:	0021ab40 	call	21ab4 <set_data_control>

        }

        /* error: bad acknowledge */
        if (I2C_RD_STATUS(dev->base) & I2C_STATUS_LAST_ACKNOWLEDGE_RECEIVED_MSK) {
   22038:	e0bffc17 	ldw	r2,-16(fp)
   2203c:	10800017 	ldw	r2,0(r2)
   22040:	10800084 	addi	r2,r2,2
   22044:	10800023 	ldbuio	r2,0(r2)
   22048:	10803fcc 	andi	r2,r2,255
   2204c:	1080004c 	andi	r2,r2,1
   22050:	10000726 	beq	r2,zero,22070 <i2c_write_array+0x164>
            I2C_WR_CONTROL(dev->base, I2C_CONTROL_GENERATE_STOP_SEQUENCE_MSK);
   22054:	e0bffc17 	ldw	r2,-16(fp)
   22058:	10800017 	ldw	r2,0(r2)
   2205c:	10800044 	addi	r2,r2,1
   22060:	00c00084 	movi	r3,2
   22064:	10c00025 	stbio	r3,0(r2)
            return I2C_EBADACK;
   22068:	00800084 	movi	r2,2
   2206c:	00000706 	br	2208c <i2c_write_array+0x180>
        I2C_WR_CONTROL(dev->base, I2C_CONTROL_GENERATE_STOP_SEQUENCE_MSK);
        return I2C_EBADACK;
    }

    unsigned int i = 0;
    for (i = 0; i < size; i++) {
   22070:	e0bffb17 	ldw	r2,-20(fp)
   22074:	10800044 	addi	r2,r2,1
   22078:	e0bffb15 	stw	r2,-20(fp)
   2207c:	e0fffb17 	ldw	r3,-20(fp)
   22080:	e0800217 	ldw	r2,8(fp)
   22084:	18bfd536 	bltu	r3,r2,21fdc <__alt_mem_sdram_controller_0+0xc0021fdc>
            I2C_WR_CONTROL(dev->base, I2C_CONTROL_GENERATE_STOP_SEQUENCE_MSK);
            return I2C_EBADACK;
        }
    }

    return I2C_SUCCESS;
   22088:	0005883a 	mov	r2,zero
}
   2208c:	e037883a 	mov	sp,fp
   22090:	dfc00117 	ldw	ra,4(sp)
   22094:	df000017 	ldw	fp,0(sp)
   22098:	dec00204 	addi	sp,sp,8
   2209c:	f800283a 	ret

000220a0 <i2c_read_array>:
 *
 * Returns: I2C_SUCCESS -> success
 *          I2C_ENODEV  -> device does not answer
 *          I2C_EBADACK -> bad acknowledge received
 */
int i2c_read_array(i2c_dev *dev, uint8_t device, uint8_t index, uint8_t *value, unsigned int size) {
   220a0:	defff804 	addi	sp,sp,-32
   220a4:	dfc00715 	stw	ra,28(sp)
   220a8:	df000615 	stw	fp,24(sp)
   220ac:	dc000515 	stw	r16,20(sp)
   220b0:	df000604 	addi	fp,sp,24
   220b4:	e13ffb15 	stw	r4,-20(fp)
   220b8:	2807883a 	mov	r3,r5
   220bc:	3005883a 	mov	r2,r6
   220c0:	e1fffe15 	stw	r7,-8(fp)
   220c4:	e0fffc05 	stb	r3,-16(fp)
   220c8:	e0bffd05 	stb	r2,-12(fp)
    /* write to the device with the R/W bit set to 0 (write mode) */
    set_data_control(dev, device & 0xFE, I2C_CONTROL_GENERATE_START_SEQUENCE_MSK | I2C_CONTROL_WRITE_COMMAND_MSK);
   220cc:	e0bffc03 	ldbu	r2,-16(fp)
   220d0:	10803f8c 	andi	r2,r2,254
   220d4:	01800504 	movi	r6,20
   220d8:	100b883a 	mov	r5,r2
   220dc:	e13ffb17 	ldw	r4,-20(fp)
   220e0:	0021ab40 	call	21ab4 <set_data_control>

    /* error: device does not answer */
    if (I2C_RD_STATUS(dev->base) & I2C_STATUS_LAST_ACKNOWLEDGE_RECEIVED_MSK) {
   220e4:	e0bffb17 	ldw	r2,-20(fp)
   220e8:	10800017 	ldw	r2,0(r2)
   220ec:	10800084 	addi	r2,r2,2
   220f0:	10800023 	ldbuio	r2,0(r2)
   220f4:	10803fcc 	andi	r2,r2,255
   220f8:	1080004c 	andi	r2,r2,1
   220fc:	10000726 	beq	r2,zero,2211c <i2c_read_array+0x7c>
        I2C_WR_CONTROL(dev->base, I2C_CONTROL_GENERATE_STOP_SEQUENCE_MSK);
   22100:	e0bffb17 	ldw	r2,-20(fp)
   22104:	10800017 	ldw	r2,0(r2)
   22108:	10800044 	addi	r2,r2,1
   2210c:	00c00084 	movi	r3,2
   22110:	10c00025 	stbio	r3,0(r2)
        return I2C_ENODEV;
   22114:	00800044 	movi	r2,1
   22118:	00004506 	br	22230 <i2c_read_array+0x190>
    }

    /* write register index to device */
    set_data_control(dev, index, I2C_CONTROL_WRITE_COMMAND_MSK);
   2211c:	e0bffd03 	ldbu	r2,-12(fp)
   22120:	01800404 	movi	r6,16
   22124:	100b883a 	mov	r5,r2
   22128:	e13ffb17 	ldw	r4,-20(fp)
   2212c:	0021ab40 	call	21ab4 <set_data_control>

    /* error: bad acknowledge */
    if (I2C_RD_STATUS(dev->base) & I2C_STATUS_LAST_ACKNOWLEDGE_RECEIVED_MSK) {
   22130:	e0bffb17 	ldw	r2,-20(fp)
   22134:	10800017 	ldw	r2,0(r2)
   22138:	10800084 	addi	r2,r2,2
   2213c:	10800023 	ldbuio	r2,0(r2)
   22140:	10803fcc 	andi	r2,r2,255
   22144:	1080004c 	andi	r2,r2,1
   22148:	10000726 	beq	r2,zero,22168 <i2c_read_array+0xc8>
        I2C_WR_CONTROL(dev->base, I2C_CONTROL_GENERATE_STOP_SEQUENCE_MSK);
   2214c:	e0bffb17 	ldw	r2,-20(fp)
   22150:	10800017 	ldw	r2,0(r2)
   22154:	10800044 	addi	r2,r2,1
   22158:	00c00084 	movi	r3,2
   2215c:	10c00025 	stbio	r3,0(r2)
        return I2C_EBADACK;
   22160:	00800084 	movi	r2,2
   22164:	00003206 	br	22230 <i2c_read_array+0x190>
    }

    /* write to the device with the R/W bit set to 1 (read mode) */
    set_data_control(dev, device | 0x01, I2C_CONTROL_GENERATE_START_SEQUENCE_MSK | I2C_CONTROL_WRITE_COMMAND_MSK);
   22168:	e0bffc03 	ldbu	r2,-16(fp)
   2216c:	10800054 	ori	r2,r2,1
   22170:	10803fcc 	andi	r2,r2,255
   22174:	01800504 	movi	r6,20
   22178:	100b883a 	mov	r5,r2
   2217c:	e13ffb17 	ldw	r4,-20(fp)
   22180:	0021ab40 	call	21ab4 <set_data_control>

    /* error: device does not answer */
    if (I2C_RD_STATUS(dev->base) & I2C_STATUS_LAST_ACKNOWLEDGE_RECEIVED_MSK) {
   22184:	e0bffb17 	ldw	r2,-20(fp)
   22188:	10800017 	ldw	r2,0(r2)
   2218c:	10800084 	addi	r2,r2,2
   22190:	10800023 	ldbuio	r2,0(r2)
   22194:	10803fcc 	andi	r2,r2,255
   22198:	1080004c 	andi	r2,r2,1
   2219c:	10000726 	beq	r2,zero,221bc <i2c_read_array+0x11c>
        I2C_WR_CONTROL(dev->base, I2C_CONTROL_GENERATE_STOP_SEQUENCE_MSK);
   221a0:	e0bffb17 	ldw	r2,-20(fp)
   221a4:	10800017 	ldw	r2,0(r2)
   221a8:	10800044 	addi	r2,r2,1
   221ac:	00c00084 	movi	r3,2
   221b0:	10c00025 	stbio	r3,0(r2)
        return I2C_ENODEV;
   221b4:	00800044 	movi	r2,1
   221b8:	00001d06 	br	22230 <i2c_read_array+0x190>
    }

    unsigned int i = 0;
   221bc:	e03ffa15 	stw	zero,-24(fp)
    for (i = 0; i < size; i++) {
   221c0:	e03ffa15 	stw	zero,-24(fp)
   221c4:	00001606 	br	22220 <i2c_read_array+0x180>
        if (i < size - 1) {
   221c8:	e0800217 	ldw	r2,8(fp)
   221cc:	10bfffc4 	addi	r2,r2,-1
   221d0:	e0fffa17 	ldw	r3,-24(fp)
   221d4:	1880082e 	bgeu	r3,r2,221f8 <i2c_read_array+0x158>
            value[i] = get_data_set_control(dev, I2C_CONTROL_READ_COMMAND_MSK);
   221d8:	e0fffe17 	ldw	r3,-8(fp)
   221dc:	e0bffa17 	ldw	r2,-24(fp)
   221e0:	18a1883a 	add	r16,r3,r2
   221e4:	01400204 	movi	r5,8
   221e8:	e13ffb17 	ldw	r4,-20(fp)
   221ec:	0021b240 	call	21b24 <get_data_set_control>
   221f0:	80800005 	stb	r2,0(r16)
   221f4:	00000706 	br	22214 <i2c_read_array+0x174>
        } else {
            /* Read the data. Attention: write I2C_CONTROL_ACKNOWLEDGE_READ_MSK to control register to send a N0_ACK */
            value[i] = get_data_set_control(dev, I2C_CONTROL_GENERATE_STOP_SEQUENCE_MSK | I2C_CONTROL_READ_COMMAND_MSK | I2C_CONTROL_ACKNOWLEDGE_READ_MSK);
   221f8:	e0fffe17 	ldw	r3,-8(fp)
   221fc:	e0bffa17 	ldw	r2,-24(fp)
   22200:	18a1883a 	add	r16,r3,r2
   22204:	014002c4 	movi	r5,11
   22208:	e13ffb17 	ldw	r4,-20(fp)
   2220c:	0021b240 	call	21b24 <get_data_set_control>
   22210:	80800005 	stb	r2,0(r16)
        I2C_WR_CONTROL(dev->base, I2C_CONTROL_GENERATE_STOP_SEQUENCE_MSK);
        return I2C_ENODEV;
    }

    unsigned int i = 0;
    for (i = 0; i < size; i++) {
   22214:	e0bffa17 	ldw	r2,-24(fp)
   22218:	10800044 	addi	r2,r2,1
   2221c:	e0bffa15 	stw	r2,-24(fp)
   22220:	e0fffa17 	ldw	r3,-24(fp)
   22224:	e0800217 	ldw	r2,8(fp)
   22228:	18bfe736 	bltu	r3,r2,221c8 <__alt_mem_sdram_controller_0+0xc00221c8>
            /* Read the data. Attention: write I2C_CONTROL_ACKNOWLEDGE_READ_MSK to control register to send a N0_ACK */
            value[i] = get_data_set_control(dev, I2C_CONTROL_GENERATE_STOP_SEQUENCE_MSK | I2C_CONTROL_READ_COMMAND_MSK | I2C_CONTROL_ACKNOWLEDGE_READ_MSK);
        }
    }

    return I2C_SUCCESS;
   2222c:	0005883a 	mov	r2,zero
}
   22230:	e6ffff04 	addi	sp,fp,-4
   22234:	dfc00217 	ldw	ra,8(sp)
   22238:	df000117 	ldw	fp,4(sp)
   2223c:	dc000017 	ldw	r16,0(sp)
   22240:	dec00304 	addi	sp,sp,12
   22244:	f800283a 	ret

00022248 <TRDB_D5M_log2>:
///////////////////////
// GENERAL FUNCTIONS //
///////////////////////

// Calculates log2 of a number. Attention: the number must be a power of 2
static uint16_t TRDB_D5M_log2(uint16_t power_of_2) {
   22248:	defffe04 	addi	sp,sp,-8
   2224c:	df000115 	stw	fp,4(sp)
   22250:	df000104 	addi	fp,sp,4
   22254:	2005883a 	mov	r2,r4
   22258:	e0bfff0d 	sth	r2,-4(fp)
    if      (power_of_2 == 0x0001) return 0;
   2225c:	e0bfff0b 	ldhu	r2,-4(fp)
   22260:	10800058 	cmpnei	r2,r2,1
   22264:	1000021e 	bne	r2,zero,22270 <TRDB_D5M_log2+0x28>
   22268:	0005883a 	mov	r2,zero
   2226c:	00004706 	br	2238c <TRDB_D5M_log2+0x144>
    else if (power_of_2 == 0x0002) return 1;
   22270:	e0bfff0b 	ldhu	r2,-4(fp)
   22274:	10800098 	cmpnei	r2,r2,2
   22278:	1000021e 	bne	r2,zero,22284 <TRDB_D5M_log2+0x3c>
   2227c:	00800044 	movi	r2,1
   22280:	00004206 	br	2238c <TRDB_D5M_log2+0x144>
    else if (power_of_2 == 0x0004) return 2;
   22284:	e0bfff0b 	ldhu	r2,-4(fp)
   22288:	10800118 	cmpnei	r2,r2,4
   2228c:	1000021e 	bne	r2,zero,22298 <TRDB_D5M_log2+0x50>
   22290:	00800084 	movi	r2,2
   22294:	00003d06 	br	2238c <TRDB_D5M_log2+0x144>
    else if (power_of_2 == 0x0008) return 3;
   22298:	e0bfff0b 	ldhu	r2,-4(fp)
   2229c:	10800218 	cmpnei	r2,r2,8
   222a0:	1000021e 	bne	r2,zero,222ac <TRDB_D5M_log2+0x64>
   222a4:	008000c4 	movi	r2,3
   222a8:	00003806 	br	2238c <TRDB_D5M_log2+0x144>
    else if (power_of_2 == 0x0010) return 4;
   222ac:	e0bfff0b 	ldhu	r2,-4(fp)
   222b0:	10800418 	cmpnei	r2,r2,16
   222b4:	1000021e 	bne	r2,zero,222c0 <TRDB_D5M_log2+0x78>
   222b8:	00800104 	movi	r2,4
   222bc:	00003306 	br	2238c <TRDB_D5M_log2+0x144>
    else if (power_of_2 == 0x0020) return 5;
   222c0:	e0bfff0b 	ldhu	r2,-4(fp)
   222c4:	10800818 	cmpnei	r2,r2,32
   222c8:	1000021e 	bne	r2,zero,222d4 <TRDB_D5M_log2+0x8c>
   222cc:	00800144 	movi	r2,5
   222d0:	00002e06 	br	2238c <TRDB_D5M_log2+0x144>
    else if (power_of_2 == 0x0040) return 6;
   222d4:	e0bfff0b 	ldhu	r2,-4(fp)
   222d8:	10801018 	cmpnei	r2,r2,64
   222dc:	1000021e 	bne	r2,zero,222e8 <TRDB_D5M_log2+0xa0>
   222e0:	00800184 	movi	r2,6
   222e4:	00002906 	br	2238c <TRDB_D5M_log2+0x144>
    else if (power_of_2 == 0x0080) return 7;
   222e8:	e0bfff0b 	ldhu	r2,-4(fp)
   222ec:	10802018 	cmpnei	r2,r2,128
   222f0:	1000021e 	bne	r2,zero,222fc <TRDB_D5M_log2+0xb4>
   222f4:	008001c4 	movi	r2,7
   222f8:	00002406 	br	2238c <TRDB_D5M_log2+0x144>
    else if (power_of_2 == 0x0100) return 8;
   222fc:	e0bfff0b 	ldhu	r2,-4(fp)
   22300:	10804018 	cmpnei	r2,r2,256
   22304:	1000021e 	bne	r2,zero,22310 <TRDB_D5M_log2+0xc8>
   22308:	00800204 	movi	r2,8
   2230c:	00001f06 	br	2238c <TRDB_D5M_log2+0x144>
    else if (power_of_2 == 0x0200) return 9;
   22310:	e0bfff0b 	ldhu	r2,-4(fp)
   22314:	10808018 	cmpnei	r2,r2,512
   22318:	1000021e 	bne	r2,zero,22324 <TRDB_D5M_log2+0xdc>
   2231c:	00800244 	movi	r2,9
   22320:	00001a06 	br	2238c <TRDB_D5M_log2+0x144>
    else if (power_of_2 == 0x0400) return 10;
   22324:	e0bfff0b 	ldhu	r2,-4(fp)
   22328:	10810018 	cmpnei	r2,r2,1024
   2232c:	1000021e 	bne	r2,zero,22338 <TRDB_D5M_log2+0xf0>
   22330:	00800284 	movi	r2,10
   22334:	00001506 	br	2238c <TRDB_D5M_log2+0x144>
    else if (power_of_2 == 0x0800) return 11;
   22338:	e0bfff0b 	ldhu	r2,-4(fp)
   2233c:	10820018 	cmpnei	r2,r2,2048
   22340:	1000021e 	bne	r2,zero,2234c <TRDB_D5M_log2+0x104>
   22344:	008002c4 	movi	r2,11
   22348:	00001006 	br	2238c <TRDB_D5M_log2+0x144>
    else if (power_of_2 == 0x1000) return 12;
   2234c:	e0bfff0b 	ldhu	r2,-4(fp)
   22350:	10840018 	cmpnei	r2,r2,4096
   22354:	1000021e 	bne	r2,zero,22360 <TRDB_D5M_log2+0x118>
   22358:	00800304 	movi	r2,12
   2235c:	00000b06 	br	2238c <TRDB_D5M_log2+0x144>
    else if (power_of_2 == 0x2000) return 13;
   22360:	e0bfff0b 	ldhu	r2,-4(fp)
   22364:	10880018 	cmpnei	r2,r2,8192
   22368:	1000021e 	bne	r2,zero,22374 <TRDB_D5M_log2+0x12c>
   2236c:	00800344 	movi	r2,13
   22370:	00000606 	br	2238c <TRDB_D5M_log2+0x144>
    else if (power_of_2 == 0x4000) return 14;
   22374:	e0bfff0b 	ldhu	r2,-4(fp)
   22378:	10900018 	cmpnei	r2,r2,16384
   2237c:	1000021e 	bne	r2,zero,22388 <TRDB_D5M_log2+0x140>
   22380:	00800384 	movi	r2,14
   22384:	00000106 	br	2238c <TRDB_D5M_log2+0x144>
    else                           return 15;
   22388:	008003c4 	movi	r2,15
}
   2238c:	e037883a 	mov	sp,fp
   22390:	df000017 	ldw	fp,0(sp)
   22394:	dec00104 	addi	sp,sp,4
   22398:	f800283a 	ret

0002239c <TRDB_D5M_shift_amount>:

static uint16_t TRDB_D5M_shift_amount(uint16_t mask) {
   2239c:	defffd04 	addi	sp,sp,-12
   223a0:	dfc00215 	stw	ra,8(sp)
   223a4:	df000115 	stw	fp,4(sp)
   223a8:	df000104 	addi	fp,sp,4
   223ac:	2005883a 	mov	r2,r4
   223b0:	e0bfff0d 	sth	r2,-4(fp)
    // (mask & -mask) clears all but the lowest bit of x
    return TRDB_D5M_log2(mask & (~mask + 1));
   223b4:	e0bfff0b 	ldhu	r2,-4(fp)
   223b8:	0085c83a 	sub	r2,zero,r2
   223bc:	1007883a 	mov	r3,r2
   223c0:	e0bfff0b 	ldhu	r2,-4(fp)
   223c4:	1884703a 	and	r2,r3,r2
   223c8:	10bfffcc 	andi	r2,r2,65535
   223cc:	1009883a 	mov	r4,r2
   223d0:	00222480 	call	22248 <TRDB_D5M_log2>
}
   223d4:	e037883a 	mov	sp,fp
   223d8:	dfc00117 	ldw	ra,4(sp)
   223dc:	df000017 	ldw	fp,0(sp)
   223e0:	dec00204 	addi	sp,sp,8
   223e4:	f800283a 	ret

000223e8 <TRDB_D5M_READ>:

static uint16_t TRDB_D5M_READ(uint16_t full_reg_value, uint16_t mask) {
   223e8:	defffb04 	addi	sp,sp,-20
   223ec:	dfc00415 	stw	ra,16(sp)
   223f0:	df000315 	stw	fp,12(sp)
   223f4:	dc000215 	stw	r16,8(sp)
   223f8:	df000304 	addi	fp,sp,12
   223fc:	2007883a 	mov	r3,r4
   22400:	2805883a 	mov	r2,r5
   22404:	e0fffd0d 	sth	r3,-12(fp)
   22408:	e0bffe0d 	sth	r2,-8(fp)
    return (full_reg_value & mask) >> TRDB_D5M_shift_amount(mask);
   2240c:	e0fffd0b 	ldhu	r3,-12(fp)
   22410:	e0bffe0b 	ldhu	r2,-8(fp)
   22414:	1884703a 	and	r2,r3,r2
   22418:	143fffcc 	andi	r16,r2,65535
   2241c:	e0bffe0b 	ldhu	r2,-8(fp)
   22420:	1009883a 	mov	r4,r2
   22424:	002239c0 	call	2239c <TRDB_D5M_shift_amount>
   22428:	10bfffcc 	andi	r2,r2,65535
   2242c:	8085d83a 	sra	r2,r16,r2
}
   22430:	e6ffff04 	addi	sp,fp,-4
   22434:	dfc00217 	ldw	ra,8(sp)
   22438:	df000117 	ldw	fp,4(sp)
   2243c:	dc000017 	ldw	r16,0(sp)
   22440:	dec00304 	addi	sp,sp,12
   22444:	f800283a 	ret

00022448 <TRDB_D5M_WRITE>:

static uint16_t TRDB_D5M_WRITE(uint16_t full_reg_value, uint16_t mask, uint16_t write_value) {
   22448:	defffa04 	addi	sp,sp,-24
   2244c:	dfc00515 	stw	ra,20(sp)
   22450:	df000415 	stw	fp,16(sp)
   22454:	dc000315 	stw	r16,12(sp)
   22458:	df000404 	addi	fp,sp,16
   2245c:	2807883a 	mov	r3,r5
   22460:	3005883a 	mov	r2,r6
   22464:	e13ffc0d 	sth	r4,-16(fp)
   22468:	e0fffd0d 	sth	r3,-12(fp)
   2246c:	e0bffe0d 	sth	r2,-8(fp)
    return (full_reg_value & (~mask)) | ((write_value << TRDB_D5M_shift_amount(mask)) & mask);
   22470:	e43ffe0b 	ldhu	r16,-8(fp)
   22474:	e0bffd0b 	ldhu	r2,-12(fp)
   22478:	1009883a 	mov	r4,r2
   2247c:	002239c0 	call	2239c <TRDB_D5M_shift_amount>
   22480:	10bfffcc 	andi	r2,r2,65535
   22484:	8084983a 	sll	r2,r16,r2
   22488:	1007883a 	mov	r3,r2
   2248c:	e0bffc0b 	ldhu	r2,-16(fp)
   22490:	1884f03a 	xor	r2,r3,r2
   22494:	1007883a 	mov	r3,r2
   22498:	e0bffd0b 	ldhu	r2,-12(fp)
   2249c:	1884703a 	and	r2,r3,r2
   224a0:	1007883a 	mov	r3,r2
   224a4:	e0bffc0b 	ldhu	r2,-16(fp)
   224a8:	1884f03a 	xor	r2,r3,r2
}
   224ac:	e6ffff04 	addi	sp,fp,-4
   224b0:	dfc00217 	ldw	ra,8(sp)
   224b4:	df000117 	ldw	fp,4(sp)
   224b8:	dc000017 	ldw	r16,0(sp)
   224bc:	dec00304 	addi	sp,sp,12
   224c0:	f800283a 	ret

000224c4 <main>:
#include "custom_functions/Memory_Access.h"
#include "custom_functions/function_i2c.h"



int main(void) {
   224c4:	defffe04 	addi	sp,sp,-8
   224c8:	dfc00115 	stw	ra,4(sp)
   224cc:	df000015 	stw	fp,0(sp)
   224d0:	d839883a 	mov	fp,sp
	printf("Hello from Nios II and Camera Generator!\n");
   224d4:	010000f4 	movhi	r4,3
   224d8:	21189c04 	addi	r4,r4,25200
   224dc:	00248580 	call	24858 <puts>
	printf("Compiled %s %s\n", __DATE__, __TIME__);
   224e0:	018000f4 	movhi	r6,3
   224e4:	3198a704 	addi	r6,r6,25244
   224e8:	014000f4 	movhi	r5,3
   224ec:	2958aa04 	addi	r5,r5,25256
   224f0:	010000f4 	movhi	r4,3
   224f4:	2118ad04 	addi	r4,r4,25268
   224f8:	002475c0 	call	2475c <printf>
	delay(1000);
   224fc:	0100fa04 	movi	r4,1000
   22500:	0020f7c0 	call	20f7c <delay>
//	Test_Camera_Memory();
//#endif

	while(1)
	{	//LCD_Configuration();
		Test_i2c();
   22504:	00216e00 	call	216e0 <Test_i2c>
		delay(1000);
   22508:	0100fa04 	movi	r4,1000
   2250c:	0020f7c0 	call	20f7c <delay>

	}
   22510:	003ffc06 	br	22504 <__alt_mem_sdram_controller_0+0xc0022504>

00022514 <__divsi3>:
   22514:	20001b16 	blt	r4,zero,22584 <__divsi3+0x70>
   22518:	000f883a 	mov	r7,zero
   2251c:	28001616 	blt	r5,zero,22578 <__divsi3+0x64>
   22520:	200d883a 	mov	r6,r4
   22524:	29001a2e 	bgeu	r5,r4,22590 <__divsi3+0x7c>
   22528:	00800804 	movi	r2,32
   2252c:	00c00044 	movi	r3,1
   22530:	00000106 	br	22538 <__divsi3+0x24>
   22534:	10000d26 	beq	r2,zero,2256c <__divsi3+0x58>
   22538:	294b883a 	add	r5,r5,r5
   2253c:	10bfffc4 	addi	r2,r2,-1
   22540:	18c7883a 	add	r3,r3,r3
   22544:	293ffb36 	bltu	r5,r4,22534 <__alt_mem_sdram_controller_0+0xc0022534>
   22548:	0005883a 	mov	r2,zero
   2254c:	18000726 	beq	r3,zero,2256c <__divsi3+0x58>
   22550:	0005883a 	mov	r2,zero
   22554:	31400236 	bltu	r6,r5,22560 <__divsi3+0x4c>
   22558:	314dc83a 	sub	r6,r6,r5
   2255c:	10c4b03a 	or	r2,r2,r3
   22560:	1806d07a 	srli	r3,r3,1
   22564:	280ad07a 	srli	r5,r5,1
   22568:	183ffa1e 	bne	r3,zero,22554 <__alt_mem_sdram_controller_0+0xc0022554>
   2256c:	38000126 	beq	r7,zero,22574 <__divsi3+0x60>
   22570:	0085c83a 	sub	r2,zero,r2
   22574:	f800283a 	ret
   22578:	014bc83a 	sub	r5,zero,r5
   2257c:	39c0005c 	xori	r7,r7,1
   22580:	003fe706 	br	22520 <__alt_mem_sdram_controller_0+0xc0022520>
   22584:	0109c83a 	sub	r4,zero,r4
   22588:	01c00044 	movi	r7,1
   2258c:	003fe306 	br	2251c <__alt_mem_sdram_controller_0+0xc002251c>
   22590:	00c00044 	movi	r3,1
   22594:	003fee06 	br	22550 <__alt_mem_sdram_controller_0+0xc0022550>

00022598 <__modsi3>:
   22598:	20001716 	blt	r4,zero,225f8 <__modsi3+0x60>
   2259c:	000f883a 	mov	r7,zero
   225a0:	2005883a 	mov	r2,r4
   225a4:	28001216 	blt	r5,zero,225f0 <__modsi3+0x58>
   225a8:	2900162e 	bgeu	r5,r4,22604 <__modsi3+0x6c>
   225ac:	01800804 	movi	r6,32
   225b0:	00c00044 	movi	r3,1
   225b4:	00000106 	br	225bc <__modsi3+0x24>
   225b8:	30000a26 	beq	r6,zero,225e4 <__modsi3+0x4c>
   225bc:	294b883a 	add	r5,r5,r5
   225c0:	31bfffc4 	addi	r6,r6,-1
   225c4:	18c7883a 	add	r3,r3,r3
   225c8:	293ffb36 	bltu	r5,r4,225b8 <__alt_mem_sdram_controller_0+0xc00225b8>
   225cc:	18000526 	beq	r3,zero,225e4 <__modsi3+0x4c>
   225d0:	1806d07a 	srli	r3,r3,1
   225d4:	11400136 	bltu	r2,r5,225dc <__modsi3+0x44>
   225d8:	1145c83a 	sub	r2,r2,r5
   225dc:	280ad07a 	srli	r5,r5,1
   225e0:	183ffb1e 	bne	r3,zero,225d0 <__alt_mem_sdram_controller_0+0xc00225d0>
   225e4:	38000126 	beq	r7,zero,225ec <__modsi3+0x54>
   225e8:	0085c83a 	sub	r2,zero,r2
   225ec:	f800283a 	ret
   225f0:	014bc83a 	sub	r5,zero,r5
   225f4:	003fec06 	br	225a8 <__alt_mem_sdram_controller_0+0xc00225a8>
   225f8:	0109c83a 	sub	r4,zero,r4
   225fc:	01c00044 	movi	r7,1
   22600:	003fe706 	br	225a0 <__alt_mem_sdram_controller_0+0xc00225a0>
   22604:	00c00044 	movi	r3,1
   22608:	003ff106 	br	225d0 <__alt_mem_sdram_controller_0+0xc00225d0>

0002260c <__udivsi3>:
   2260c:	200d883a 	mov	r6,r4
   22610:	2900152e 	bgeu	r5,r4,22668 <__udivsi3+0x5c>
   22614:	28001416 	blt	r5,zero,22668 <__udivsi3+0x5c>
   22618:	00800804 	movi	r2,32
   2261c:	00c00044 	movi	r3,1
   22620:	00000206 	br	2262c <__udivsi3+0x20>
   22624:	10000e26 	beq	r2,zero,22660 <__udivsi3+0x54>
   22628:	28000516 	blt	r5,zero,22640 <__udivsi3+0x34>
   2262c:	294b883a 	add	r5,r5,r5
   22630:	10bfffc4 	addi	r2,r2,-1
   22634:	18c7883a 	add	r3,r3,r3
   22638:	293ffa36 	bltu	r5,r4,22624 <__alt_mem_sdram_controller_0+0xc0022624>
   2263c:	18000826 	beq	r3,zero,22660 <__udivsi3+0x54>
   22640:	0005883a 	mov	r2,zero
   22644:	31400236 	bltu	r6,r5,22650 <__udivsi3+0x44>
   22648:	314dc83a 	sub	r6,r6,r5
   2264c:	10c4b03a 	or	r2,r2,r3
   22650:	1806d07a 	srli	r3,r3,1
   22654:	280ad07a 	srli	r5,r5,1
   22658:	183ffa1e 	bne	r3,zero,22644 <__alt_mem_sdram_controller_0+0xc0022644>
   2265c:	f800283a 	ret
   22660:	0005883a 	mov	r2,zero
   22664:	f800283a 	ret
   22668:	00c00044 	movi	r3,1
   2266c:	003ff406 	br	22640 <__alt_mem_sdram_controller_0+0xc0022640>

00022670 <__umodsi3>:
   22670:	2005883a 	mov	r2,r4
   22674:	2900122e 	bgeu	r5,r4,226c0 <__umodsi3+0x50>
   22678:	28001116 	blt	r5,zero,226c0 <__umodsi3+0x50>
   2267c:	01800804 	movi	r6,32
   22680:	00c00044 	movi	r3,1
   22684:	00000206 	br	22690 <__umodsi3+0x20>
   22688:	30000c26 	beq	r6,zero,226bc <__umodsi3+0x4c>
   2268c:	28000516 	blt	r5,zero,226a4 <__umodsi3+0x34>
   22690:	294b883a 	add	r5,r5,r5
   22694:	31bfffc4 	addi	r6,r6,-1
   22698:	18c7883a 	add	r3,r3,r3
   2269c:	293ffa36 	bltu	r5,r4,22688 <__alt_mem_sdram_controller_0+0xc0022688>
   226a0:	18000626 	beq	r3,zero,226bc <__umodsi3+0x4c>
   226a4:	1806d07a 	srli	r3,r3,1
   226a8:	11400136 	bltu	r2,r5,226b0 <__umodsi3+0x40>
   226ac:	1145c83a 	sub	r2,r2,r5
   226b0:	280ad07a 	srli	r5,r5,1
   226b4:	183ffb1e 	bne	r3,zero,226a4 <__alt_mem_sdram_controller_0+0xc00226a4>
   226b8:	f800283a 	ret
   226bc:	f800283a 	ret
   226c0:	00c00044 	movi	r3,1
   226c4:	003ff706 	br	226a4 <__alt_mem_sdram_controller_0+0xc00226a4>

000226c8 <__assert_func>:
   226c8:	00800134 	movhi	r2,4
   226cc:	10a03d04 	addi	r2,r2,-32524
   226d0:	10800017 	ldw	r2,0(r2)
   226d4:	defffc04 	addi	sp,sp,-16
   226d8:	dfc00315 	stw	ra,12(sp)
   226dc:	2015883a 	mov	r10,r4
   226e0:	2811883a 	mov	r8,r5
   226e4:	3813883a 	mov	r9,r7
   226e8:	11000317 	ldw	r4,12(r2)
   226ec:	30000c26 	beq	r6,zero,22720 <__assert_func+0x58>
   226f0:	00c000f4 	movhi	r3,3
   226f4:	18d8b104 	addi	r3,r3,25284
   226f8:	3005883a 	mov	r2,r6
   226fc:	014000f4 	movhi	r5,3
   22700:	2958b504 	addi	r5,r5,25300
   22704:	500f883a 	mov	r7,r10
   22708:	480d883a 	mov	r6,r9
   2270c:	d8c00115 	stw	r3,4(sp)
   22710:	da000015 	stw	r8,0(sp)
   22714:	d8800215 	stw	r2,8(sp)
   22718:	0022eb00 	call	22eb0 <fiprintf>
   2271c:	00294dc0 	call	294dc <abort>
   22720:	00c000f4 	movhi	r3,3
   22724:	18d8b404 	addi	r3,r3,25296
   22728:	1805883a 	mov	r2,r3
   2272c:	003ff306 	br	226fc <__alt_mem_sdram_controller_0+0xc00226fc>

00022730 <__assert>:
   22730:	deffff04 	addi	sp,sp,-4
   22734:	300f883a 	mov	r7,r6
   22738:	000d883a 	mov	r6,zero
   2273c:	dfc00015 	stw	ra,0(sp)
   22740:	00226c80 	call	226c8 <__assert_func>

00022744 <_fclose_r>:
   22744:	28003926 	beq	r5,zero,2282c <_fclose_r+0xe8>
   22748:	defffc04 	addi	sp,sp,-16
   2274c:	dc400115 	stw	r17,4(sp)
   22750:	dc000015 	stw	r16,0(sp)
   22754:	dfc00315 	stw	ra,12(sp)
   22758:	dc800215 	stw	r18,8(sp)
   2275c:	2023883a 	mov	r17,r4
   22760:	2821883a 	mov	r16,r5
   22764:	20000226 	beq	r4,zero,22770 <_fclose_r+0x2c>
   22768:	20800e17 	ldw	r2,56(r4)
   2276c:	10002726 	beq	r2,zero,2280c <_fclose_r+0xc8>
   22770:	8080030f 	ldh	r2,12(r16)
   22774:	1000071e 	bne	r2,zero,22794 <_fclose_r+0x50>
   22778:	0005883a 	mov	r2,zero
   2277c:	dfc00317 	ldw	ra,12(sp)
   22780:	dc800217 	ldw	r18,8(sp)
   22784:	dc400117 	ldw	r17,4(sp)
   22788:	dc000017 	ldw	r16,0(sp)
   2278c:	dec00404 	addi	sp,sp,16
   22790:	f800283a 	ret
   22794:	800b883a 	mov	r5,r16
   22798:	8809883a 	mov	r4,r17
   2279c:	00228480 	call	22848 <__sflush_r>
   227a0:	1025883a 	mov	r18,r2
   227a4:	80800b17 	ldw	r2,44(r16)
   227a8:	10000426 	beq	r2,zero,227bc <_fclose_r+0x78>
   227ac:	81400717 	ldw	r5,28(r16)
   227b0:	8809883a 	mov	r4,r17
   227b4:	103ee83a 	callr	r2
   227b8:	10001616 	blt	r2,zero,22814 <_fclose_r+0xd0>
   227bc:	8080030b 	ldhu	r2,12(r16)
   227c0:	1080200c 	andi	r2,r2,128
   227c4:	1000151e 	bne	r2,zero,2281c <_fclose_r+0xd8>
   227c8:	81400c17 	ldw	r5,48(r16)
   227cc:	28000526 	beq	r5,zero,227e4 <_fclose_r+0xa0>
   227d0:	80801004 	addi	r2,r16,64
   227d4:	28800226 	beq	r5,r2,227e0 <_fclose_r+0x9c>
   227d8:	8809883a 	mov	r4,r17
   227dc:	00231680 	call	23168 <_free_r>
   227e0:	80000c15 	stw	zero,48(r16)
   227e4:	81401117 	ldw	r5,68(r16)
   227e8:	28000326 	beq	r5,zero,227f8 <_fclose_r+0xb4>
   227ec:	8809883a 	mov	r4,r17
   227f0:	00231680 	call	23168 <_free_r>
   227f4:	80001115 	stw	zero,68(r16)
   227f8:	0022e500 	call	22e50 <__sfp_lock_acquire>
   227fc:	8000030d 	sth	zero,12(r16)
   22800:	0022e540 	call	22e54 <__sfp_lock_release>
   22804:	9005883a 	mov	r2,r18
   22808:	003fdc06 	br	2277c <__alt_mem_sdram_controller_0+0xc002277c>
   2280c:	0022e400 	call	22e40 <__sinit>
   22810:	003fd706 	br	22770 <__alt_mem_sdram_controller_0+0xc0022770>
   22814:	04bfffc4 	movi	r18,-1
   22818:	003fe806 	br	227bc <__alt_mem_sdram_controller_0+0xc00227bc>
   2281c:	81400417 	ldw	r5,16(r16)
   22820:	8809883a 	mov	r4,r17
   22824:	00231680 	call	23168 <_free_r>
   22828:	003fe706 	br	227c8 <__alt_mem_sdram_controller_0+0xc00227c8>
   2282c:	0005883a 	mov	r2,zero
   22830:	f800283a 	ret

00022834 <fclose>:
   22834:	00800134 	movhi	r2,4
   22838:	10a03d04 	addi	r2,r2,-32524
   2283c:	200b883a 	mov	r5,r4
   22840:	11000017 	ldw	r4,0(r2)
   22844:	00227441 	jmpi	22744 <_fclose_r>

00022848 <__sflush_r>:
   22848:	2880030b 	ldhu	r2,12(r5)
   2284c:	defffb04 	addi	sp,sp,-20
   22850:	dcc00315 	stw	r19,12(sp)
   22854:	dc400115 	stw	r17,4(sp)
   22858:	dfc00415 	stw	ra,16(sp)
   2285c:	dc800215 	stw	r18,8(sp)
   22860:	dc000015 	stw	r16,0(sp)
   22864:	10c0020c 	andi	r3,r2,8
   22868:	2823883a 	mov	r17,r5
   2286c:	2027883a 	mov	r19,r4
   22870:	1800311e 	bne	r3,zero,22938 <__sflush_r+0xf0>
   22874:	28c00117 	ldw	r3,4(r5)
   22878:	10820014 	ori	r2,r2,2048
   2287c:	2880030d 	sth	r2,12(r5)
   22880:	00c04b0e 	bge	zero,r3,229b0 <__sflush_r+0x168>
   22884:	8a000a17 	ldw	r8,40(r17)
   22888:	40002326 	beq	r8,zero,22918 <__sflush_r+0xd0>
   2288c:	9c000017 	ldw	r16,0(r19)
   22890:	10c4000c 	andi	r3,r2,4096
   22894:	98000015 	stw	zero,0(r19)
   22898:	18004826 	beq	r3,zero,229bc <__sflush_r+0x174>
   2289c:	89801417 	ldw	r6,80(r17)
   228a0:	10c0010c 	andi	r3,r2,4
   228a4:	18000626 	beq	r3,zero,228c0 <__sflush_r+0x78>
   228a8:	88c00117 	ldw	r3,4(r17)
   228ac:	88800c17 	ldw	r2,48(r17)
   228b0:	30cdc83a 	sub	r6,r6,r3
   228b4:	10000226 	beq	r2,zero,228c0 <__sflush_r+0x78>
   228b8:	88800f17 	ldw	r2,60(r17)
   228bc:	308dc83a 	sub	r6,r6,r2
   228c0:	89400717 	ldw	r5,28(r17)
   228c4:	000f883a 	mov	r7,zero
   228c8:	9809883a 	mov	r4,r19
   228cc:	403ee83a 	callr	r8
   228d0:	00ffffc4 	movi	r3,-1
   228d4:	10c04426 	beq	r2,r3,229e8 <__sflush_r+0x1a0>
   228d8:	88c0030b 	ldhu	r3,12(r17)
   228dc:	89000417 	ldw	r4,16(r17)
   228e0:	88000115 	stw	zero,4(r17)
   228e4:	197dffcc 	andi	r5,r3,63487
   228e8:	8940030d 	sth	r5,12(r17)
   228ec:	89000015 	stw	r4,0(r17)
   228f0:	18c4000c 	andi	r3,r3,4096
   228f4:	18002c1e 	bne	r3,zero,229a8 <__sflush_r+0x160>
   228f8:	89400c17 	ldw	r5,48(r17)
   228fc:	9c000015 	stw	r16,0(r19)
   22900:	28000526 	beq	r5,zero,22918 <__sflush_r+0xd0>
   22904:	88801004 	addi	r2,r17,64
   22908:	28800226 	beq	r5,r2,22914 <__sflush_r+0xcc>
   2290c:	9809883a 	mov	r4,r19
   22910:	00231680 	call	23168 <_free_r>
   22914:	88000c15 	stw	zero,48(r17)
   22918:	0005883a 	mov	r2,zero
   2291c:	dfc00417 	ldw	ra,16(sp)
   22920:	dcc00317 	ldw	r19,12(sp)
   22924:	dc800217 	ldw	r18,8(sp)
   22928:	dc400117 	ldw	r17,4(sp)
   2292c:	dc000017 	ldw	r16,0(sp)
   22930:	dec00504 	addi	sp,sp,20
   22934:	f800283a 	ret
   22938:	2c800417 	ldw	r18,16(r5)
   2293c:	903ff626 	beq	r18,zero,22918 <__alt_mem_sdram_controller_0+0xc0022918>
   22940:	2c000017 	ldw	r16,0(r5)
   22944:	108000cc 	andi	r2,r2,3
   22948:	2c800015 	stw	r18,0(r5)
   2294c:	84a1c83a 	sub	r16,r16,r18
   22950:	1000131e 	bne	r2,zero,229a0 <__sflush_r+0x158>
   22954:	28800517 	ldw	r2,20(r5)
   22958:	88800215 	stw	r2,8(r17)
   2295c:	04000316 	blt	zero,r16,2296c <__sflush_r+0x124>
   22960:	003fed06 	br	22918 <__alt_mem_sdram_controller_0+0xc0022918>
   22964:	90a5883a 	add	r18,r18,r2
   22968:	043feb0e 	bge	zero,r16,22918 <__alt_mem_sdram_controller_0+0xc0022918>
   2296c:	88800917 	ldw	r2,36(r17)
   22970:	89400717 	ldw	r5,28(r17)
   22974:	800f883a 	mov	r7,r16
   22978:	900d883a 	mov	r6,r18
   2297c:	9809883a 	mov	r4,r19
   22980:	103ee83a 	callr	r2
   22984:	80a1c83a 	sub	r16,r16,r2
   22988:	00bff616 	blt	zero,r2,22964 <__alt_mem_sdram_controller_0+0xc0022964>
   2298c:	88c0030b 	ldhu	r3,12(r17)
   22990:	00bfffc4 	movi	r2,-1
   22994:	18c01014 	ori	r3,r3,64
   22998:	88c0030d 	sth	r3,12(r17)
   2299c:	003fdf06 	br	2291c <__alt_mem_sdram_controller_0+0xc002291c>
   229a0:	0005883a 	mov	r2,zero
   229a4:	003fec06 	br	22958 <__alt_mem_sdram_controller_0+0xc0022958>
   229a8:	88801415 	stw	r2,80(r17)
   229ac:	003fd206 	br	228f8 <__alt_mem_sdram_controller_0+0xc00228f8>
   229b0:	28c00f17 	ldw	r3,60(r5)
   229b4:	00ffb316 	blt	zero,r3,22884 <__alt_mem_sdram_controller_0+0xc0022884>
   229b8:	003fd706 	br	22918 <__alt_mem_sdram_controller_0+0xc0022918>
   229bc:	89400717 	ldw	r5,28(r17)
   229c0:	000d883a 	mov	r6,zero
   229c4:	01c00044 	movi	r7,1
   229c8:	9809883a 	mov	r4,r19
   229cc:	403ee83a 	callr	r8
   229d0:	100d883a 	mov	r6,r2
   229d4:	00bfffc4 	movi	r2,-1
   229d8:	30801426 	beq	r6,r2,22a2c <__sflush_r+0x1e4>
   229dc:	8880030b 	ldhu	r2,12(r17)
   229e0:	8a000a17 	ldw	r8,40(r17)
   229e4:	003fae06 	br	228a0 <__alt_mem_sdram_controller_0+0xc00228a0>
   229e8:	98c00017 	ldw	r3,0(r19)
   229ec:	183fba26 	beq	r3,zero,228d8 <__alt_mem_sdram_controller_0+0xc00228d8>
   229f0:	01000744 	movi	r4,29
   229f4:	19000626 	beq	r3,r4,22a10 <__sflush_r+0x1c8>
   229f8:	01000584 	movi	r4,22
   229fc:	19000426 	beq	r3,r4,22a10 <__sflush_r+0x1c8>
   22a00:	88c0030b 	ldhu	r3,12(r17)
   22a04:	18c01014 	ori	r3,r3,64
   22a08:	88c0030d 	sth	r3,12(r17)
   22a0c:	003fc306 	br	2291c <__alt_mem_sdram_controller_0+0xc002291c>
   22a10:	8880030b 	ldhu	r2,12(r17)
   22a14:	88c00417 	ldw	r3,16(r17)
   22a18:	88000115 	stw	zero,4(r17)
   22a1c:	10bdffcc 	andi	r2,r2,63487
   22a20:	8880030d 	sth	r2,12(r17)
   22a24:	88c00015 	stw	r3,0(r17)
   22a28:	003fb306 	br	228f8 <__alt_mem_sdram_controller_0+0xc00228f8>
   22a2c:	98800017 	ldw	r2,0(r19)
   22a30:	103fea26 	beq	r2,zero,229dc <__alt_mem_sdram_controller_0+0xc00229dc>
   22a34:	00c00744 	movi	r3,29
   22a38:	10c00226 	beq	r2,r3,22a44 <__sflush_r+0x1fc>
   22a3c:	00c00584 	movi	r3,22
   22a40:	10c0031e 	bne	r2,r3,22a50 <__sflush_r+0x208>
   22a44:	9c000015 	stw	r16,0(r19)
   22a48:	0005883a 	mov	r2,zero
   22a4c:	003fb306 	br	2291c <__alt_mem_sdram_controller_0+0xc002291c>
   22a50:	88c0030b 	ldhu	r3,12(r17)
   22a54:	3005883a 	mov	r2,r6
   22a58:	18c01014 	ori	r3,r3,64
   22a5c:	88c0030d 	sth	r3,12(r17)
   22a60:	003fae06 	br	2291c <__alt_mem_sdram_controller_0+0xc002291c>

00022a64 <_fflush_r>:
   22a64:	defffd04 	addi	sp,sp,-12
   22a68:	dc000115 	stw	r16,4(sp)
   22a6c:	dfc00215 	stw	ra,8(sp)
   22a70:	2021883a 	mov	r16,r4
   22a74:	20000226 	beq	r4,zero,22a80 <_fflush_r+0x1c>
   22a78:	20800e17 	ldw	r2,56(r4)
   22a7c:	10000c26 	beq	r2,zero,22ab0 <_fflush_r+0x4c>
   22a80:	2880030f 	ldh	r2,12(r5)
   22a84:	1000051e 	bne	r2,zero,22a9c <_fflush_r+0x38>
   22a88:	0005883a 	mov	r2,zero
   22a8c:	dfc00217 	ldw	ra,8(sp)
   22a90:	dc000117 	ldw	r16,4(sp)
   22a94:	dec00304 	addi	sp,sp,12
   22a98:	f800283a 	ret
   22a9c:	8009883a 	mov	r4,r16
   22aa0:	dfc00217 	ldw	ra,8(sp)
   22aa4:	dc000117 	ldw	r16,4(sp)
   22aa8:	dec00304 	addi	sp,sp,12
   22aac:	00228481 	jmpi	22848 <__sflush_r>
   22ab0:	d9400015 	stw	r5,0(sp)
   22ab4:	0022e400 	call	22e40 <__sinit>
   22ab8:	d9400017 	ldw	r5,0(sp)
   22abc:	003ff006 	br	22a80 <__alt_mem_sdram_controller_0+0xc0022a80>

00022ac0 <fflush>:
   22ac0:	20000526 	beq	r4,zero,22ad8 <fflush+0x18>
   22ac4:	00800134 	movhi	r2,4
   22ac8:	10a03d04 	addi	r2,r2,-32524
   22acc:	200b883a 	mov	r5,r4
   22ad0:	11000017 	ldw	r4,0(r2)
   22ad4:	0022a641 	jmpi	22a64 <_fflush_r>
   22ad8:	00800134 	movhi	r2,4
   22adc:	10a03c04 	addi	r2,r2,-32528
   22ae0:	11000017 	ldw	r4,0(r2)
   22ae4:	014000b4 	movhi	r5,2
   22ae8:	294a9904 	addi	r5,r5,10852
   22aec:	0023a181 	jmpi	23a18 <_fwalk_reent>

00022af0 <__fp_unlock>:
   22af0:	0005883a 	mov	r2,zero
   22af4:	f800283a 	ret

00022af8 <_cleanup_r>:
   22af8:	014000b4 	movhi	r5,2
   22afc:	2949d104 	addi	r5,r5,10052
   22b00:	0023a181 	jmpi	23a18 <_fwalk_reent>

00022b04 <__sinit.part.1>:
   22b04:	defff704 	addi	sp,sp,-36
   22b08:	00c000b4 	movhi	r3,2
   22b0c:	dfc00815 	stw	ra,32(sp)
   22b10:	ddc00715 	stw	r23,28(sp)
   22b14:	dd800615 	stw	r22,24(sp)
   22b18:	dd400515 	stw	r21,20(sp)
   22b1c:	dd000415 	stw	r20,16(sp)
   22b20:	dcc00315 	stw	r19,12(sp)
   22b24:	dc800215 	stw	r18,8(sp)
   22b28:	dc400115 	stw	r17,4(sp)
   22b2c:	dc000015 	stw	r16,0(sp)
   22b30:	18cabe04 	addi	r3,r3,11000
   22b34:	24000117 	ldw	r16,4(r4)
   22b38:	20c00f15 	stw	r3,60(r4)
   22b3c:	2080bb04 	addi	r2,r4,748
   22b40:	00c000c4 	movi	r3,3
   22b44:	20c0b915 	stw	r3,740(r4)
   22b48:	2080ba15 	stw	r2,744(r4)
   22b4c:	2000b815 	stw	zero,736(r4)
   22b50:	05c00204 	movi	r23,8
   22b54:	00800104 	movi	r2,4
   22b58:	2025883a 	mov	r18,r4
   22b5c:	b80d883a 	mov	r6,r23
   22b60:	81001704 	addi	r4,r16,92
   22b64:	000b883a 	mov	r5,zero
   22b68:	80000015 	stw	zero,0(r16)
   22b6c:	80000115 	stw	zero,4(r16)
   22b70:	80000215 	stw	zero,8(r16)
   22b74:	8080030d 	sth	r2,12(r16)
   22b78:	80001915 	stw	zero,100(r16)
   22b7c:	8000038d 	sth	zero,14(r16)
   22b80:	80000415 	stw	zero,16(r16)
   22b84:	80000515 	stw	zero,20(r16)
   22b88:	80000615 	stw	zero,24(r16)
   22b8c:	00245a40 	call	245a4 <memset>
   22b90:	058000b4 	movhi	r22,2
   22b94:	94400217 	ldw	r17,8(r18)
   22b98:	054000b4 	movhi	r21,2
   22b9c:	050000b4 	movhi	r20,2
   22ba0:	04c000b4 	movhi	r19,2
   22ba4:	b592fc04 	addi	r22,r22,19440
   22ba8:	ad531304 	addi	r21,r21,19532
   22bac:	a5133204 	addi	r20,r20,19656
   22bb0:	9cd34904 	addi	r19,r19,19748
   22bb4:	85800815 	stw	r22,32(r16)
   22bb8:	85400915 	stw	r21,36(r16)
   22bbc:	85000a15 	stw	r20,40(r16)
   22bc0:	84c00b15 	stw	r19,44(r16)
   22bc4:	84000715 	stw	r16,28(r16)
   22bc8:	00800284 	movi	r2,10
   22bcc:	8880030d 	sth	r2,12(r17)
   22bd0:	00800044 	movi	r2,1
   22bd4:	b80d883a 	mov	r6,r23
   22bd8:	89001704 	addi	r4,r17,92
   22bdc:	000b883a 	mov	r5,zero
   22be0:	88000015 	stw	zero,0(r17)
   22be4:	88000115 	stw	zero,4(r17)
   22be8:	88000215 	stw	zero,8(r17)
   22bec:	88001915 	stw	zero,100(r17)
   22bf0:	8880038d 	sth	r2,14(r17)
   22bf4:	88000415 	stw	zero,16(r17)
   22bf8:	88000515 	stw	zero,20(r17)
   22bfc:	88000615 	stw	zero,24(r17)
   22c00:	00245a40 	call	245a4 <memset>
   22c04:	94000317 	ldw	r16,12(r18)
   22c08:	00800484 	movi	r2,18
   22c0c:	8c400715 	stw	r17,28(r17)
   22c10:	8d800815 	stw	r22,32(r17)
   22c14:	8d400915 	stw	r21,36(r17)
   22c18:	8d000a15 	stw	r20,40(r17)
   22c1c:	8cc00b15 	stw	r19,44(r17)
   22c20:	8080030d 	sth	r2,12(r16)
   22c24:	00800084 	movi	r2,2
   22c28:	80000015 	stw	zero,0(r16)
   22c2c:	80000115 	stw	zero,4(r16)
   22c30:	80000215 	stw	zero,8(r16)
   22c34:	80001915 	stw	zero,100(r16)
   22c38:	8080038d 	sth	r2,14(r16)
   22c3c:	80000415 	stw	zero,16(r16)
   22c40:	80000515 	stw	zero,20(r16)
   22c44:	80000615 	stw	zero,24(r16)
   22c48:	b80d883a 	mov	r6,r23
   22c4c:	000b883a 	mov	r5,zero
   22c50:	81001704 	addi	r4,r16,92
   22c54:	00245a40 	call	245a4 <memset>
   22c58:	00800044 	movi	r2,1
   22c5c:	84000715 	stw	r16,28(r16)
   22c60:	85800815 	stw	r22,32(r16)
   22c64:	85400915 	stw	r21,36(r16)
   22c68:	85000a15 	stw	r20,40(r16)
   22c6c:	84c00b15 	stw	r19,44(r16)
   22c70:	90800e15 	stw	r2,56(r18)
   22c74:	dfc00817 	ldw	ra,32(sp)
   22c78:	ddc00717 	ldw	r23,28(sp)
   22c7c:	dd800617 	ldw	r22,24(sp)
   22c80:	dd400517 	ldw	r21,20(sp)
   22c84:	dd000417 	ldw	r20,16(sp)
   22c88:	dcc00317 	ldw	r19,12(sp)
   22c8c:	dc800217 	ldw	r18,8(sp)
   22c90:	dc400117 	ldw	r17,4(sp)
   22c94:	dc000017 	ldw	r16,0(sp)
   22c98:	dec00904 	addi	sp,sp,36
   22c9c:	f800283a 	ret

00022ca0 <__fp_lock>:
   22ca0:	0005883a 	mov	r2,zero
   22ca4:	f800283a 	ret

00022ca8 <__sfmoreglue>:
   22ca8:	defffc04 	addi	sp,sp,-16
   22cac:	dc400115 	stw	r17,4(sp)
   22cb0:	2c7fffc4 	addi	r17,r5,-1
   22cb4:	8c401a24 	muli	r17,r17,104
   22cb8:	dc800215 	stw	r18,8(sp)
   22cbc:	2825883a 	mov	r18,r5
   22cc0:	89401d04 	addi	r5,r17,116
   22cc4:	dc000015 	stw	r16,0(sp)
   22cc8:	dfc00315 	stw	ra,12(sp)
   22ccc:	0023d980 	call	23d98 <_malloc_r>
   22cd0:	1021883a 	mov	r16,r2
   22cd4:	10000726 	beq	r2,zero,22cf4 <__sfmoreglue+0x4c>
   22cd8:	11000304 	addi	r4,r2,12
   22cdc:	10000015 	stw	zero,0(r2)
   22ce0:	14800115 	stw	r18,4(r2)
   22ce4:	11000215 	stw	r4,8(r2)
   22ce8:	89801a04 	addi	r6,r17,104
   22cec:	000b883a 	mov	r5,zero
   22cf0:	00245a40 	call	245a4 <memset>
   22cf4:	8005883a 	mov	r2,r16
   22cf8:	dfc00317 	ldw	ra,12(sp)
   22cfc:	dc800217 	ldw	r18,8(sp)
   22d00:	dc400117 	ldw	r17,4(sp)
   22d04:	dc000017 	ldw	r16,0(sp)
   22d08:	dec00404 	addi	sp,sp,16
   22d0c:	f800283a 	ret

00022d10 <__sfp>:
   22d10:	defffb04 	addi	sp,sp,-20
   22d14:	dc000015 	stw	r16,0(sp)
   22d18:	04000134 	movhi	r16,4
   22d1c:	84203c04 	addi	r16,r16,-32528
   22d20:	dcc00315 	stw	r19,12(sp)
   22d24:	2027883a 	mov	r19,r4
   22d28:	81000017 	ldw	r4,0(r16)
   22d2c:	dfc00415 	stw	ra,16(sp)
   22d30:	dc800215 	stw	r18,8(sp)
   22d34:	20800e17 	ldw	r2,56(r4)
   22d38:	dc400115 	stw	r17,4(sp)
   22d3c:	1000021e 	bne	r2,zero,22d48 <__sfp+0x38>
   22d40:	0022b040 	call	22b04 <__sinit.part.1>
   22d44:	81000017 	ldw	r4,0(r16)
   22d48:	2480b804 	addi	r18,r4,736
   22d4c:	047fffc4 	movi	r17,-1
   22d50:	91000117 	ldw	r4,4(r18)
   22d54:	94000217 	ldw	r16,8(r18)
   22d58:	213fffc4 	addi	r4,r4,-1
   22d5c:	20000a16 	blt	r4,zero,22d88 <__sfp+0x78>
   22d60:	8080030f 	ldh	r2,12(r16)
   22d64:	10000c26 	beq	r2,zero,22d98 <__sfp+0x88>
   22d68:	80c01d04 	addi	r3,r16,116
   22d6c:	00000206 	br	22d78 <__sfp+0x68>
   22d70:	18bfe60f 	ldh	r2,-104(r3)
   22d74:	10000826 	beq	r2,zero,22d98 <__sfp+0x88>
   22d78:	213fffc4 	addi	r4,r4,-1
   22d7c:	1c3ffd04 	addi	r16,r3,-12
   22d80:	18c01a04 	addi	r3,r3,104
   22d84:	247ffa1e 	bne	r4,r17,22d70 <__alt_mem_sdram_controller_0+0xc0022d70>
   22d88:	90800017 	ldw	r2,0(r18)
   22d8c:	10001d26 	beq	r2,zero,22e04 <__sfp+0xf4>
   22d90:	1025883a 	mov	r18,r2
   22d94:	003fee06 	br	22d50 <__alt_mem_sdram_controller_0+0xc0022d50>
   22d98:	00bfffc4 	movi	r2,-1
   22d9c:	8080038d 	sth	r2,14(r16)
   22da0:	00800044 	movi	r2,1
   22da4:	8080030d 	sth	r2,12(r16)
   22da8:	80001915 	stw	zero,100(r16)
   22dac:	80000015 	stw	zero,0(r16)
   22db0:	80000215 	stw	zero,8(r16)
   22db4:	80000115 	stw	zero,4(r16)
   22db8:	80000415 	stw	zero,16(r16)
   22dbc:	80000515 	stw	zero,20(r16)
   22dc0:	80000615 	stw	zero,24(r16)
   22dc4:	01800204 	movi	r6,8
   22dc8:	000b883a 	mov	r5,zero
   22dcc:	81001704 	addi	r4,r16,92
   22dd0:	00245a40 	call	245a4 <memset>
   22dd4:	8005883a 	mov	r2,r16
   22dd8:	80000c15 	stw	zero,48(r16)
   22ddc:	80000d15 	stw	zero,52(r16)
   22de0:	80001115 	stw	zero,68(r16)
   22de4:	80001215 	stw	zero,72(r16)
   22de8:	dfc00417 	ldw	ra,16(sp)
   22dec:	dcc00317 	ldw	r19,12(sp)
   22df0:	dc800217 	ldw	r18,8(sp)
   22df4:	dc400117 	ldw	r17,4(sp)
   22df8:	dc000017 	ldw	r16,0(sp)
   22dfc:	dec00504 	addi	sp,sp,20
   22e00:	f800283a 	ret
   22e04:	01400104 	movi	r5,4
   22e08:	9809883a 	mov	r4,r19
   22e0c:	0022ca80 	call	22ca8 <__sfmoreglue>
   22e10:	90800015 	stw	r2,0(r18)
   22e14:	103fde1e 	bne	r2,zero,22d90 <__alt_mem_sdram_controller_0+0xc0022d90>
   22e18:	00800304 	movi	r2,12
   22e1c:	98800015 	stw	r2,0(r19)
   22e20:	0005883a 	mov	r2,zero
   22e24:	003ff006 	br	22de8 <__alt_mem_sdram_controller_0+0xc0022de8>

00022e28 <_cleanup>:
   22e28:	00800134 	movhi	r2,4
   22e2c:	10a03c04 	addi	r2,r2,-32528
   22e30:	11000017 	ldw	r4,0(r2)
   22e34:	014000b4 	movhi	r5,2
   22e38:	2949d104 	addi	r5,r5,10052
   22e3c:	0023a181 	jmpi	23a18 <_fwalk_reent>

00022e40 <__sinit>:
   22e40:	20800e17 	ldw	r2,56(r4)
   22e44:	10000126 	beq	r2,zero,22e4c <__sinit+0xc>
   22e48:	f800283a 	ret
   22e4c:	0022b041 	jmpi	22b04 <__sinit.part.1>

00022e50 <__sfp_lock_acquire>:
   22e50:	f800283a 	ret

00022e54 <__sfp_lock_release>:
   22e54:	f800283a 	ret

00022e58 <__sinit_lock_acquire>:
   22e58:	f800283a 	ret

00022e5c <__sinit_lock_release>:
   22e5c:	f800283a 	ret

00022e60 <__fp_lock_all>:
   22e60:	00800134 	movhi	r2,4
   22e64:	10a03d04 	addi	r2,r2,-32524
   22e68:	11000017 	ldw	r4,0(r2)
   22e6c:	014000b4 	movhi	r5,2
   22e70:	294b2804 	addi	r5,r5,11424
   22e74:	00239541 	jmpi	23954 <_fwalk>

00022e78 <__fp_unlock_all>:
   22e78:	00800134 	movhi	r2,4
   22e7c:	10a03d04 	addi	r2,r2,-32524
   22e80:	11000017 	ldw	r4,0(r2)
   22e84:	014000b4 	movhi	r5,2
   22e88:	294abc04 	addi	r5,r5,10992
   22e8c:	00239541 	jmpi	23954 <_fwalk>

00022e90 <_fiprintf_r>:
   22e90:	defffe04 	addi	sp,sp,-8
   22e94:	dfc00015 	stw	ra,0(sp)
   22e98:	d9c00115 	stw	r7,4(sp)
   22e9c:	d9c00104 	addi	r7,sp,4
   22ea0:	0026fec0 	call	26fec <_vfiprintf_r>
   22ea4:	dfc00017 	ldw	ra,0(sp)
   22ea8:	dec00204 	addi	sp,sp,8
   22eac:	f800283a 	ret

00022eb0 <fiprintf>:
   22eb0:	defffd04 	addi	sp,sp,-12
   22eb4:	2005883a 	mov	r2,r4
   22eb8:	dfc00015 	stw	ra,0(sp)
   22ebc:	d9800115 	stw	r6,4(sp)
   22ec0:	d9c00215 	stw	r7,8(sp)
   22ec4:	00c00134 	movhi	r3,4
   22ec8:	18e03d04 	addi	r3,r3,-32524
   22ecc:	19000017 	ldw	r4,0(r3)
   22ed0:	280d883a 	mov	r6,r5
   22ed4:	d9c00104 	addi	r7,sp,4
   22ed8:	100b883a 	mov	r5,r2
   22edc:	0026fec0 	call	26fec <_vfiprintf_r>
   22ee0:	dfc00017 	ldw	ra,0(sp)
   22ee4:	dec00304 	addi	sp,sp,12
   22ee8:	f800283a 	ret

00022eec <_fopen_r>:
   22eec:	defffa04 	addi	sp,sp,-24
   22ef0:	3005883a 	mov	r2,r6
   22ef4:	dcc00415 	stw	r19,16(sp)
   22ef8:	d80d883a 	mov	r6,sp
   22efc:	2827883a 	mov	r19,r5
   22f00:	100b883a 	mov	r5,r2
   22f04:	dc800315 	stw	r18,12(sp)
   22f08:	dfc00515 	stw	ra,20(sp)
   22f0c:	dc400215 	stw	r17,8(sp)
   22f10:	dc000115 	stw	r16,4(sp)
   22f14:	2025883a 	mov	r18,r4
   22f18:	002ad7c0 	call	2ad7c <__sflags>
   22f1c:	10002726 	beq	r2,zero,22fbc <_fopen_r+0xd0>
   22f20:	9009883a 	mov	r4,r18
   22f24:	1023883a 	mov	r17,r2
   22f28:	0022d100 	call	22d10 <__sfp>
   22f2c:	1021883a 	mov	r16,r2
   22f30:	10002226 	beq	r2,zero,22fbc <_fopen_r+0xd0>
   22f34:	d9800017 	ldw	r6,0(sp)
   22f38:	01c06d84 	movi	r7,438
   22f3c:	980b883a 	mov	r5,r19
   22f40:	9009883a 	mov	r4,r18
   22f44:	00246cc0 	call	246cc <_open_r>
   22f48:	10001916 	blt	r2,zero,22fb0 <_fopen_r+0xc4>
   22f4c:	8080038d 	sth	r2,14(r16)
   22f50:	008000b4 	movhi	r2,2
   22f54:	1092fc04 	addi	r2,r2,19440
   22f58:	80800815 	stw	r2,32(r16)
   22f5c:	008000b4 	movhi	r2,2
   22f60:	10931304 	addi	r2,r2,19532
   22f64:	80800915 	stw	r2,36(r16)
   22f68:	008000b4 	movhi	r2,2
   22f6c:	10933204 	addi	r2,r2,19656
   22f70:	80800a15 	stw	r2,40(r16)
   22f74:	008000b4 	movhi	r2,2
   22f78:	10934904 	addi	r2,r2,19748
   22f7c:	8440030d 	sth	r17,12(r16)
   22f80:	84000715 	stw	r16,28(r16)
   22f84:	80800b15 	stw	r2,44(r16)
   22f88:	8c40400c 	andi	r17,r17,256
   22f8c:	88000d1e 	bne	r17,zero,22fc4 <_fopen_r+0xd8>
   22f90:	8005883a 	mov	r2,r16
   22f94:	dfc00517 	ldw	ra,20(sp)
   22f98:	dcc00417 	ldw	r19,16(sp)
   22f9c:	dc800317 	ldw	r18,12(sp)
   22fa0:	dc400217 	ldw	r17,8(sp)
   22fa4:	dc000117 	ldw	r16,4(sp)
   22fa8:	dec00604 	addi	sp,sp,24
   22fac:	f800283a 	ret
   22fb0:	0022e500 	call	22e50 <__sfp_lock_acquire>
   22fb4:	8000030d 	sth	zero,12(r16)
   22fb8:	0022e540 	call	22e54 <__sfp_lock_release>
   22fbc:	0005883a 	mov	r2,zero
   22fc0:	003ff406 	br	22f94 <__alt_mem_sdram_controller_0+0xc0022f94>
   22fc4:	01c00084 	movi	r7,2
   22fc8:	000d883a 	mov	r6,zero
   22fcc:	800b883a 	mov	r5,r16
   22fd0:	9009883a 	mov	r4,r18
   22fd4:	00234780 	call	23478 <_fseek_r>
   22fd8:	8005883a 	mov	r2,r16
   22fdc:	003fed06 	br	22f94 <__alt_mem_sdram_controller_0+0xc0022f94>

00022fe0 <fopen>:
   22fe0:	00800134 	movhi	r2,4
   22fe4:	10a03d04 	addi	r2,r2,-32524
   22fe8:	280d883a 	mov	r6,r5
   22fec:	200b883a 	mov	r5,r4
   22ff0:	11000017 	ldw	r4,0(r2)
   22ff4:	0022eec1 	jmpi	22eec <_fopen_r>

00022ff8 <_fprintf_r>:
   22ff8:	defffe04 	addi	sp,sp,-8
   22ffc:	2809883a 	mov	r4,r5
   23000:	300b883a 	mov	r5,r6
   23004:	dfc00015 	stw	ra,0(sp)
   23008:	d9c00115 	stw	r7,4(sp)
   2300c:	d9800104 	addi	r6,sp,4
   23010:	00291fc0 	call	291fc <__vfprintf_internal>
   23014:	dfc00017 	ldw	ra,0(sp)
   23018:	dec00204 	addi	sp,sp,8
   2301c:	f800283a 	ret

00023020 <fprintf>:
   23020:	defffd04 	addi	sp,sp,-12
   23024:	dfc00015 	stw	ra,0(sp)
   23028:	d9800115 	stw	r6,4(sp)
   2302c:	d9c00215 	stw	r7,8(sp)
   23030:	d9800104 	addi	r6,sp,4
   23034:	00291fc0 	call	291fc <__vfprintf_internal>
   23038:	dfc00017 	ldw	ra,0(sp)
   2303c:	dec00304 	addi	sp,sp,12
   23040:	f800283a 	ret

00023044 <_malloc_trim_r>:
   23044:	defffb04 	addi	sp,sp,-20
   23048:	dcc00315 	stw	r19,12(sp)
   2304c:	04c000f4 	movhi	r19,3
   23050:	dc800215 	stw	r18,8(sp)
   23054:	dc400115 	stw	r17,4(sp)
   23058:	dc000015 	stw	r16,0(sp)
   2305c:	dfc00415 	stw	ra,16(sp)
   23060:	2821883a 	mov	r16,r5
   23064:	9cda9a04 	addi	r19,r19,27240
   23068:	2025883a 	mov	r18,r4
   2306c:	0033d740 	call	33d74 <__malloc_lock>
   23070:	98800217 	ldw	r2,8(r19)
   23074:	14400117 	ldw	r17,4(r2)
   23078:	00bfff04 	movi	r2,-4
   2307c:	88a2703a 	and	r17,r17,r2
   23080:	8c21c83a 	sub	r16,r17,r16
   23084:	8403fbc4 	addi	r16,r16,4079
   23088:	8020d33a 	srli	r16,r16,12
   2308c:	0083ffc4 	movi	r2,4095
   23090:	843fffc4 	addi	r16,r16,-1
   23094:	8020933a 	slli	r16,r16,12
   23098:	1400060e 	bge	r2,r16,230b4 <_malloc_trim_r+0x70>
   2309c:	000b883a 	mov	r5,zero
   230a0:	9009883a 	mov	r4,r18
   230a4:	0024ad80 	call	24ad8 <_sbrk_r>
   230a8:	98c00217 	ldw	r3,8(r19)
   230ac:	1c47883a 	add	r3,r3,r17
   230b0:	10c00a26 	beq	r2,r3,230dc <_malloc_trim_r+0x98>
   230b4:	9009883a 	mov	r4,r18
   230b8:	0033d980 	call	33d98 <__malloc_unlock>
   230bc:	0005883a 	mov	r2,zero
   230c0:	dfc00417 	ldw	ra,16(sp)
   230c4:	dcc00317 	ldw	r19,12(sp)
   230c8:	dc800217 	ldw	r18,8(sp)
   230cc:	dc400117 	ldw	r17,4(sp)
   230d0:	dc000017 	ldw	r16,0(sp)
   230d4:	dec00504 	addi	sp,sp,20
   230d8:	f800283a 	ret
   230dc:	040bc83a 	sub	r5,zero,r16
   230e0:	9009883a 	mov	r4,r18
   230e4:	0024ad80 	call	24ad8 <_sbrk_r>
   230e8:	00ffffc4 	movi	r3,-1
   230ec:	10c00d26 	beq	r2,r3,23124 <_malloc_trim_r+0xe0>
   230f0:	00c00134 	movhi	r3,4
   230f4:	18e71a04 	addi	r3,r3,-25496
   230f8:	18800017 	ldw	r2,0(r3)
   230fc:	99000217 	ldw	r4,8(r19)
   23100:	8c23c83a 	sub	r17,r17,r16
   23104:	8c400054 	ori	r17,r17,1
   23108:	1421c83a 	sub	r16,r2,r16
   2310c:	24400115 	stw	r17,4(r4)
   23110:	9009883a 	mov	r4,r18
   23114:	1c000015 	stw	r16,0(r3)
   23118:	0033d980 	call	33d98 <__malloc_unlock>
   2311c:	00800044 	movi	r2,1
   23120:	003fe706 	br	230c0 <__alt_mem_sdram_controller_0+0xc00230c0>
   23124:	000b883a 	mov	r5,zero
   23128:	9009883a 	mov	r4,r18
   2312c:	0024ad80 	call	24ad8 <_sbrk_r>
   23130:	99000217 	ldw	r4,8(r19)
   23134:	014003c4 	movi	r5,15
   23138:	1107c83a 	sub	r3,r2,r4
   2313c:	28ffdd0e 	bge	r5,r3,230b4 <__alt_mem_sdram_controller_0+0xc00230b4>
   23140:	01400134 	movhi	r5,4
   23144:	29603e04 	addi	r5,r5,-32520
   23148:	29400017 	ldw	r5,0(r5)
   2314c:	18c00054 	ori	r3,r3,1
   23150:	20c00115 	stw	r3,4(r4)
   23154:	00c00134 	movhi	r3,4
   23158:	1145c83a 	sub	r2,r2,r5
   2315c:	18e71a04 	addi	r3,r3,-25496
   23160:	18800015 	stw	r2,0(r3)
   23164:	003fd306 	br	230b4 <__alt_mem_sdram_controller_0+0xc00230b4>

00023168 <_free_r>:
   23168:	28004126 	beq	r5,zero,23270 <_free_r+0x108>
   2316c:	defffd04 	addi	sp,sp,-12
   23170:	dc400115 	stw	r17,4(sp)
   23174:	dc000015 	stw	r16,0(sp)
   23178:	2023883a 	mov	r17,r4
   2317c:	2821883a 	mov	r16,r5
   23180:	dfc00215 	stw	ra,8(sp)
   23184:	0033d740 	call	33d74 <__malloc_lock>
   23188:	81ffff17 	ldw	r7,-4(r16)
   2318c:	00bfff84 	movi	r2,-2
   23190:	010000f4 	movhi	r4,3
   23194:	81bffe04 	addi	r6,r16,-8
   23198:	3884703a 	and	r2,r7,r2
   2319c:	211a9a04 	addi	r4,r4,27240
   231a0:	308b883a 	add	r5,r6,r2
   231a4:	2a400117 	ldw	r9,4(r5)
   231a8:	22000217 	ldw	r8,8(r4)
   231ac:	00ffff04 	movi	r3,-4
   231b0:	48c6703a 	and	r3,r9,r3
   231b4:	2a005726 	beq	r5,r8,23314 <_free_r+0x1ac>
   231b8:	28c00115 	stw	r3,4(r5)
   231bc:	39c0004c 	andi	r7,r7,1
   231c0:	3800091e 	bne	r7,zero,231e8 <_free_r+0x80>
   231c4:	823ffe17 	ldw	r8,-8(r16)
   231c8:	22400204 	addi	r9,r4,8
   231cc:	320dc83a 	sub	r6,r6,r8
   231d0:	31c00217 	ldw	r7,8(r6)
   231d4:	1205883a 	add	r2,r2,r8
   231d8:	3a406526 	beq	r7,r9,23370 <_free_r+0x208>
   231dc:	32000317 	ldw	r8,12(r6)
   231e0:	3a000315 	stw	r8,12(r7)
   231e4:	41c00215 	stw	r7,8(r8)
   231e8:	28cf883a 	add	r7,r5,r3
   231ec:	39c00117 	ldw	r7,4(r7)
   231f0:	39c0004c 	andi	r7,r7,1
   231f4:	38003a26 	beq	r7,zero,232e0 <_free_r+0x178>
   231f8:	10c00054 	ori	r3,r2,1
   231fc:	30c00115 	stw	r3,4(r6)
   23200:	3087883a 	add	r3,r6,r2
   23204:	18800015 	stw	r2,0(r3)
   23208:	00c07fc4 	movi	r3,511
   2320c:	18801936 	bltu	r3,r2,23274 <_free_r+0x10c>
   23210:	1004d0fa 	srli	r2,r2,3
   23214:	01c00044 	movi	r7,1
   23218:	21400117 	ldw	r5,4(r4)
   2321c:	10c00044 	addi	r3,r2,1
   23220:	18c7883a 	add	r3,r3,r3
   23224:	1005d0ba 	srai	r2,r2,2
   23228:	18c7883a 	add	r3,r3,r3
   2322c:	18c7883a 	add	r3,r3,r3
   23230:	1907883a 	add	r3,r3,r4
   23234:	3884983a 	sll	r2,r7,r2
   23238:	19c00017 	ldw	r7,0(r3)
   2323c:	1a3ffe04 	addi	r8,r3,-8
   23240:	1144b03a 	or	r2,r2,r5
   23244:	32000315 	stw	r8,12(r6)
   23248:	31c00215 	stw	r7,8(r6)
   2324c:	20800115 	stw	r2,4(r4)
   23250:	19800015 	stw	r6,0(r3)
   23254:	39800315 	stw	r6,12(r7)
   23258:	8809883a 	mov	r4,r17
   2325c:	dfc00217 	ldw	ra,8(sp)
   23260:	dc400117 	ldw	r17,4(sp)
   23264:	dc000017 	ldw	r16,0(sp)
   23268:	dec00304 	addi	sp,sp,12
   2326c:	0033d981 	jmpi	33d98 <__malloc_unlock>
   23270:	f800283a 	ret
   23274:	100ad27a 	srli	r5,r2,9
   23278:	00c00104 	movi	r3,4
   2327c:	19404a36 	bltu	r3,r5,233a8 <_free_r+0x240>
   23280:	100ad1ba 	srli	r5,r2,6
   23284:	28c00e44 	addi	r3,r5,57
   23288:	18c7883a 	add	r3,r3,r3
   2328c:	29400e04 	addi	r5,r5,56
   23290:	18c7883a 	add	r3,r3,r3
   23294:	18c7883a 	add	r3,r3,r3
   23298:	1909883a 	add	r4,r3,r4
   2329c:	20c00017 	ldw	r3,0(r4)
   232a0:	01c000f4 	movhi	r7,3
   232a4:	213ffe04 	addi	r4,r4,-8
   232a8:	39da9a04 	addi	r7,r7,27240
   232ac:	20c04426 	beq	r4,r3,233c0 <_free_r+0x258>
   232b0:	01ffff04 	movi	r7,-4
   232b4:	19400117 	ldw	r5,4(r3)
   232b8:	29ca703a 	and	r5,r5,r7
   232bc:	1140022e 	bgeu	r2,r5,232c8 <_free_r+0x160>
   232c0:	18c00217 	ldw	r3,8(r3)
   232c4:	20fffb1e 	bne	r4,r3,232b4 <__alt_mem_sdram_controller_0+0xc00232b4>
   232c8:	19000317 	ldw	r4,12(r3)
   232cc:	31000315 	stw	r4,12(r6)
   232d0:	30c00215 	stw	r3,8(r6)
   232d4:	21800215 	stw	r6,8(r4)
   232d8:	19800315 	stw	r6,12(r3)
   232dc:	003fde06 	br	23258 <__alt_mem_sdram_controller_0+0xc0023258>
   232e0:	29c00217 	ldw	r7,8(r5)
   232e4:	10c5883a 	add	r2,r2,r3
   232e8:	00c000f4 	movhi	r3,3
   232ec:	18da9c04 	addi	r3,r3,27248
   232f0:	38c03b26 	beq	r7,r3,233e0 <_free_r+0x278>
   232f4:	2a000317 	ldw	r8,12(r5)
   232f8:	11400054 	ori	r5,r2,1
   232fc:	3087883a 	add	r3,r6,r2
   23300:	3a000315 	stw	r8,12(r7)
   23304:	41c00215 	stw	r7,8(r8)
   23308:	31400115 	stw	r5,4(r6)
   2330c:	18800015 	stw	r2,0(r3)
   23310:	003fbd06 	br	23208 <__alt_mem_sdram_controller_0+0xc0023208>
   23314:	39c0004c 	andi	r7,r7,1
   23318:	10c5883a 	add	r2,r2,r3
   2331c:	3800071e 	bne	r7,zero,2333c <_free_r+0x1d4>
   23320:	81fffe17 	ldw	r7,-8(r16)
   23324:	31cdc83a 	sub	r6,r6,r7
   23328:	30c00317 	ldw	r3,12(r6)
   2332c:	31400217 	ldw	r5,8(r6)
   23330:	11c5883a 	add	r2,r2,r7
   23334:	28c00315 	stw	r3,12(r5)
   23338:	19400215 	stw	r5,8(r3)
   2333c:	10c00054 	ori	r3,r2,1
   23340:	30c00115 	stw	r3,4(r6)
   23344:	00c00134 	movhi	r3,4
   23348:	18e03f04 	addi	r3,r3,-32516
   2334c:	18c00017 	ldw	r3,0(r3)
   23350:	21800215 	stw	r6,8(r4)
   23354:	10ffc036 	bltu	r2,r3,23258 <__alt_mem_sdram_controller_0+0xc0023258>
   23358:	00800134 	movhi	r2,4
   2335c:	10a70b04 	addi	r2,r2,-25556
   23360:	11400017 	ldw	r5,0(r2)
   23364:	8809883a 	mov	r4,r17
   23368:	00230440 	call	23044 <_malloc_trim_r>
   2336c:	003fba06 	br	23258 <__alt_mem_sdram_controller_0+0xc0023258>
   23370:	28c9883a 	add	r4,r5,r3
   23374:	21000117 	ldw	r4,4(r4)
   23378:	2100004c 	andi	r4,r4,1
   2337c:	2000391e 	bne	r4,zero,23464 <_free_r+0x2fc>
   23380:	29c00217 	ldw	r7,8(r5)
   23384:	29000317 	ldw	r4,12(r5)
   23388:	1885883a 	add	r2,r3,r2
   2338c:	10c00054 	ori	r3,r2,1
   23390:	39000315 	stw	r4,12(r7)
   23394:	21c00215 	stw	r7,8(r4)
   23398:	30c00115 	stw	r3,4(r6)
   2339c:	308d883a 	add	r6,r6,r2
   233a0:	30800015 	stw	r2,0(r6)
   233a4:	003fac06 	br	23258 <__alt_mem_sdram_controller_0+0xc0023258>
   233a8:	00c00504 	movi	r3,20
   233ac:	19401536 	bltu	r3,r5,23404 <_free_r+0x29c>
   233b0:	28c01704 	addi	r3,r5,92
   233b4:	18c7883a 	add	r3,r3,r3
   233b8:	294016c4 	addi	r5,r5,91
   233bc:	003fb406 	br	23290 <__alt_mem_sdram_controller_0+0xc0023290>
   233c0:	280bd0ba 	srai	r5,r5,2
   233c4:	00c00044 	movi	r3,1
   233c8:	38800117 	ldw	r2,4(r7)
   233cc:	194a983a 	sll	r5,r3,r5
   233d0:	2007883a 	mov	r3,r4
   233d4:	2884b03a 	or	r2,r5,r2
   233d8:	38800115 	stw	r2,4(r7)
   233dc:	003fbb06 	br	232cc <__alt_mem_sdram_controller_0+0xc00232cc>
   233e0:	21800515 	stw	r6,20(r4)
   233e4:	21800415 	stw	r6,16(r4)
   233e8:	10c00054 	ori	r3,r2,1
   233ec:	31c00315 	stw	r7,12(r6)
   233f0:	31c00215 	stw	r7,8(r6)
   233f4:	30c00115 	stw	r3,4(r6)
   233f8:	308d883a 	add	r6,r6,r2
   233fc:	30800015 	stw	r2,0(r6)
   23400:	003f9506 	br	23258 <__alt_mem_sdram_controller_0+0xc0023258>
   23404:	00c01504 	movi	r3,84
   23408:	19400536 	bltu	r3,r5,23420 <_free_r+0x2b8>
   2340c:	100ad33a 	srli	r5,r2,12
   23410:	28c01bc4 	addi	r3,r5,111
   23414:	18c7883a 	add	r3,r3,r3
   23418:	29401b84 	addi	r5,r5,110
   2341c:	003f9c06 	br	23290 <__alt_mem_sdram_controller_0+0xc0023290>
   23420:	00c05504 	movi	r3,340
   23424:	19400536 	bltu	r3,r5,2343c <_free_r+0x2d4>
   23428:	100ad3fa 	srli	r5,r2,15
   2342c:	28c01e04 	addi	r3,r5,120
   23430:	18c7883a 	add	r3,r3,r3
   23434:	29401dc4 	addi	r5,r5,119
   23438:	003f9506 	br	23290 <__alt_mem_sdram_controller_0+0xc0023290>
   2343c:	00c15504 	movi	r3,1364
   23440:	19400536 	bltu	r3,r5,23458 <_free_r+0x2f0>
   23444:	100ad4ba 	srli	r5,r2,18
   23448:	28c01f44 	addi	r3,r5,125
   2344c:	18c7883a 	add	r3,r3,r3
   23450:	29401f04 	addi	r5,r5,124
   23454:	003f8e06 	br	23290 <__alt_mem_sdram_controller_0+0xc0023290>
   23458:	00c03f84 	movi	r3,254
   2345c:	01401f84 	movi	r5,126
   23460:	003f8b06 	br	23290 <__alt_mem_sdram_controller_0+0xc0023290>
   23464:	10c00054 	ori	r3,r2,1
   23468:	30c00115 	stw	r3,4(r6)
   2346c:	308d883a 	add	r6,r6,r2
   23470:	30800015 	stw	r2,0(r6)
   23474:	003f7806 	br	23258 <__alt_mem_sdram_controller_0+0xc0023258>

00023478 <_fseek_r>:
   23478:	00234981 	jmpi	23498 <_fseeko_r>

0002347c <fseek>:
   2347c:	00800134 	movhi	r2,4
   23480:	10a03d04 	addi	r2,r2,-32524
   23484:	300f883a 	mov	r7,r6
   23488:	280d883a 	mov	r6,r5
   2348c:	200b883a 	mov	r5,r4
   23490:	11000017 	ldw	r4,0(r2)
   23494:	00234981 	jmpi	23498 <_fseeko_r>

00023498 <_fseeko_r>:
   23498:	deffe804 	addi	sp,sp,-96
   2349c:	dd401415 	stw	r21,80(sp)
   234a0:	dc801115 	stw	r18,68(sp)
   234a4:	dc401015 	stw	r17,64(sp)
   234a8:	dc000f15 	stw	r16,60(sp)
   234ac:	dfc01715 	stw	ra,92(sp)
   234b0:	ddc01615 	stw	r23,88(sp)
   234b4:	dd801515 	stw	r22,84(sp)
   234b8:	dd001315 	stw	r20,76(sp)
   234bc:	dcc01215 	stw	r19,72(sp)
   234c0:	2023883a 	mov	r17,r4
   234c4:	2821883a 	mov	r16,r5
   234c8:	302b883a 	mov	r21,r6
   234cc:	3825883a 	mov	r18,r7
   234d0:	20000226 	beq	r4,zero,234dc <_fseeko_r+0x44>
   234d4:	20800e17 	ldw	r2,56(r4)
   234d8:	10005a26 	beq	r2,zero,23644 <_fseeko_r+0x1ac>
   234dc:	8080030b 	ldhu	r2,12(r16)
   234e0:	00c04204 	movi	r3,264
   234e4:	1080420c 	andi	r2,r2,264
   234e8:	10c05b26 	beq	r2,r3,23658 <_fseeko_r+0x1c0>
   234ec:	85000a17 	ldw	r20,40(r16)
   234f0:	a000f626 	beq	r20,zero,238cc <_fseeko_r+0x434>
   234f4:	00800044 	movi	r2,1
   234f8:	90803e26 	beq	r18,r2,235f4 <_fseeko_r+0x15c>
   234fc:	00800084 	movi	r2,2
   23500:	90801026 	beq	r18,r2,23544 <_fseeko_r+0xac>
   23504:	90000f26 	beq	r18,zero,23544 <_fseeko_r+0xac>
   23508:	00800584 	movi	r2,22
   2350c:	88800015 	stw	r2,0(r17)
   23510:	04ffffc4 	movi	r19,-1
   23514:	9805883a 	mov	r2,r19
   23518:	dfc01717 	ldw	ra,92(sp)
   2351c:	ddc01617 	ldw	r23,88(sp)
   23520:	dd801517 	ldw	r22,84(sp)
   23524:	dd401417 	ldw	r21,80(sp)
   23528:	dd001317 	ldw	r20,76(sp)
   2352c:	dcc01217 	ldw	r19,72(sp)
   23530:	dc801117 	ldw	r18,68(sp)
   23534:	dc401017 	ldw	r17,64(sp)
   23538:	dc000f17 	ldw	r16,60(sp)
   2353c:	dec01804 	addi	sp,sp,96
   23540:	f800283a 	ret
   23544:	80800417 	ldw	r2,16(r16)
   23548:	002f883a 	mov	r23,zero
   2354c:	0027883a 	mov	r19,zero
   23550:	1000cb26 	beq	r2,zero,23880 <_fseeko_r+0x3e8>
   23554:	8080030b 	ldhu	r2,12(r16)
   23558:	10c2068c 	andi	r3,r2,2074
   2355c:	1800071e 	bne	r3,zero,2357c <_fseeko_r+0xe4>
   23560:	10c1000c 	andi	r3,r2,1024
   23564:	1800451e 	bne	r3,zero,2367c <_fseeko_r+0x1e4>
   23568:	00c000b4 	movhi	r3,2
   2356c:	18d33204 	addi	r3,r3,19656
   23570:	a0c0b726 	beq	r20,r3,23850 <_fseeko_r+0x3b8>
   23574:	10820014 	ori	r2,r2,2048
   23578:	8080030d 	sth	r2,12(r16)
   2357c:	800b883a 	mov	r5,r16
   23580:	8809883a 	mov	r4,r17
   23584:	0022a640 	call	22a64 <_fflush_r>
   23588:	1027883a 	mov	r19,r2
   2358c:	103fe01e 	bne	r2,zero,23510 <__alt_mem_sdram_controller_0+0xc0023510>
   23590:	81400717 	ldw	r5,28(r16)
   23594:	900f883a 	mov	r7,r18
   23598:	a80d883a 	mov	r6,r21
   2359c:	8809883a 	mov	r4,r17
   235a0:	a03ee83a 	callr	r20
   235a4:	00ffffc4 	movi	r3,-1
   235a8:	10ffd926 	beq	r2,r3,23510 <__alt_mem_sdram_controller_0+0xc0023510>
   235ac:	81400c17 	ldw	r5,48(r16)
   235b0:	28000526 	beq	r5,zero,235c8 <_fseeko_r+0x130>
   235b4:	80801004 	addi	r2,r16,64
   235b8:	28800226 	beq	r5,r2,235c4 <_fseeko_r+0x12c>
   235bc:	8809883a 	mov	r4,r17
   235c0:	00231680 	call	23168 <_free_r>
   235c4:	80000c15 	stw	zero,48(r16)
   235c8:	8080030b 	ldhu	r2,12(r16)
   235cc:	80c00417 	ldw	r3,16(r16)
   235d0:	80000115 	stw	zero,4(r16)
   235d4:	10bdf7cc 	andi	r2,r2,63455
   235d8:	80c00015 	stw	r3,0(r16)
   235dc:	8080030d 	sth	r2,12(r16)
   235e0:	01800204 	movi	r6,8
   235e4:	000b883a 	mov	r5,zero
   235e8:	81001704 	addi	r4,r16,92
   235ec:	00245a40 	call	245a4 <memset>
   235f0:	003fc806 	br	23514 <__alt_mem_sdram_controller_0+0xc0023514>
   235f4:	800b883a 	mov	r5,r16
   235f8:	8809883a 	mov	r4,r17
   235fc:	0022a640 	call	22a64 <_fflush_r>
   23600:	8080030b 	ldhu	r2,12(r16)
   23604:	10c4000c 	andi	r3,r2,4096
   23608:	18008726 	beq	r3,zero,23828 <_fseeko_r+0x390>
   2360c:	84c01417 	ldw	r19,80(r16)
   23610:	10c0010c 	andi	r3,r2,4
   23614:	1800431e 	bne	r3,zero,23724 <_fseeko_r+0x28c>
   23618:	1080020c 	andi	r2,r2,8
   2361c:	10008026 	beq	r2,zero,23820 <_fseeko_r+0x388>
   23620:	80c00017 	ldw	r3,0(r16)
   23624:	80800417 	ldw	r2,16(r16)
   23628:	18000226 	beq	r3,zero,23634 <_fseeko_r+0x19c>
   2362c:	1887c83a 	sub	r3,r3,r2
   23630:	98e7883a 	add	r19,r19,r3
   23634:	aceb883a 	add	r21,r21,r19
   23638:	05c00044 	movi	r23,1
   2363c:	0025883a 	mov	r18,zero
   23640:	003fc306 	br	23550 <__alt_mem_sdram_controller_0+0xc0023550>
   23644:	0022e400 	call	22e40 <__sinit>
   23648:	8080030b 	ldhu	r2,12(r16)
   2364c:	00c04204 	movi	r3,264
   23650:	1080420c 	andi	r2,r2,264
   23654:	10ffa51e 	bne	r2,r3,234ec <__alt_mem_sdram_controller_0+0xc00234ec>
   23658:	800b883a 	mov	r5,r16
   2365c:	8809883a 	mov	r4,r17
   23660:	0022a640 	call	22a64 <_fflush_r>
   23664:	003fa106 	br	234ec <__alt_mem_sdram_controller_0+0xc00234ec>
   23668:	8080030b 	ldhu	r2,12(r16)
   2366c:	00c10004 	movi	r3,1024
   23670:	80c01315 	stw	r3,76(r16)
   23674:	10c4b03a 	or	r2,r2,r3
   23678:	8080030d 	sth	r2,12(r16)
   2367c:	9000311e 	bne	r18,zero,23744 <_fseeko_r+0x2ac>
   23680:	a82d883a 	mov	r22,r21
   23684:	b800371e 	bne	r23,zero,23764 <_fseeko_r+0x2cc>
   23688:	8080030b 	ldhu	r2,12(r16)
   2368c:	1084000c 	andi	r2,r2,4096
   23690:	10007f26 	beq	r2,zero,23890 <_fseeko_r+0x3f8>
   23694:	80801417 	ldw	r2,80(r16)
   23698:	81800117 	ldw	r6,4(r16)
   2369c:	81400c17 	ldw	r5,48(r16)
   236a0:	11a7c83a 	sub	r19,r2,r6
   236a4:	28008226 	beq	r5,zero,238b0 <_fseeko_r+0x418>
   236a8:	81c00f17 	ldw	r7,60(r16)
   236ac:	99e7c83a 	sub	r19,r19,r7
   236b0:	81000e17 	ldw	r4,56(r16)
   236b4:	80800417 	ldw	r2,16(r16)
   236b8:	99a7883a 	add	r19,r19,r6
   236bc:	2087c83a 	sub	r3,r4,r2
   236c0:	98e7c83a 	sub	r19,r19,r3
   236c4:	38c7883a 	add	r3,r7,r3
   236c8:	b4c02b16 	blt	r22,r19,23778 <_fseeko_r+0x2e0>
   236cc:	98c9883a 	add	r4,r19,r3
   236d0:	b100292e 	bgeu	r22,r4,23778 <_fseeko_r+0x2e0>
   236d4:	b4e7c83a 	sub	r19,r22,r19
   236d8:	14c5883a 	add	r2,r2,r19
   236dc:	1ce7c83a 	sub	r19,r3,r19
   236e0:	80800015 	stw	r2,0(r16)
   236e4:	84c00115 	stw	r19,4(r16)
   236e8:	28000526 	beq	r5,zero,23700 <_fseeko_r+0x268>
   236ec:	80801004 	addi	r2,r16,64
   236f0:	28800226 	beq	r5,r2,236fc <_fseeko_r+0x264>
   236f4:	8809883a 	mov	r4,r17
   236f8:	00231680 	call	23168 <_free_r>
   236fc:	80000c15 	stw	zero,48(r16)
   23700:	8080030b 	ldhu	r2,12(r16)
   23704:	01800204 	movi	r6,8
   23708:	000b883a 	mov	r5,zero
   2370c:	10bff7cc 	andi	r2,r2,65503
   23710:	8080030d 	sth	r2,12(r16)
   23714:	81001704 	addi	r4,r16,92
   23718:	00245a40 	call	245a4 <memset>
   2371c:	0027883a 	mov	r19,zero
   23720:	003f7c06 	br	23514 <__alt_mem_sdram_controller_0+0xc0023514>
   23724:	80c00117 	ldw	r3,4(r16)
   23728:	80800c17 	ldw	r2,48(r16)
   2372c:	98e7c83a 	sub	r19,r19,r3
   23730:	10003b26 	beq	r2,zero,23820 <_fseeko_r+0x388>
   23734:	80c00f17 	ldw	r3,60(r16)
   23738:	80800417 	ldw	r2,16(r16)
   2373c:	98e7c83a 	sub	r19,r19,r3
   23740:	003fbc06 	br	23634 <__alt_mem_sdram_controller_0+0xc0023634>
   23744:	8140038f 	ldh	r5,14(r16)
   23748:	d80d883a 	mov	r6,sp
   2374c:	8809883a 	mov	r4,r17
   23750:	00238f80 	call	238f8 <_fstat_r>
   23754:	103f891e 	bne	r2,zero,2357c <__alt_mem_sdram_controller_0+0xc002357c>
   23758:	dd800417 	ldw	r22,16(sp)
   2375c:	adad883a 	add	r22,r21,r22
   23760:	b83fc926 	beq	r23,zero,23688 <__alt_mem_sdram_controller_0+0xc0023688>
   23764:	81400c17 	ldw	r5,48(r16)
   23768:	81800117 	ldw	r6,4(r16)
   2376c:	28005026 	beq	r5,zero,238b0 <_fseeko_r+0x418>
   23770:	81c00f17 	ldw	r7,60(r16)
   23774:	003fce06 	br	236b0 <__alt_mem_sdram_controller_0+0xc00236b0>
   23778:	84c01317 	ldw	r19,76(r16)
   2377c:	81400717 	ldw	r5,28(r16)
   23780:	000f883a 	mov	r7,zero
   23784:	04e7c83a 	sub	r19,zero,r19
   23788:	9da6703a 	and	r19,r19,r22
   2378c:	980d883a 	mov	r6,r19
   23790:	8809883a 	mov	r4,r17
   23794:	a03ee83a 	callr	r20
   23798:	00ffffc4 	movi	r3,-1
   2379c:	10ff7726 	beq	r2,r3,2357c <__alt_mem_sdram_controller_0+0xc002357c>
   237a0:	80800417 	ldw	r2,16(r16)
   237a4:	81400c17 	ldw	r5,48(r16)
   237a8:	80000115 	stw	zero,4(r16)
   237ac:	80800015 	stw	r2,0(r16)
   237b0:	28000526 	beq	r5,zero,237c8 <_fseeko_r+0x330>
   237b4:	80801004 	addi	r2,r16,64
   237b8:	28800226 	beq	r5,r2,237c4 <_fseeko_r+0x32c>
   237bc:	8809883a 	mov	r4,r17
   237c0:	00231680 	call	23168 <_free_r>
   237c4:	80000c15 	stw	zero,48(r16)
   237c8:	8080030b 	ldhu	r2,12(r16)
   237cc:	b4e7c83a 	sub	r19,r22,r19
   237d0:	10bff7cc 	andi	r2,r2,65503
   237d4:	8080030d 	sth	r2,12(r16)
   237d8:	98000b26 	beq	r19,zero,23808 <_fseeko_r+0x370>
   237dc:	800b883a 	mov	r5,r16
   237e0:	8809883a 	mov	r4,r17
   237e4:	00249040 	call	24904 <__srefill_r>
   237e8:	103f641e 	bne	r2,zero,2357c <__alt_mem_sdram_controller_0+0xc002357c>
   237ec:	80800117 	ldw	r2,4(r16)
   237f0:	14ff6236 	bltu	r2,r19,2357c <__alt_mem_sdram_controller_0+0xc002357c>
   237f4:	80c00017 	ldw	r3,0(r16)
   237f8:	14c5c83a 	sub	r2,r2,r19
   237fc:	80800115 	stw	r2,4(r16)
   23800:	1ce7883a 	add	r19,r3,r19
   23804:	84c00015 	stw	r19,0(r16)
   23808:	01800204 	movi	r6,8
   2380c:	000b883a 	mov	r5,zero
   23810:	81001704 	addi	r4,r16,92
   23814:	00245a40 	call	245a4 <memset>
   23818:	0027883a 	mov	r19,zero
   2381c:	003f3d06 	br	23514 <__alt_mem_sdram_controller_0+0xc0023514>
   23820:	80800417 	ldw	r2,16(r16)
   23824:	003f8306 	br	23634 <__alt_mem_sdram_controller_0+0xc0023634>
   23828:	81400717 	ldw	r5,28(r16)
   2382c:	900f883a 	mov	r7,r18
   23830:	000d883a 	mov	r6,zero
   23834:	8809883a 	mov	r4,r17
   23838:	a03ee83a 	callr	r20
   2383c:	1027883a 	mov	r19,r2
   23840:	00bfffc4 	movi	r2,-1
   23844:	98bf3226 	beq	r19,r2,23510 <__alt_mem_sdram_controller_0+0xc0023510>
   23848:	8080030b 	ldhu	r2,12(r16)
   2384c:	003f7006 	br	23610 <__alt_mem_sdram_controller_0+0xc0023610>
   23850:	8140038f 	ldh	r5,14(r16)
   23854:	283f4716 	blt	r5,zero,23574 <__alt_mem_sdram_controller_0+0xc0023574>
   23858:	d80d883a 	mov	r6,sp
   2385c:	8809883a 	mov	r4,r17
   23860:	00238f80 	call	238f8 <_fstat_r>
   23864:	1000041e 	bne	r2,zero,23878 <_fseeko_r+0x3e0>
   23868:	d8800117 	ldw	r2,4(sp)
   2386c:	00e00014 	movui	r3,32768
   23870:	10bc000c 	andi	r2,r2,61440
   23874:	10ff7c26 	beq	r2,r3,23668 <__alt_mem_sdram_controller_0+0xc0023668>
   23878:	8080030b 	ldhu	r2,12(r16)
   2387c:	003f3d06 	br	23574 <__alt_mem_sdram_controller_0+0xc0023574>
   23880:	800b883a 	mov	r5,r16
   23884:	8809883a 	mov	r4,r17
   23888:	0023bdc0 	call	23bdc <__smakebuf_r>
   2388c:	003f3106 	br	23554 <__alt_mem_sdram_controller_0+0xc0023554>
   23890:	81400717 	ldw	r5,28(r16)
   23894:	01c00044 	movi	r7,1
   23898:	000d883a 	mov	r6,zero
   2389c:	8809883a 	mov	r4,r17
   238a0:	a03ee83a 	callr	r20
   238a4:	00ffffc4 	movi	r3,-1
   238a8:	10ff7b1e 	bne	r2,r3,23698 <__alt_mem_sdram_controller_0+0xc0023698>
   238ac:	003f3306 	br	2357c <__alt_mem_sdram_controller_0+0xc002357c>
   238b0:	80c00017 	ldw	r3,0(r16)
   238b4:	80800417 	ldw	r2,16(r16)
   238b8:	000b883a 	mov	r5,zero
   238bc:	1887c83a 	sub	r3,r3,r2
   238c0:	98e7c83a 	sub	r19,r19,r3
   238c4:	30c7883a 	add	r3,r6,r3
   238c8:	003f7f06 	br	236c8 <__alt_mem_sdram_controller_0+0xc00236c8>
   238cc:	00800744 	movi	r2,29
   238d0:	88800015 	stw	r2,0(r17)
   238d4:	04ffffc4 	movi	r19,-1
   238d8:	003f0e06 	br	23514 <__alt_mem_sdram_controller_0+0xc0023514>

000238dc <fseeko>:
   238dc:	00800134 	movhi	r2,4
   238e0:	10a03d04 	addi	r2,r2,-32524
   238e4:	300f883a 	mov	r7,r6
   238e8:	280d883a 	mov	r6,r5
   238ec:	200b883a 	mov	r5,r4
   238f0:	11000017 	ldw	r4,0(r2)
   238f4:	00234981 	jmpi	23498 <_fseeko_r>

000238f8 <_fstat_r>:
   238f8:	defffd04 	addi	sp,sp,-12
   238fc:	2805883a 	mov	r2,r5
   23900:	dc000015 	stw	r16,0(sp)
   23904:	04000134 	movhi	r16,4
   23908:	dc400115 	stw	r17,4(sp)
   2390c:	84270804 	addi	r16,r16,-25568
   23910:	2023883a 	mov	r17,r4
   23914:	300b883a 	mov	r5,r6
   23918:	1009883a 	mov	r4,r2
   2391c:	dfc00215 	stw	ra,8(sp)
   23920:	80000015 	stw	zero,0(r16)
   23924:	00335ec0 	call	335ec <fstat>
   23928:	00ffffc4 	movi	r3,-1
   2392c:	10c00526 	beq	r2,r3,23944 <_fstat_r+0x4c>
   23930:	dfc00217 	ldw	ra,8(sp)
   23934:	dc400117 	ldw	r17,4(sp)
   23938:	dc000017 	ldw	r16,0(sp)
   2393c:	dec00304 	addi	sp,sp,12
   23940:	f800283a 	ret
   23944:	80c00017 	ldw	r3,0(r16)
   23948:	183ff926 	beq	r3,zero,23930 <__alt_mem_sdram_controller_0+0xc0023930>
   2394c:	88c00015 	stw	r3,0(r17)
   23950:	003ff706 	br	23930 <__alt_mem_sdram_controller_0+0xc0023930>

00023954 <_fwalk>:
   23954:	defff704 	addi	sp,sp,-36
   23958:	dd000415 	stw	r20,16(sp)
   2395c:	dfc00815 	stw	ra,32(sp)
   23960:	ddc00715 	stw	r23,28(sp)
   23964:	dd800615 	stw	r22,24(sp)
   23968:	dd400515 	stw	r21,20(sp)
   2396c:	dcc00315 	stw	r19,12(sp)
   23970:	dc800215 	stw	r18,8(sp)
   23974:	dc400115 	stw	r17,4(sp)
   23978:	dc000015 	stw	r16,0(sp)
   2397c:	2500b804 	addi	r20,r4,736
   23980:	a0002326 	beq	r20,zero,23a10 <_fwalk+0xbc>
   23984:	282b883a 	mov	r21,r5
   23988:	002f883a 	mov	r23,zero
   2398c:	05800044 	movi	r22,1
   23990:	04ffffc4 	movi	r19,-1
   23994:	a4400117 	ldw	r17,4(r20)
   23998:	a4800217 	ldw	r18,8(r20)
   2399c:	8c7fffc4 	addi	r17,r17,-1
   239a0:	88000d16 	blt	r17,zero,239d8 <_fwalk+0x84>
   239a4:	94000304 	addi	r16,r18,12
   239a8:	94800384 	addi	r18,r18,14
   239ac:	8080000b 	ldhu	r2,0(r16)
   239b0:	8c7fffc4 	addi	r17,r17,-1
   239b4:	813ffd04 	addi	r4,r16,-12
   239b8:	b080042e 	bgeu	r22,r2,239cc <_fwalk+0x78>
   239bc:	9080000f 	ldh	r2,0(r18)
   239c0:	14c00226 	beq	r2,r19,239cc <_fwalk+0x78>
   239c4:	a83ee83a 	callr	r21
   239c8:	b8aeb03a 	or	r23,r23,r2
   239cc:	84001a04 	addi	r16,r16,104
   239d0:	94801a04 	addi	r18,r18,104
   239d4:	8cfff51e 	bne	r17,r19,239ac <__alt_mem_sdram_controller_0+0xc00239ac>
   239d8:	a5000017 	ldw	r20,0(r20)
   239dc:	a03fed1e 	bne	r20,zero,23994 <__alt_mem_sdram_controller_0+0xc0023994>
   239e0:	b805883a 	mov	r2,r23
   239e4:	dfc00817 	ldw	ra,32(sp)
   239e8:	ddc00717 	ldw	r23,28(sp)
   239ec:	dd800617 	ldw	r22,24(sp)
   239f0:	dd400517 	ldw	r21,20(sp)
   239f4:	dd000417 	ldw	r20,16(sp)
   239f8:	dcc00317 	ldw	r19,12(sp)
   239fc:	dc800217 	ldw	r18,8(sp)
   23a00:	dc400117 	ldw	r17,4(sp)
   23a04:	dc000017 	ldw	r16,0(sp)
   23a08:	dec00904 	addi	sp,sp,36
   23a0c:	f800283a 	ret
   23a10:	002f883a 	mov	r23,zero
   23a14:	003ff206 	br	239e0 <__alt_mem_sdram_controller_0+0xc00239e0>

00023a18 <_fwalk_reent>:
   23a18:	defff704 	addi	sp,sp,-36
   23a1c:	dd000415 	stw	r20,16(sp)
   23a20:	dfc00815 	stw	ra,32(sp)
   23a24:	ddc00715 	stw	r23,28(sp)
   23a28:	dd800615 	stw	r22,24(sp)
   23a2c:	dd400515 	stw	r21,20(sp)
   23a30:	dcc00315 	stw	r19,12(sp)
   23a34:	dc800215 	stw	r18,8(sp)
   23a38:	dc400115 	stw	r17,4(sp)
   23a3c:	dc000015 	stw	r16,0(sp)
   23a40:	2500b804 	addi	r20,r4,736
   23a44:	a0002326 	beq	r20,zero,23ad4 <_fwalk_reent+0xbc>
   23a48:	282b883a 	mov	r21,r5
   23a4c:	2027883a 	mov	r19,r4
   23a50:	002f883a 	mov	r23,zero
   23a54:	05800044 	movi	r22,1
   23a58:	04bfffc4 	movi	r18,-1
   23a5c:	a4400117 	ldw	r17,4(r20)
   23a60:	a4000217 	ldw	r16,8(r20)
   23a64:	8c7fffc4 	addi	r17,r17,-1
   23a68:	88000c16 	blt	r17,zero,23a9c <_fwalk_reent+0x84>
   23a6c:	84000304 	addi	r16,r16,12
   23a70:	8080000b 	ldhu	r2,0(r16)
   23a74:	8c7fffc4 	addi	r17,r17,-1
   23a78:	817ffd04 	addi	r5,r16,-12
   23a7c:	b080052e 	bgeu	r22,r2,23a94 <_fwalk_reent+0x7c>
   23a80:	8080008f 	ldh	r2,2(r16)
   23a84:	9809883a 	mov	r4,r19
   23a88:	14800226 	beq	r2,r18,23a94 <_fwalk_reent+0x7c>
   23a8c:	a83ee83a 	callr	r21
   23a90:	b8aeb03a 	or	r23,r23,r2
   23a94:	84001a04 	addi	r16,r16,104
   23a98:	8cbff51e 	bne	r17,r18,23a70 <__alt_mem_sdram_controller_0+0xc0023a70>
   23a9c:	a5000017 	ldw	r20,0(r20)
   23aa0:	a03fee1e 	bne	r20,zero,23a5c <__alt_mem_sdram_controller_0+0xc0023a5c>
   23aa4:	b805883a 	mov	r2,r23
   23aa8:	dfc00817 	ldw	ra,32(sp)
   23aac:	ddc00717 	ldw	r23,28(sp)
   23ab0:	dd800617 	ldw	r22,24(sp)
   23ab4:	dd400517 	ldw	r21,20(sp)
   23ab8:	dd000417 	ldw	r20,16(sp)
   23abc:	dcc00317 	ldw	r19,12(sp)
   23ac0:	dc800217 	ldw	r18,8(sp)
   23ac4:	dc400117 	ldw	r17,4(sp)
   23ac8:	dc000017 	ldw	r16,0(sp)
   23acc:	dec00904 	addi	sp,sp,36
   23ad0:	f800283a 	ret
   23ad4:	002f883a 	mov	r23,zero
   23ad8:	003ff206 	br	23aa4 <__alt_mem_sdram_controller_0+0xc0023aa4>

00023adc <_fwrite_r>:
   23adc:	defff504 	addi	sp,sp,-44
   23ae0:	dc800815 	stw	r18,32(sp)
   23ae4:	39a5383a 	mul	r18,r7,r6
   23ae8:	d8800304 	addi	r2,sp,12
   23aec:	d8800015 	stw	r2,0(sp)
   23af0:	00800044 	movi	r2,1
   23af4:	dcc00915 	stw	r19,36(sp)
   23af8:	dc400715 	stw	r17,28(sp)
   23afc:	dc000615 	stw	r16,24(sp)
   23b00:	d9400315 	stw	r5,12(sp)
   23b04:	dfc00a15 	stw	ra,40(sp)
   23b08:	dc800415 	stw	r18,16(sp)
   23b0c:	dc800215 	stw	r18,8(sp)
   23b10:	d8800115 	stw	r2,4(sp)
   23b14:	3027883a 	mov	r19,r6
   23b18:	3821883a 	mov	r16,r7
   23b1c:	2023883a 	mov	r17,r4
   23b20:	d9400b17 	ldw	r5,44(sp)
   23b24:	20000226 	beq	r4,zero,23b30 <_fwrite_r+0x54>
   23b28:	20800e17 	ldw	r2,56(r4)
   23b2c:	10001a26 	beq	r2,zero,23b98 <_fwrite_r+0xbc>
   23b30:	2880030b 	ldhu	r2,12(r5)
   23b34:	10c8000c 	andi	r3,r2,8192
   23b38:	1800061e 	bne	r3,zero,23b54 <_fwrite_r+0x78>
   23b3c:	29001917 	ldw	r4,100(r5)
   23b40:	00f7ffc4 	movi	r3,-8193
   23b44:	10880014 	ori	r2,r2,8192
   23b48:	20c6703a 	and	r3,r4,r3
   23b4c:	2880030d 	sth	r2,12(r5)
   23b50:	28c01915 	stw	r3,100(r5)
   23b54:	d80d883a 	mov	r6,sp
   23b58:	8809883a 	mov	r4,r17
   23b5c:	002ae280 	call	2ae28 <__sfvwrite_r>
   23b60:	10000b26 	beq	r2,zero,23b90 <_fwrite_r+0xb4>
   23b64:	d9000217 	ldw	r4,8(sp)
   23b68:	980b883a 	mov	r5,r19
   23b6c:	9109c83a 	sub	r4,r18,r4
   23b70:	002260c0 	call	2260c <__udivsi3>
   23b74:	dfc00a17 	ldw	ra,40(sp)
   23b78:	dcc00917 	ldw	r19,36(sp)
   23b7c:	dc800817 	ldw	r18,32(sp)
   23b80:	dc400717 	ldw	r17,28(sp)
   23b84:	dc000617 	ldw	r16,24(sp)
   23b88:	dec00b04 	addi	sp,sp,44
   23b8c:	f800283a 	ret
   23b90:	8005883a 	mov	r2,r16
   23b94:	003ff706 	br	23b74 <__alt_mem_sdram_controller_0+0xc0023b74>
   23b98:	d9400515 	stw	r5,20(sp)
   23b9c:	0022e400 	call	22e40 <__sinit>
   23ba0:	d9400517 	ldw	r5,20(sp)
   23ba4:	003fe206 	br	23b30 <__alt_mem_sdram_controller_0+0xc0023b30>

00023ba8 <fwrite>:
   23ba8:	defffe04 	addi	sp,sp,-8
   23bac:	00800134 	movhi	r2,4
   23bb0:	d9c00015 	stw	r7,0(sp)
   23bb4:	10a03d04 	addi	r2,r2,-32524
   23bb8:	300f883a 	mov	r7,r6
   23bbc:	280d883a 	mov	r6,r5
   23bc0:	200b883a 	mov	r5,r4
   23bc4:	11000017 	ldw	r4,0(r2)
   23bc8:	dfc00115 	stw	ra,4(sp)
   23bcc:	0023adc0 	call	23adc <_fwrite_r>
   23bd0:	dfc00117 	ldw	ra,4(sp)
   23bd4:	dec00204 	addi	sp,sp,8
   23bd8:	f800283a 	ret

00023bdc <__smakebuf_r>:
   23bdc:	2880030b 	ldhu	r2,12(r5)
   23be0:	10c0008c 	andi	r3,r2,2
   23be4:	1800411e 	bne	r3,zero,23cec <__smakebuf_r+0x110>
   23be8:	deffec04 	addi	sp,sp,-80
   23bec:	dc000f15 	stw	r16,60(sp)
   23bf0:	2821883a 	mov	r16,r5
   23bf4:	2940038f 	ldh	r5,14(r5)
   23bf8:	dc401015 	stw	r17,64(sp)
   23bfc:	dfc01315 	stw	ra,76(sp)
   23c00:	dcc01215 	stw	r19,72(sp)
   23c04:	dc801115 	stw	r18,68(sp)
   23c08:	2023883a 	mov	r17,r4
   23c0c:	28001c16 	blt	r5,zero,23c80 <__smakebuf_r+0xa4>
   23c10:	d80d883a 	mov	r6,sp
   23c14:	00238f80 	call	238f8 <_fstat_r>
   23c18:	10001816 	blt	r2,zero,23c7c <__smakebuf_r+0xa0>
   23c1c:	d8800117 	ldw	r2,4(sp)
   23c20:	00e00014 	movui	r3,32768
   23c24:	10bc000c 	andi	r2,r2,61440
   23c28:	14c80020 	cmpeqi	r19,r2,8192
   23c2c:	10c03726 	beq	r2,r3,23d0c <__smakebuf_r+0x130>
   23c30:	80c0030b 	ldhu	r3,12(r16)
   23c34:	18c20014 	ori	r3,r3,2048
   23c38:	80c0030d 	sth	r3,12(r16)
   23c3c:	00c80004 	movi	r3,8192
   23c40:	10c0521e 	bne	r2,r3,23d8c <__smakebuf_r+0x1b0>
   23c44:	8140038f 	ldh	r5,14(r16)
   23c48:	8809883a 	mov	r4,r17
   23c4c:	002b3400 	call	2b340 <_isatty_r>
   23c50:	10004c26 	beq	r2,zero,23d84 <__smakebuf_r+0x1a8>
   23c54:	8080030b 	ldhu	r2,12(r16)
   23c58:	80c010c4 	addi	r3,r16,67
   23c5c:	80c00015 	stw	r3,0(r16)
   23c60:	10800054 	ori	r2,r2,1
   23c64:	8080030d 	sth	r2,12(r16)
   23c68:	00800044 	movi	r2,1
   23c6c:	80c00415 	stw	r3,16(r16)
   23c70:	80800515 	stw	r2,20(r16)
   23c74:	04810004 	movi	r18,1024
   23c78:	00000706 	br	23c98 <__smakebuf_r+0xbc>
   23c7c:	8080030b 	ldhu	r2,12(r16)
   23c80:	10c0200c 	andi	r3,r2,128
   23c84:	18001f1e 	bne	r3,zero,23d04 <__smakebuf_r+0x128>
   23c88:	04810004 	movi	r18,1024
   23c8c:	10820014 	ori	r2,r2,2048
   23c90:	8080030d 	sth	r2,12(r16)
   23c94:	0027883a 	mov	r19,zero
   23c98:	900b883a 	mov	r5,r18
   23c9c:	8809883a 	mov	r4,r17
   23ca0:	0023d980 	call	23d98 <_malloc_r>
   23ca4:	10002c26 	beq	r2,zero,23d58 <__smakebuf_r+0x17c>
   23ca8:	80c0030b 	ldhu	r3,12(r16)
   23cac:	010000b4 	movhi	r4,2
   23cb0:	210abe04 	addi	r4,r4,11000
   23cb4:	89000f15 	stw	r4,60(r17)
   23cb8:	18c02014 	ori	r3,r3,128
   23cbc:	80c0030d 	sth	r3,12(r16)
   23cc0:	80800015 	stw	r2,0(r16)
   23cc4:	80800415 	stw	r2,16(r16)
   23cc8:	84800515 	stw	r18,20(r16)
   23ccc:	98001a1e 	bne	r19,zero,23d38 <__smakebuf_r+0x15c>
   23cd0:	dfc01317 	ldw	ra,76(sp)
   23cd4:	dcc01217 	ldw	r19,72(sp)
   23cd8:	dc801117 	ldw	r18,68(sp)
   23cdc:	dc401017 	ldw	r17,64(sp)
   23ce0:	dc000f17 	ldw	r16,60(sp)
   23ce4:	dec01404 	addi	sp,sp,80
   23ce8:	f800283a 	ret
   23cec:	288010c4 	addi	r2,r5,67
   23cf0:	28800015 	stw	r2,0(r5)
   23cf4:	28800415 	stw	r2,16(r5)
   23cf8:	00800044 	movi	r2,1
   23cfc:	28800515 	stw	r2,20(r5)
   23d00:	f800283a 	ret
   23d04:	04801004 	movi	r18,64
   23d08:	003fe006 	br	23c8c <__alt_mem_sdram_controller_0+0xc0023c8c>
   23d0c:	81000a17 	ldw	r4,40(r16)
   23d10:	00c000b4 	movhi	r3,2
   23d14:	18d33204 	addi	r3,r3,19656
   23d18:	20ffc51e 	bne	r4,r3,23c30 <__alt_mem_sdram_controller_0+0xc0023c30>
   23d1c:	8080030b 	ldhu	r2,12(r16)
   23d20:	04810004 	movi	r18,1024
   23d24:	84801315 	stw	r18,76(r16)
   23d28:	1484b03a 	or	r2,r2,r18
   23d2c:	8080030d 	sth	r2,12(r16)
   23d30:	0027883a 	mov	r19,zero
   23d34:	003fd806 	br	23c98 <__alt_mem_sdram_controller_0+0xc0023c98>
   23d38:	8140038f 	ldh	r5,14(r16)
   23d3c:	8809883a 	mov	r4,r17
   23d40:	002b3400 	call	2b340 <_isatty_r>
   23d44:	103fe226 	beq	r2,zero,23cd0 <__alt_mem_sdram_controller_0+0xc0023cd0>
   23d48:	8080030b 	ldhu	r2,12(r16)
   23d4c:	10800054 	ori	r2,r2,1
   23d50:	8080030d 	sth	r2,12(r16)
   23d54:	003fde06 	br	23cd0 <__alt_mem_sdram_controller_0+0xc0023cd0>
   23d58:	8080030b 	ldhu	r2,12(r16)
   23d5c:	10c0800c 	andi	r3,r2,512
   23d60:	183fdb1e 	bne	r3,zero,23cd0 <__alt_mem_sdram_controller_0+0xc0023cd0>
   23d64:	10800094 	ori	r2,r2,2
   23d68:	80c010c4 	addi	r3,r16,67
   23d6c:	8080030d 	sth	r2,12(r16)
   23d70:	00800044 	movi	r2,1
   23d74:	80c00015 	stw	r3,0(r16)
   23d78:	80c00415 	stw	r3,16(r16)
   23d7c:	80800515 	stw	r2,20(r16)
   23d80:	003fd306 	br	23cd0 <__alt_mem_sdram_controller_0+0xc0023cd0>
   23d84:	04810004 	movi	r18,1024
   23d88:	003fc306 	br	23c98 <__alt_mem_sdram_controller_0+0xc0023c98>
   23d8c:	0027883a 	mov	r19,zero
   23d90:	04810004 	movi	r18,1024
   23d94:	003fc006 	br	23c98 <__alt_mem_sdram_controller_0+0xc0023c98>

00023d98 <_malloc_r>:
   23d98:	defff504 	addi	sp,sp,-44
   23d9c:	dc800315 	stw	r18,12(sp)
   23da0:	dfc00a15 	stw	ra,40(sp)
   23da4:	df000915 	stw	fp,36(sp)
   23da8:	ddc00815 	stw	r23,32(sp)
   23dac:	dd800715 	stw	r22,28(sp)
   23db0:	dd400615 	stw	r21,24(sp)
   23db4:	dd000515 	stw	r20,20(sp)
   23db8:	dcc00415 	stw	r19,16(sp)
   23dbc:	dc400215 	stw	r17,8(sp)
   23dc0:	dc000115 	stw	r16,4(sp)
   23dc4:	288002c4 	addi	r2,r5,11
   23dc8:	00c00584 	movi	r3,22
   23dcc:	2025883a 	mov	r18,r4
   23dd0:	18807f2e 	bgeu	r3,r2,23fd0 <_malloc_r+0x238>
   23dd4:	047ffe04 	movi	r17,-8
   23dd8:	1462703a 	and	r17,r2,r17
   23ddc:	8800a316 	blt	r17,zero,2406c <_malloc_r+0x2d4>
   23de0:	8940a236 	bltu	r17,r5,2406c <_malloc_r+0x2d4>
   23de4:	0033d740 	call	33d74 <__malloc_lock>
   23de8:	00807dc4 	movi	r2,503
   23dec:	1441e92e 	bgeu	r2,r17,24594 <_malloc_r+0x7fc>
   23df0:	8804d27a 	srli	r2,r17,9
   23df4:	1000a126 	beq	r2,zero,2407c <_malloc_r+0x2e4>
   23df8:	00c00104 	movi	r3,4
   23dfc:	18811e36 	bltu	r3,r2,24278 <_malloc_r+0x4e0>
   23e00:	8804d1ba 	srli	r2,r17,6
   23e04:	12000e44 	addi	r8,r2,57
   23e08:	11c00e04 	addi	r7,r2,56
   23e0c:	4209883a 	add	r4,r8,r8
   23e10:	04c000f4 	movhi	r19,3
   23e14:	2109883a 	add	r4,r4,r4
   23e18:	9cda9a04 	addi	r19,r19,27240
   23e1c:	2109883a 	add	r4,r4,r4
   23e20:	9909883a 	add	r4,r19,r4
   23e24:	24000117 	ldw	r16,4(r4)
   23e28:	213ffe04 	addi	r4,r4,-8
   23e2c:	24009726 	beq	r4,r16,2408c <_malloc_r+0x2f4>
   23e30:	80800117 	ldw	r2,4(r16)
   23e34:	01bfff04 	movi	r6,-4
   23e38:	014003c4 	movi	r5,15
   23e3c:	1184703a 	and	r2,r2,r6
   23e40:	1447c83a 	sub	r3,r2,r17
   23e44:	28c00716 	blt	r5,r3,23e64 <_malloc_r+0xcc>
   23e48:	1800920e 	bge	r3,zero,24094 <_malloc_r+0x2fc>
   23e4c:	84000317 	ldw	r16,12(r16)
   23e50:	24008e26 	beq	r4,r16,2408c <_malloc_r+0x2f4>
   23e54:	80800117 	ldw	r2,4(r16)
   23e58:	1184703a 	and	r2,r2,r6
   23e5c:	1447c83a 	sub	r3,r2,r17
   23e60:	28fff90e 	bge	r5,r3,23e48 <__alt_mem_sdram_controller_0+0xc0023e48>
   23e64:	3809883a 	mov	r4,r7
   23e68:	018000f4 	movhi	r6,3
   23e6c:	9c000417 	ldw	r16,16(r19)
   23e70:	319a9a04 	addi	r6,r6,27240
   23e74:	32000204 	addi	r8,r6,8
   23e78:	82013426 	beq	r16,r8,2434c <_malloc_r+0x5b4>
   23e7c:	80c00117 	ldw	r3,4(r16)
   23e80:	00bfff04 	movi	r2,-4
   23e84:	188e703a 	and	r7,r3,r2
   23e88:	3c45c83a 	sub	r2,r7,r17
   23e8c:	00c003c4 	movi	r3,15
   23e90:	18811f16 	blt	r3,r2,24310 <_malloc_r+0x578>
   23e94:	32000515 	stw	r8,20(r6)
   23e98:	32000415 	stw	r8,16(r6)
   23e9c:	10007f0e 	bge	r2,zero,2409c <_malloc_r+0x304>
   23ea0:	00807fc4 	movi	r2,511
   23ea4:	11c0fd36 	bltu	r2,r7,2429c <_malloc_r+0x504>
   23ea8:	3806d0fa 	srli	r3,r7,3
   23eac:	01c00044 	movi	r7,1
   23eb0:	30800117 	ldw	r2,4(r6)
   23eb4:	19400044 	addi	r5,r3,1
   23eb8:	294b883a 	add	r5,r5,r5
   23ebc:	1807d0ba 	srai	r3,r3,2
   23ec0:	294b883a 	add	r5,r5,r5
   23ec4:	294b883a 	add	r5,r5,r5
   23ec8:	298b883a 	add	r5,r5,r6
   23ecc:	38c6983a 	sll	r3,r7,r3
   23ed0:	29c00017 	ldw	r7,0(r5)
   23ed4:	2a7ffe04 	addi	r9,r5,-8
   23ed8:	1886b03a 	or	r3,r3,r2
   23edc:	82400315 	stw	r9,12(r16)
   23ee0:	81c00215 	stw	r7,8(r16)
   23ee4:	30c00115 	stw	r3,4(r6)
   23ee8:	2c000015 	stw	r16,0(r5)
   23eec:	3c000315 	stw	r16,12(r7)
   23ef0:	2005d0ba 	srai	r2,r4,2
   23ef4:	01400044 	movi	r5,1
   23ef8:	288a983a 	sll	r5,r5,r2
   23efc:	19406f36 	bltu	r3,r5,240bc <_malloc_r+0x324>
   23f00:	28c4703a 	and	r2,r5,r3
   23f04:	10000a1e 	bne	r2,zero,23f30 <_malloc_r+0x198>
   23f08:	00bfff04 	movi	r2,-4
   23f0c:	294b883a 	add	r5,r5,r5
   23f10:	2088703a 	and	r4,r4,r2
   23f14:	28c4703a 	and	r2,r5,r3
   23f18:	21000104 	addi	r4,r4,4
   23f1c:	1000041e 	bne	r2,zero,23f30 <_malloc_r+0x198>
   23f20:	294b883a 	add	r5,r5,r5
   23f24:	28c4703a 	and	r2,r5,r3
   23f28:	21000104 	addi	r4,r4,4
   23f2c:	103ffc26 	beq	r2,zero,23f20 <__alt_mem_sdram_controller_0+0xc0023f20>
   23f30:	02bfff04 	movi	r10,-4
   23f34:	024003c4 	movi	r9,15
   23f38:	21800044 	addi	r6,r4,1
   23f3c:	318d883a 	add	r6,r6,r6
   23f40:	318d883a 	add	r6,r6,r6
   23f44:	318d883a 	add	r6,r6,r6
   23f48:	998d883a 	add	r6,r19,r6
   23f4c:	333ffe04 	addi	r12,r6,-8
   23f50:	2017883a 	mov	r11,r4
   23f54:	31800104 	addi	r6,r6,4
   23f58:	34000017 	ldw	r16,0(r6)
   23f5c:	31fffd04 	addi	r7,r6,-12
   23f60:	81c0041e 	bne	r16,r7,23f74 <_malloc_r+0x1dc>
   23f64:	0000fb06 	br	24354 <_malloc_r+0x5bc>
   23f68:	1801030e 	bge	r3,zero,24378 <_malloc_r+0x5e0>
   23f6c:	84000317 	ldw	r16,12(r16)
   23f70:	81c0f826 	beq	r16,r7,24354 <_malloc_r+0x5bc>
   23f74:	80800117 	ldw	r2,4(r16)
   23f78:	1284703a 	and	r2,r2,r10
   23f7c:	1447c83a 	sub	r3,r2,r17
   23f80:	48fff90e 	bge	r9,r3,23f68 <__alt_mem_sdram_controller_0+0xc0023f68>
   23f84:	80800317 	ldw	r2,12(r16)
   23f88:	81000217 	ldw	r4,8(r16)
   23f8c:	89400054 	ori	r5,r17,1
   23f90:	81400115 	stw	r5,4(r16)
   23f94:	20800315 	stw	r2,12(r4)
   23f98:	11000215 	stw	r4,8(r2)
   23f9c:	8463883a 	add	r17,r16,r17
   23fa0:	9c400515 	stw	r17,20(r19)
   23fa4:	9c400415 	stw	r17,16(r19)
   23fa8:	18800054 	ori	r2,r3,1
   23fac:	88800115 	stw	r2,4(r17)
   23fb0:	8a000315 	stw	r8,12(r17)
   23fb4:	8a000215 	stw	r8,8(r17)
   23fb8:	88e3883a 	add	r17,r17,r3
   23fbc:	88c00015 	stw	r3,0(r17)
   23fc0:	9009883a 	mov	r4,r18
   23fc4:	0033d980 	call	33d98 <__malloc_unlock>
   23fc8:	80800204 	addi	r2,r16,8
   23fcc:	00001b06 	br	2403c <_malloc_r+0x2a4>
   23fd0:	04400404 	movi	r17,16
   23fd4:	89402536 	bltu	r17,r5,2406c <_malloc_r+0x2d4>
   23fd8:	0033d740 	call	33d74 <__malloc_lock>
   23fdc:	00800184 	movi	r2,6
   23fe0:	01000084 	movi	r4,2
   23fe4:	04c000f4 	movhi	r19,3
   23fe8:	1085883a 	add	r2,r2,r2
   23fec:	9cda9a04 	addi	r19,r19,27240
   23ff0:	1085883a 	add	r2,r2,r2
   23ff4:	9885883a 	add	r2,r19,r2
   23ff8:	14000117 	ldw	r16,4(r2)
   23ffc:	10fffe04 	addi	r3,r2,-8
   24000:	80c0d926 	beq	r16,r3,24368 <_malloc_r+0x5d0>
   24004:	80c00117 	ldw	r3,4(r16)
   24008:	81000317 	ldw	r4,12(r16)
   2400c:	00bfff04 	movi	r2,-4
   24010:	1884703a 	and	r2,r3,r2
   24014:	81400217 	ldw	r5,8(r16)
   24018:	8085883a 	add	r2,r16,r2
   2401c:	10c00117 	ldw	r3,4(r2)
   24020:	29000315 	stw	r4,12(r5)
   24024:	21400215 	stw	r5,8(r4)
   24028:	18c00054 	ori	r3,r3,1
   2402c:	10c00115 	stw	r3,4(r2)
   24030:	9009883a 	mov	r4,r18
   24034:	0033d980 	call	33d98 <__malloc_unlock>
   24038:	80800204 	addi	r2,r16,8
   2403c:	dfc00a17 	ldw	ra,40(sp)
   24040:	df000917 	ldw	fp,36(sp)
   24044:	ddc00817 	ldw	r23,32(sp)
   24048:	dd800717 	ldw	r22,28(sp)
   2404c:	dd400617 	ldw	r21,24(sp)
   24050:	dd000517 	ldw	r20,20(sp)
   24054:	dcc00417 	ldw	r19,16(sp)
   24058:	dc800317 	ldw	r18,12(sp)
   2405c:	dc400217 	ldw	r17,8(sp)
   24060:	dc000117 	ldw	r16,4(sp)
   24064:	dec00b04 	addi	sp,sp,44
   24068:	f800283a 	ret
   2406c:	00800304 	movi	r2,12
   24070:	90800015 	stw	r2,0(r18)
   24074:	0005883a 	mov	r2,zero
   24078:	003ff006 	br	2403c <__alt_mem_sdram_controller_0+0xc002403c>
   2407c:	01002004 	movi	r4,128
   24080:	02001004 	movi	r8,64
   24084:	01c00fc4 	movi	r7,63
   24088:	003f6106 	br	23e10 <__alt_mem_sdram_controller_0+0xc0023e10>
   2408c:	4009883a 	mov	r4,r8
   24090:	003f7506 	br	23e68 <__alt_mem_sdram_controller_0+0xc0023e68>
   24094:	81000317 	ldw	r4,12(r16)
   24098:	003fde06 	br	24014 <__alt_mem_sdram_controller_0+0xc0024014>
   2409c:	81c5883a 	add	r2,r16,r7
   240a0:	11400117 	ldw	r5,4(r2)
   240a4:	9009883a 	mov	r4,r18
   240a8:	29400054 	ori	r5,r5,1
   240ac:	11400115 	stw	r5,4(r2)
   240b0:	0033d980 	call	33d98 <__malloc_unlock>
   240b4:	80800204 	addi	r2,r16,8
   240b8:	003fe006 	br	2403c <__alt_mem_sdram_controller_0+0xc002403c>
   240bc:	9c000217 	ldw	r16,8(r19)
   240c0:	00bfff04 	movi	r2,-4
   240c4:	85800117 	ldw	r22,4(r16)
   240c8:	b0ac703a 	and	r22,r22,r2
   240cc:	b4400336 	bltu	r22,r17,240dc <_malloc_r+0x344>
   240d0:	b445c83a 	sub	r2,r22,r17
   240d4:	00c003c4 	movi	r3,15
   240d8:	18805d16 	blt	r3,r2,24250 <_malloc_r+0x4b8>
   240dc:	05c00134 	movhi	r23,4
   240e0:	00800134 	movhi	r2,4
   240e4:	10a70b04 	addi	r2,r2,-25556
   240e8:	bde03e04 	addi	r23,r23,-32520
   240ec:	15400017 	ldw	r21,0(r2)
   240f0:	b8c00017 	ldw	r3,0(r23)
   240f4:	00bfffc4 	movi	r2,-1
   240f8:	858d883a 	add	r6,r16,r22
   240fc:	8d6b883a 	add	r21,r17,r21
   24100:	1880ea26 	beq	r3,r2,244ac <_malloc_r+0x714>
   24104:	ad4403c4 	addi	r21,r21,4111
   24108:	00bc0004 	movi	r2,-4096
   2410c:	a8aa703a 	and	r21,r21,r2
   24110:	a80b883a 	mov	r5,r21
   24114:	9009883a 	mov	r4,r18
   24118:	d9800015 	stw	r6,0(sp)
   2411c:	0024ad80 	call	24ad8 <_sbrk_r>
   24120:	1029883a 	mov	r20,r2
   24124:	00bfffc4 	movi	r2,-1
   24128:	d9800017 	ldw	r6,0(sp)
   2412c:	a080e826 	beq	r20,r2,244d0 <_malloc_r+0x738>
   24130:	a180a636 	bltu	r20,r6,243cc <_malloc_r+0x634>
   24134:	07000134 	movhi	fp,4
   24138:	e7271a04 	addi	fp,fp,-25496
   2413c:	e0800017 	ldw	r2,0(fp)
   24140:	a887883a 	add	r3,r21,r2
   24144:	e0c00015 	stw	r3,0(fp)
   24148:	3500e626 	beq	r6,r20,244e4 <_malloc_r+0x74c>
   2414c:	b9000017 	ldw	r4,0(r23)
   24150:	00bfffc4 	movi	r2,-1
   24154:	2080ee26 	beq	r4,r2,24510 <_malloc_r+0x778>
   24158:	a185c83a 	sub	r2,r20,r6
   2415c:	10c5883a 	add	r2,r2,r3
   24160:	e0800015 	stw	r2,0(fp)
   24164:	a0c001cc 	andi	r3,r20,7
   24168:	1800bc26 	beq	r3,zero,2445c <_malloc_r+0x6c4>
   2416c:	a0e9c83a 	sub	r20,r20,r3
   24170:	00840204 	movi	r2,4104
   24174:	a5000204 	addi	r20,r20,8
   24178:	10c7c83a 	sub	r3,r2,r3
   2417c:	a545883a 	add	r2,r20,r21
   24180:	1083ffcc 	andi	r2,r2,4095
   24184:	18abc83a 	sub	r21,r3,r2
   24188:	a80b883a 	mov	r5,r21
   2418c:	9009883a 	mov	r4,r18
   24190:	0024ad80 	call	24ad8 <_sbrk_r>
   24194:	00ffffc4 	movi	r3,-1
   24198:	10c0e126 	beq	r2,r3,24520 <_malloc_r+0x788>
   2419c:	1505c83a 	sub	r2,r2,r20
   241a0:	1545883a 	add	r2,r2,r21
   241a4:	10800054 	ori	r2,r2,1
   241a8:	e0c00017 	ldw	r3,0(fp)
   241ac:	9d000215 	stw	r20,8(r19)
   241b0:	a0800115 	stw	r2,4(r20)
   241b4:	a8c7883a 	add	r3,r21,r3
   241b8:	e0c00015 	stw	r3,0(fp)
   241bc:	84c00e26 	beq	r16,r19,241f8 <_malloc_r+0x460>
   241c0:	018003c4 	movi	r6,15
   241c4:	3580a72e 	bgeu	r6,r22,24464 <_malloc_r+0x6cc>
   241c8:	81400117 	ldw	r5,4(r16)
   241cc:	013ffe04 	movi	r4,-8
   241d0:	b0bffd04 	addi	r2,r22,-12
   241d4:	1104703a 	and	r2,r2,r4
   241d8:	2900004c 	andi	r4,r5,1
   241dc:	2088b03a 	or	r4,r4,r2
   241e0:	81000115 	stw	r4,4(r16)
   241e4:	01400144 	movi	r5,5
   241e8:	8089883a 	add	r4,r16,r2
   241ec:	21400115 	stw	r5,4(r4)
   241f0:	21400215 	stw	r5,8(r4)
   241f4:	3080cd36 	bltu	r6,r2,2452c <_malloc_r+0x794>
   241f8:	00800134 	movhi	r2,4
   241fc:	10a70a04 	addi	r2,r2,-25560
   24200:	11000017 	ldw	r4,0(r2)
   24204:	20c0012e 	bgeu	r4,r3,2420c <_malloc_r+0x474>
   24208:	10c00015 	stw	r3,0(r2)
   2420c:	00800134 	movhi	r2,4
   24210:	10a70904 	addi	r2,r2,-25564
   24214:	11000017 	ldw	r4,0(r2)
   24218:	9c000217 	ldw	r16,8(r19)
   2421c:	20c0012e 	bgeu	r4,r3,24224 <_malloc_r+0x48c>
   24220:	10c00015 	stw	r3,0(r2)
   24224:	80c00117 	ldw	r3,4(r16)
   24228:	00bfff04 	movi	r2,-4
   2422c:	1886703a 	and	r3,r3,r2
   24230:	1c45c83a 	sub	r2,r3,r17
   24234:	1c400236 	bltu	r3,r17,24240 <_malloc_r+0x4a8>
   24238:	00c003c4 	movi	r3,15
   2423c:	18800416 	blt	r3,r2,24250 <_malloc_r+0x4b8>
   24240:	9009883a 	mov	r4,r18
   24244:	0033d980 	call	33d98 <__malloc_unlock>
   24248:	0005883a 	mov	r2,zero
   2424c:	003f7b06 	br	2403c <__alt_mem_sdram_controller_0+0xc002403c>
   24250:	88c00054 	ori	r3,r17,1
   24254:	80c00115 	stw	r3,4(r16)
   24258:	8463883a 	add	r17,r16,r17
   2425c:	10800054 	ori	r2,r2,1
   24260:	9c400215 	stw	r17,8(r19)
   24264:	88800115 	stw	r2,4(r17)
   24268:	9009883a 	mov	r4,r18
   2426c:	0033d980 	call	33d98 <__malloc_unlock>
   24270:	80800204 	addi	r2,r16,8
   24274:	003f7106 	br	2403c <__alt_mem_sdram_controller_0+0xc002403c>
   24278:	00c00504 	movi	r3,20
   2427c:	18804a2e 	bgeu	r3,r2,243a8 <_malloc_r+0x610>
   24280:	00c01504 	movi	r3,84
   24284:	18806e36 	bltu	r3,r2,24440 <_malloc_r+0x6a8>
   24288:	8804d33a 	srli	r2,r17,12
   2428c:	12001bc4 	addi	r8,r2,111
   24290:	11c01b84 	addi	r7,r2,110
   24294:	4209883a 	add	r4,r8,r8
   24298:	003edd06 	br	23e10 <__alt_mem_sdram_controller_0+0xc0023e10>
   2429c:	3804d27a 	srli	r2,r7,9
   242a0:	00c00104 	movi	r3,4
   242a4:	1880442e 	bgeu	r3,r2,243b8 <_malloc_r+0x620>
   242a8:	00c00504 	movi	r3,20
   242ac:	18808136 	bltu	r3,r2,244b4 <_malloc_r+0x71c>
   242b0:	11401704 	addi	r5,r2,92
   242b4:	10c016c4 	addi	r3,r2,91
   242b8:	294b883a 	add	r5,r5,r5
   242bc:	294b883a 	add	r5,r5,r5
   242c0:	294b883a 	add	r5,r5,r5
   242c4:	994b883a 	add	r5,r19,r5
   242c8:	28800017 	ldw	r2,0(r5)
   242cc:	018000f4 	movhi	r6,3
   242d0:	297ffe04 	addi	r5,r5,-8
   242d4:	319a9a04 	addi	r6,r6,27240
   242d8:	28806526 	beq	r5,r2,24470 <_malloc_r+0x6d8>
   242dc:	01bfff04 	movi	r6,-4
   242e0:	10c00117 	ldw	r3,4(r2)
   242e4:	1986703a 	and	r3,r3,r6
   242e8:	38c0022e 	bgeu	r7,r3,242f4 <_malloc_r+0x55c>
   242ec:	10800217 	ldw	r2,8(r2)
   242f0:	28bffb1e 	bne	r5,r2,242e0 <__alt_mem_sdram_controller_0+0xc00242e0>
   242f4:	11400317 	ldw	r5,12(r2)
   242f8:	98c00117 	ldw	r3,4(r19)
   242fc:	81400315 	stw	r5,12(r16)
   24300:	80800215 	stw	r2,8(r16)
   24304:	2c000215 	stw	r16,8(r5)
   24308:	14000315 	stw	r16,12(r2)
   2430c:	003ef806 	br	23ef0 <__alt_mem_sdram_controller_0+0xc0023ef0>
   24310:	88c00054 	ori	r3,r17,1
   24314:	80c00115 	stw	r3,4(r16)
   24318:	8463883a 	add	r17,r16,r17
   2431c:	34400515 	stw	r17,20(r6)
   24320:	34400415 	stw	r17,16(r6)
   24324:	10c00054 	ori	r3,r2,1
   24328:	8a000315 	stw	r8,12(r17)
   2432c:	8a000215 	stw	r8,8(r17)
   24330:	88c00115 	stw	r3,4(r17)
   24334:	88a3883a 	add	r17,r17,r2
   24338:	88800015 	stw	r2,0(r17)
   2433c:	9009883a 	mov	r4,r18
   24340:	0033d980 	call	33d98 <__malloc_unlock>
   24344:	80800204 	addi	r2,r16,8
   24348:	003f3c06 	br	2403c <__alt_mem_sdram_controller_0+0xc002403c>
   2434c:	30c00117 	ldw	r3,4(r6)
   24350:	003ee706 	br	23ef0 <__alt_mem_sdram_controller_0+0xc0023ef0>
   24354:	5ac00044 	addi	r11,r11,1
   24358:	588000cc 	andi	r2,r11,3
   2435c:	31800204 	addi	r6,r6,8
   24360:	103efd1e 	bne	r2,zero,23f58 <__alt_mem_sdram_controller_0+0xc0023f58>
   24364:	00002406 	br	243f8 <_malloc_r+0x660>
   24368:	14000317 	ldw	r16,12(r2)
   2436c:	143f251e 	bne	r2,r16,24004 <__alt_mem_sdram_controller_0+0xc0024004>
   24370:	21000084 	addi	r4,r4,2
   24374:	003ebc06 	br	23e68 <__alt_mem_sdram_controller_0+0xc0023e68>
   24378:	8085883a 	add	r2,r16,r2
   2437c:	10c00117 	ldw	r3,4(r2)
   24380:	81000317 	ldw	r4,12(r16)
   24384:	81400217 	ldw	r5,8(r16)
   24388:	18c00054 	ori	r3,r3,1
   2438c:	10c00115 	stw	r3,4(r2)
   24390:	29000315 	stw	r4,12(r5)
   24394:	21400215 	stw	r5,8(r4)
   24398:	9009883a 	mov	r4,r18
   2439c:	0033d980 	call	33d98 <__malloc_unlock>
   243a0:	80800204 	addi	r2,r16,8
   243a4:	003f2506 	br	2403c <__alt_mem_sdram_controller_0+0xc002403c>
   243a8:	12001704 	addi	r8,r2,92
   243ac:	11c016c4 	addi	r7,r2,91
   243b0:	4209883a 	add	r4,r8,r8
   243b4:	003e9606 	br	23e10 <__alt_mem_sdram_controller_0+0xc0023e10>
   243b8:	3804d1ba 	srli	r2,r7,6
   243bc:	11400e44 	addi	r5,r2,57
   243c0:	10c00e04 	addi	r3,r2,56
   243c4:	294b883a 	add	r5,r5,r5
   243c8:	003fbc06 	br	242bc <__alt_mem_sdram_controller_0+0xc00242bc>
   243cc:	84ff5926 	beq	r16,r19,24134 <__alt_mem_sdram_controller_0+0xc0024134>
   243d0:	008000f4 	movhi	r2,3
   243d4:	109a9a04 	addi	r2,r2,27240
   243d8:	14000217 	ldw	r16,8(r2)
   243dc:	00bfff04 	movi	r2,-4
   243e0:	80c00117 	ldw	r3,4(r16)
   243e4:	1886703a 	and	r3,r3,r2
   243e8:	003f9106 	br	24230 <__alt_mem_sdram_controller_0+0xc0024230>
   243ec:	60800217 	ldw	r2,8(r12)
   243f0:	213fffc4 	addi	r4,r4,-1
   243f4:	1300651e 	bne	r2,r12,2458c <_malloc_r+0x7f4>
   243f8:	208000cc 	andi	r2,r4,3
   243fc:	633ffe04 	addi	r12,r12,-8
   24400:	103ffa1e 	bne	r2,zero,243ec <__alt_mem_sdram_controller_0+0xc00243ec>
   24404:	98800117 	ldw	r2,4(r19)
   24408:	0146303a 	nor	r3,zero,r5
   2440c:	1884703a 	and	r2,r3,r2
   24410:	98800115 	stw	r2,4(r19)
   24414:	294b883a 	add	r5,r5,r5
   24418:	117f2836 	bltu	r2,r5,240bc <__alt_mem_sdram_controller_0+0xc00240bc>
   2441c:	283f2726 	beq	r5,zero,240bc <__alt_mem_sdram_controller_0+0xc00240bc>
   24420:	2886703a 	and	r3,r5,r2
   24424:	5809883a 	mov	r4,r11
   24428:	183ec31e 	bne	r3,zero,23f38 <__alt_mem_sdram_controller_0+0xc0023f38>
   2442c:	294b883a 	add	r5,r5,r5
   24430:	2886703a 	and	r3,r5,r2
   24434:	21000104 	addi	r4,r4,4
   24438:	183ffc26 	beq	r3,zero,2442c <__alt_mem_sdram_controller_0+0xc002442c>
   2443c:	003ebe06 	br	23f38 <__alt_mem_sdram_controller_0+0xc0023f38>
   24440:	00c05504 	movi	r3,340
   24444:	18801236 	bltu	r3,r2,24490 <_malloc_r+0x6f8>
   24448:	8804d3fa 	srli	r2,r17,15
   2444c:	12001e04 	addi	r8,r2,120
   24450:	11c01dc4 	addi	r7,r2,119
   24454:	4209883a 	add	r4,r8,r8
   24458:	003e6d06 	br	23e10 <__alt_mem_sdram_controller_0+0xc0023e10>
   2445c:	00c40004 	movi	r3,4096
   24460:	003f4606 	br	2417c <__alt_mem_sdram_controller_0+0xc002417c>
   24464:	00800044 	movi	r2,1
   24468:	a0800115 	stw	r2,4(r20)
   2446c:	003f7406 	br	24240 <__alt_mem_sdram_controller_0+0xc0024240>
   24470:	1805d0ba 	srai	r2,r3,2
   24474:	01c00044 	movi	r7,1
   24478:	30c00117 	ldw	r3,4(r6)
   2447c:	388e983a 	sll	r7,r7,r2
   24480:	2805883a 	mov	r2,r5
   24484:	38c6b03a 	or	r3,r7,r3
   24488:	30c00115 	stw	r3,4(r6)
   2448c:	003f9b06 	br	242fc <__alt_mem_sdram_controller_0+0xc00242fc>
   24490:	00c15504 	movi	r3,1364
   24494:	18801a36 	bltu	r3,r2,24500 <_malloc_r+0x768>
   24498:	8804d4ba 	srli	r2,r17,18
   2449c:	12001f44 	addi	r8,r2,125
   244a0:	11c01f04 	addi	r7,r2,124
   244a4:	4209883a 	add	r4,r8,r8
   244a8:	003e5906 	br	23e10 <__alt_mem_sdram_controller_0+0xc0023e10>
   244ac:	ad400404 	addi	r21,r21,16
   244b0:	003f1706 	br	24110 <__alt_mem_sdram_controller_0+0xc0024110>
   244b4:	00c01504 	movi	r3,84
   244b8:	18802336 	bltu	r3,r2,24548 <_malloc_r+0x7b0>
   244bc:	3804d33a 	srli	r2,r7,12
   244c0:	11401bc4 	addi	r5,r2,111
   244c4:	10c01b84 	addi	r3,r2,110
   244c8:	294b883a 	add	r5,r5,r5
   244cc:	003f7b06 	br	242bc <__alt_mem_sdram_controller_0+0xc00242bc>
   244d0:	9c000217 	ldw	r16,8(r19)
   244d4:	00bfff04 	movi	r2,-4
   244d8:	80c00117 	ldw	r3,4(r16)
   244dc:	1886703a 	and	r3,r3,r2
   244e0:	003f5306 	br	24230 <__alt_mem_sdram_controller_0+0xc0024230>
   244e4:	3083ffcc 	andi	r2,r6,4095
   244e8:	103f181e 	bne	r2,zero,2414c <__alt_mem_sdram_controller_0+0xc002414c>
   244ec:	99000217 	ldw	r4,8(r19)
   244f0:	b545883a 	add	r2,r22,r21
   244f4:	10800054 	ori	r2,r2,1
   244f8:	20800115 	stw	r2,4(r4)
   244fc:	003f3e06 	br	241f8 <__alt_mem_sdram_controller_0+0xc00241f8>
   24500:	01003f84 	movi	r4,254
   24504:	02001fc4 	movi	r8,127
   24508:	01c01f84 	movi	r7,126
   2450c:	003e4006 	br	23e10 <__alt_mem_sdram_controller_0+0xc0023e10>
   24510:	00800134 	movhi	r2,4
   24514:	10a03e04 	addi	r2,r2,-32520
   24518:	15000015 	stw	r20,0(r2)
   2451c:	003f1106 	br	24164 <__alt_mem_sdram_controller_0+0xc0024164>
   24520:	00800044 	movi	r2,1
   24524:	002b883a 	mov	r21,zero
   24528:	003f1f06 	br	241a8 <__alt_mem_sdram_controller_0+0xc00241a8>
   2452c:	81400204 	addi	r5,r16,8
   24530:	9009883a 	mov	r4,r18
   24534:	00231680 	call	23168 <_free_r>
   24538:	00800134 	movhi	r2,4
   2453c:	10a71a04 	addi	r2,r2,-25496
   24540:	10c00017 	ldw	r3,0(r2)
   24544:	003f2c06 	br	241f8 <__alt_mem_sdram_controller_0+0xc00241f8>
   24548:	00c05504 	movi	r3,340
   2454c:	18800536 	bltu	r3,r2,24564 <_malloc_r+0x7cc>
   24550:	3804d3fa 	srli	r2,r7,15
   24554:	11401e04 	addi	r5,r2,120
   24558:	10c01dc4 	addi	r3,r2,119
   2455c:	294b883a 	add	r5,r5,r5
   24560:	003f5606 	br	242bc <__alt_mem_sdram_controller_0+0xc00242bc>
   24564:	00c15504 	movi	r3,1364
   24568:	18800536 	bltu	r3,r2,24580 <_malloc_r+0x7e8>
   2456c:	3804d4ba 	srli	r2,r7,18
   24570:	11401f44 	addi	r5,r2,125
   24574:	10c01f04 	addi	r3,r2,124
   24578:	294b883a 	add	r5,r5,r5
   2457c:	003f4f06 	br	242bc <__alt_mem_sdram_controller_0+0xc00242bc>
   24580:	01403f84 	movi	r5,254
   24584:	00c01f84 	movi	r3,126
   24588:	003f4c06 	br	242bc <__alt_mem_sdram_controller_0+0xc00242bc>
   2458c:	98800117 	ldw	r2,4(r19)
   24590:	003fa006 	br	24414 <__alt_mem_sdram_controller_0+0xc0024414>
   24594:	8808d0fa 	srli	r4,r17,3
   24598:	20800044 	addi	r2,r4,1
   2459c:	1085883a 	add	r2,r2,r2
   245a0:	003e9006 	br	23fe4 <__alt_mem_sdram_controller_0+0xc0023fe4>

000245a4 <memset>:
   245a4:	20c000cc 	andi	r3,r4,3
   245a8:	2005883a 	mov	r2,r4
   245ac:	18004426 	beq	r3,zero,246c0 <memset+0x11c>
   245b0:	31ffffc4 	addi	r7,r6,-1
   245b4:	30004026 	beq	r6,zero,246b8 <memset+0x114>
   245b8:	2813883a 	mov	r9,r5
   245bc:	200d883a 	mov	r6,r4
   245c0:	2007883a 	mov	r3,r4
   245c4:	00000406 	br	245d8 <memset+0x34>
   245c8:	3a3fffc4 	addi	r8,r7,-1
   245cc:	31800044 	addi	r6,r6,1
   245d0:	38003926 	beq	r7,zero,246b8 <memset+0x114>
   245d4:	400f883a 	mov	r7,r8
   245d8:	18c00044 	addi	r3,r3,1
   245dc:	32400005 	stb	r9,0(r6)
   245e0:	1a0000cc 	andi	r8,r3,3
   245e4:	403ff81e 	bne	r8,zero,245c8 <__alt_mem_sdram_controller_0+0xc00245c8>
   245e8:	010000c4 	movi	r4,3
   245ec:	21c02d2e 	bgeu	r4,r7,246a4 <memset+0x100>
   245f0:	29003fcc 	andi	r4,r5,255
   245f4:	200c923a 	slli	r6,r4,8
   245f8:	3108b03a 	or	r4,r6,r4
   245fc:	200c943a 	slli	r6,r4,16
   24600:	218cb03a 	or	r6,r4,r6
   24604:	010003c4 	movi	r4,15
   24608:	21c0182e 	bgeu	r4,r7,2466c <memset+0xc8>
   2460c:	3b3ffc04 	addi	r12,r7,-16
   24610:	6018d13a 	srli	r12,r12,4
   24614:	1a000104 	addi	r8,r3,4
   24618:	1ac00204 	addi	r11,r3,8
   2461c:	6008913a 	slli	r4,r12,4
   24620:	1a800304 	addi	r10,r3,12
   24624:	1813883a 	mov	r9,r3
   24628:	21000504 	addi	r4,r4,20
   2462c:	1909883a 	add	r4,r3,r4
   24630:	49800015 	stw	r6,0(r9)
   24634:	41800015 	stw	r6,0(r8)
   24638:	59800015 	stw	r6,0(r11)
   2463c:	51800015 	stw	r6,0(r10)
   24640:	42000404 	addi	r8,r8,16
   24644:	4a400404 	addi	r9,r9,16
   24648:	5ac00404 	addi	r11,r11,16
   2464c:	52800404 	addi	r10,r10,16
   24650:	413ff71e 	bne	r8,r4,24630 <__alt_mem_sdram_controller_0+0xc0024630>
   24654:	63000044 	addi	r12,r12,1
   24658:	6018913a 	slli	r12,r12,4
   2465c:	39c003cc 	andi	r7,r7,15
   24660:	010000c4 	movi	r4,3
   24664:	1b07883a 	add	r3,r3,r12
   24668:	21c00e2e 	bgeu	r4,r7,246a4 <memset+0x100>
   2466c:	1813883a 	mov	r9,r3
   24670:	3811883a 	mov	r8,r7
   24674:	010000c4 	movi	r4,3
   24678:	49800015 	stw	r6,0(r9)
   2467c:	423fff04 	addi	r8,r8,-4
   24680:	4a400104 	addi	r9,r9,4
   24684:	223ffc36 	bltu	r4,r8,24678 <__alt_mem_sdram_controller_0+0xc0024678>
   24688:	393fff04 	addi	r4,r7,-4
   2468c:	2008d0ba 	srli	r4,r4,2
   24690:	39c000cc 	andi	r7,r7,3
   24694:	21000044 	addi	r4,r4,1
   24698:	2109883a 	add	r4,r4,r4
   2469c:	2109883a 	add	r4,r4,r4
   246a0:	1907883a 	add	r3,r3,r4
   246a4:	38000526 	beq	r7,zero,246bc <memset+0x118>
   246a8:	19cf883a 	add	r7,r3,r7
   246ac:	19400005 	stb	r5,0(r3)
   246b0:	18c00044 	addi	r3,r3,1
   246b4:	38fffd1e 	bne	r7,r3,246ac <__alt_mem_sdram_controller_0+0xc00246ac>
   246b8:	f800283a 	ret
   246bc:	f800283a 	ret
   246c0:	2007883a 	mov	r3,r4
